
OK-128TFTc.elf:     file format elf32-avr

Sections:
Idx Name          Size      VMA       LMA       File off  Algn
  0 .data         00000a3e  00800100  0000c5e2  0000c676  2**0
                  CONTENTS, ALLOC, LOAD, DATA
  1 .text         0000c5e2  00000000  00000000  00000094  2**1
                  CONTENTS, ALLOC, LOAD, READONLY, CODE
  2 .bss          00000115  00800b3e  00800b3e  0000d0b4  2**0
                  ALLOC
  3 .debug_aranges 00000020  00000000  00000000  0000d0b4  2**0
                  CONTENTS, READONLY, DEBUGGING
  4 .debug_pubnames 00000ab0  00000000  00000000  0000d0d4  2**0
                  CONTENTS, READONLY, DEBUGGING
  5 .debug_info   00002738  00000000  00000000  0000db84  2**0
                  CONTENTS, READONLY, DEBUGGING
  6 .debug_abbrev 000002e7  00000000  00000000  000102bc  2**0
                  CONTENTS, READONLY, DEBUGGING
  7 .debug_line   00004274  00000000  00000000  000105a3  2**0
                  CONTENTS, READONLY, DEBUGGING
  8 .debug_frame  00000650  00000000  00000000  00014818  2**2
                  CONTENTS, READONLY, DEBUGGING
  9 .debug_str    00000b2c  00000000  00000000  00014e68  2**0
                  CONTENTS, READONLY, DEBUGGING
 10 .debug_loc    0000285c  00000000  00000000  00015994  2**0
                  CONTENTS, READONLY, DEBUGGING
 11 .debug_ranges 00000168  00000000  00000000  000181f0  2**0
                  CONTENTS, READONLY, DEBUGGING

Disassembly of section .text:

00000000 <__vectors>:
       0:	0c 94 ce 24 	jmp	0x499c	; 0x499c <__ctors_end>
       4:	0c 94 ed 24 	jmp	0x49da	; 0x49da <__bad_interrupt>
       8:	0c 94 ed 24 	jmp	0x49da	; 0x49da <__bad_interrupt>
       c:	0c 94 ed 24 	jmp	0x49da	; 0x49da <__bad_interrupt>
      10:	0c 94 ed 24 	jmp	0x49da	; 0x49da <__bad_interrupt>
      14:	0c 94 ed 24 	jmp	0x49da	; 0x49da <__bad_interrupt>
      18:	0c 94 ed 24 	jmp	0x49da	; 0x49da <__bad_interrupt>
      1c:	0c 94 ed 24 	jmp	0x49da	; 0x49da <__bad_interrupt>
      20:	0c 94 ed 24 	jmp	0x49da	; 0x49da <__bad_interrupt>
      24:	0c 94 ed 24 	jmp	0x49da	; 0x49da <__bad_interrupt>
      28:	0c 94 ed 24 	jmp	0x49da	; 0x49da <__bad_interrupt>
      2c:	0c 94 ed 24 	jmp	0x49da	; 0x49da <__bad_interrupt>
      30:	0c 94 61 41 	jmp	0x82c2	; 0x82c2 <__vector_12>
      34:	0c 94 ed 24 	jmp	0x49da	; 0x49da <__bad_interrupt>
      38:	0c 94 ed 24 	jmp	0x49da	; 0x49da <__bad_interrupt>
      3c:	0c 94 ed 24 	jmp	0x49da	; 0x49da <__bad_interrupt>
      40:	0c 94 ed 24 	jmp	0x49da	; 0x49da <__bad_interrupt>
      44:	0c 94 ed 24 	jmp	0x49da	; 0x49da <__bad_interrupt>
      48:	0c 94 ed 24 	jmp	0x49da	; 0x49da <__bad_interrupt>
      4c:	0c 94 ed 24 	jmp	0x49da	; 0x49da <__bad_interrupt>
      50:	0c 94 ed 24 	jmp	0x49da	; 0x49da <__bad_interrupt>
      54:	0c 94 ed 24 	jmp	0x49da	; 0x49da <__bad_interrupt>
      58:	0c 94 ed 24 	jmp	0x49da	; 0x49da <__bad_interrupt>
      5c:	0c 94 ed 24 	jmp	0x49da	; 0x49da <__bad_interrupt>
      60:	0c 94 ed 24 	jmp	0x49da	; 0x49da <__bad_interrupt>
      64:	0c 94 ed 24 	jmp	0x49da	; 0x49da <__bad_interrupt>
      68:	0c 94 ed 24 	jmp	0x49da	; 0x49da <__bad_interrupt>
      6c:	0c 94 ed 24 	jmp	0x49da	; 0x49da <__bad_interrupt>
      70:	0c 94 ed 24 	jmp	0x49da	; 0x49da <__bad_interrupt>
      74:	0c 94 ed 24 	jmp	0x49da	; 0x49da <__bad_interrupt>
      78:	0c 94 ed 24 	jmp	0x49da	; 0x49da <__bad_interrupt>
      7c:	0c 94 ed 24 	jmp	0x49da	; 0x49da <__bad_interrupt>
      80:	0c 94 ed 24 	jmp	0x49da	; 0x49da <__bad_interrupt>
      84:	0c 94 ed 24 	jmp	0x49da	; 0x49da <__bad_interrupt>
      88:	0c 94 ed 24 	jmp	0x49da	; 0x49da <__bad_interrupt>
      8c:	05 a8       	ldd	r0, Z+53	; 0x35
      8e:	4c cd       	rjmp	.-1384   	; 0xfffffb28 <__eeprom_end+0xff7efb28>
      90:	b2 d4       	rcall	.+2404   	; 0x9f6 <K_font+0x8b9>
      92:	4e b9       	out	0x0e, r20	; 14
      94:	38 36       	cpi	r19, 0x68	; 104
      96:	a9 02       	muls	r26, r25
      98:	0c 50       	subi	r16, 0x0C	; 12
      9a:	b9 91       	ld	r27, Y+
      9c:	86 88       	ldd	r8, Z+22	; 0x16
      9e:	08 3c       	cpi	r16, 0xC8	; 200
      a0:	a6 aa       	std	Z+54, r10	; 0x36
      a2:	aa 2a       	or	r10, r26
      a4:	be 00       	.word	0x00be	; ????
      a6:	00 00       	nop
      a8:	80 3f       	cpi	r24, 0xF0	; 240

000000aa <table_cho>:
      aa:	00 00 01 02 03 04 05 06 07 08 09 0a 0b 0c 0d 0e     ................
      ba:	0f 10 11 12 13                                      .....

000000bf <table_joong>:
      bf:	00 00 00 01 02 03 04 05 00 00 06 07 08 09 0a 0b     ................
      cf:	00 00 0c 0d 0e 0f 10 11 00 00 12 13 14 15           ..............

000000dd <table_jong>:
      dd:	00 00 01 02 03 04 05 06 07 08 09 0a 0b 0c 0d 0e     ................
      ed:	0f 10 00 11 12 13 14 15 16 17 18 19 1a 1b           ..............

000000fb <bul_cho1>:
	...
     103:	00 01 03 03 03 01 02 04 04 04 02 01 03 00           ..............

00000111 <bul_cho2>:
     111:	00 05 05 05 05 05 05 05 05 06 07 07 07 06 06 07     ................
     121:	07 07 06 06 07 05                                   ......

00000127 <bul_jong>:
     127:	00 00 02 00 02 01 02 01 02 03 00 02 01 03 03 01     ................
     137:	02 01 03 03 01 01                                   ......

0000013d <K_font>:
	...
     15d:	00 00 08 08 08 88 c8 78 38 00 00 00 00 00 00 00     .......x8.......
     16d:	00 00 02 02 01 01 00 00 00 00 00 00 00 00 00 00     ................
     17d:	00 08 08 c8 f8 38 c8 f8 38 00 00 00 00 00 00 00     .....8..8.......
     18d:	00 02 01 01 02 01 01 00 00 00 00 00 00 00 00 00     ................
     19d:	00 08 f8 f8 00 00 00 00 00 00 00 00 00 00 00 00     ................
     1ad:	00 00 01 03 02 02 02 02 02 02 00 00 00 00 00 00     ................
     1bd:	00 08 f8 f8 08 08 08 08 00 00 00 00 00 00 00 00     ................
     1cd:	00 00 01 03 02 02 02 02 02 00 00 00 00 00 00 00     ................
     1dd:	00 08 f8 f8 08 f8 f8 08 08 00 00 00 00 00 00 00     ................
     1ed:	00 00 01 03 02 01 03 02 02 02 00 00 00 00 00 00     ................
     1fd:	00 00 c8 c8 48 48 48 78 78 00 00 00 00 00 00 00     ....HHHxx.......
     20d:	00 00 01 03 02 02 02 02 02 02 00 00 00 00 00 00     ................
     21d:	00 08 f8 f8 08 08 08 f8 f8 00 00 00 00 00 00 00     ................
     22d:	00 00 03 03 02 02 02 03 03 00 00 00 00 00 00 00     ................
     23d:	00 10 f0 f0 40 40 48 f8 f8 00 00 00 00 00 00 00     ....@@H.........
     24d:	00 00 03 03 02 02 02 03 03 00 00 00 00 00 00 00     ................
     25d:	10 f0 f0 40 f0 f0 48 f8 f8 00 00 00 00 00 00 00     ...@..H.........
     26d:	00 03 03 02 03 03 02 03 03 00 00 00 00 00 00 00     ................
     27d:	00 00 00 00 c4 7c fc 80 00 00 00 00 00 00 00 00     .....|..........
     28d:	00 02 02 01 01 00 00 01 03 02 00 00 00 00 00 00     ................
     29d:	00 00 f8 78 80 80 78 f8 00 00 00 00 00 00 00 00     ...x..x.........
     2ad:	02 03 01 00 03 03 00 01 03 02 00 00 00 00 00 00     ................
     2bd:	00 e0 f0 18 08 08 18 f0 e0 00 00 00 00 00 00 00     ................
     2cd:	00 00 01 03 02 02 03 01 00 00 00 00 00 00 00 00     ................
     2dd:	00 08 08 08 88 c8 78 38 00 00 00 00 00 00 00 00     ......x8........
     2ed:	00 02 02 01 01 00 01 03 02 00 00 00 00 00 00 00     ................
     2fd:	00 08 88 c8 f8 b8 c8 f8 38 00 00 00 00 00 00 00     ........8.......
     30d:	02 03 01 02 03 01 00 01 03 02 00 00 00 00 00 00     ................
     31d:	00 10 10 14 94 d4 f4 30 00 00 00 00 00 00 00 00     .......0........
     32d:	00 02 02 01 01 00 01 03 02 00 00 00 00 00 00 00     ................
     33d:	00 28 28 28 28 a8 e8 78 38 00 00 00 00 00 00 00     .((((..x8.......
     34d:	00 02 02 02 01 01 00 00 00 00 00 00 00 00 00 00     ................
     35d:	00 08 f8 f8 48 48 48 48 48 00 00 00 00 00 00 00     ....HHHHH.......
     36d:	00 00 01 03 02 02 02 02 02 02 00 00 00 00 00 00     ................
     37d:	08 08 f8 f8 08 08 f8 f8 08 08 00 00 00 00 00 00     ................
     38d:	02 02 03 03 02 02 03 03 02 02 00 00 00 00 00 00     ................
     39d:	00 08 c8 e8 2c 2c 2c e8 c8 08 00 00 00 00 00 00     ....,,,.........
     3ad:	00 00 01 03 02 02 02 03 01 00 00 00 00 00 00 00     ................
	...
     3dd:	00 00 00 04 04 04 04 04 04 04 fc 7c 00 00 00 00     ...........|....
	...
     3fd:	00 00 00 04 04 04 fc 7c 04 04 04 fc 7c 00 00 00     .......|....|...
	...
     41d:	00 00 04 3c 7c 40 40 40 40 40 40 40 40 00 00 00     ...<|@@@@@@@@...
	...
     43d:	00 00 04 3c 7c 44 44 44 44 44 44 44 00 00 00 00     ...<|DDDDDDD....
	...
     45d:	00 00 04 3c 7c 44 44 44 3c 7c 44 44 44 00 00 00     ...<|DDD<|DDD...
	...
     47d:	00 00 00 34 74 54 54 54 54 54 54 5c 5c 00 00 00     ...4tTTTTTT\\...
	...
     49d:	00 00 04 7c 7c 44 44 44 44 44 7c 7c 00 00 00 00     ...||DDDDD||....
	...
     4bd:	00 00 04 7c 7c 50 50 50 50 54 7c 7c 00 00 00 00     ...||PPPPT||....
	...
     4dd:	00 00 04 7c 7c 50 50 7c 7c 50 50 7c 7c 00 00 00     ...||PP||PP||...
	...
     4fd:	00 00 80 80 40 60 34 1c 1c 10 20 60 c0 80 00 00     ....@`4... `....
	...
     51d:	00 80 c0 60 3c 1c b0 c0 60 3c 3c 60 c0 80 00 00     ...`<...`<<`....
	...
     53d:	00 00 00 38 7c 44 44 44 44 44 7c 38 00 00 00 00     ...8|DDDDD|8....
	...
     55d:	00 00 80 84 44 44 24 24 14 3c 2c 44 c0 80 00 00     ....DD$$.<,D....
	...
     57d:	00 00 44 64 34 1c 1c 64 64 1c 1c 34 64 40 00 00     ..Dd4..dd..4d@..
	...
     59d:	00 00 80 88 48 48 6a 3a 1a 3a 28 48 c8 80 00 00     ....HHj:.:(H....
	...
     5bd:	00 00 00 24 24 24 24 24 24 24 24 fc fc 00 00 00     ...$$$$$$$$.....
	...
     5d5:	00 00 00 01 00 00 00 00 00 00 04 3c 7c 54 54 54     ...........<|TTT
     5e5:	54 54 54 54 54 00 00 00 00 00 00 00 00 00 00 00     TTTTT...........
	...
     5fd:	00 00 00 44 44 7c 7c 44 44 7c 7c 44 44 00 00 00     ...DD||DD||DD...
	...
     61d:	00 00 00 04 34 7c 4e 4e 4e 4e 7c 34 04 00 00 00     ....4|NNNN|4....
	...
     65d:	00 00 00 04 04 04 04 04 04 04 fc 7c 00 00 00 00     ...........|....
	...
     67d:	00 00 00 04 04 04 7c 3c 04 04 04 7c 3c 00 00 00     ......|<...|<...
	...
     69d:	00 00 04 3c 7c 40 40 40 40 40 40 40 40 00 00 00     ...<|@@@@@@@@...
	...
     6bd:	00 00 04 3c 7c 44 44 44 44 44 44 44 00 00 00 00     ...<|DDDDDDD....
	...
     6dd:	00 00 04 3c 7c 44 44 44 3c 7c 44 44 44 00 00 00     ...<|DDD<|DDD...
	...
     6fd:	00 00 00 34 74 54 54 54 54 54 54 5c 5c 00 00 00     ...4tTTTTTT\\...
	...
     71d:	00 00 04 7c 7c 44 44 44 44 44 7c 7c 00 00 00 00     ...||DDDDD||....
	...
     73d:	00 00 04 7c 7c 50 50 50 50 54 7c 7c 00 00 00 00     ...||PPPPT||....
	...
     75d:	00 00 04 7c 7c 50 50 7c 7c 50 50 7c 7c 00 00 00     ...||PP||PP||...
	...
     77d:	00 00 40 40 20 30 1a 0e 0e 08 10 30 60 40 00 00     ..@@ 0.....0`@..
	...
     79d:	00 40 60 30 1e 0e 18 60 18 0e 1e 30 60 40 00 00     .@`0...`...0`@..
	...
     7c1:	1c 3e 22 22 22 22 3e 1c 00 00 00 00 00 00 00 00     .>"""">.........
	...
     7dd:	00 00 40 42 22 22 12 12 0a 1e 16 22 60 40 00 00     ..@B""....."`@..
	...
     7fd:	00 00 44 64 34 1c 1c 64 64 1c 1c 34 64 40 00 00     ..Dd4..dd..4d@..
	...
     81d:	00 00 40 44 24 24 36 1e 0e 1e 14 24 64 40 00 00     ..@D$$6....$d@..
	...
     83d:	00 00 00 24 24 24 24 24 24 24 24 fc 7c 00 00 00     ...$$$$$$$$.|...
	...
     85d:	00 00 04 3c 7c 54 54 54 54 54 54 54 54 00 00 00     ...<|TTTTTTTT...
	...
     87d:	00 00 00 44 44 7c 7c 44 44 7c 7c 44 44 00 00 00     ...DD||DD||DD...
	...
     89d:	00 00 00 04 34 7c 4e 4e 4e 4e 7c 34 04 00 00 00     ....4|NNNN|4....
	...
     8dd:	00 00 04 04 04 04 04 fc 7c 00 00 00 00 00 00 00     ........|.......
	...
     8fd:	00 00 04 04 fc 7c 04 04 fc 7c 00 00 00 00 00 00     .....|...|......
	...
     91d:	00 04 3c 7c 40 40 40 40 40 40 00 00 00 00 00 00     ..<|@@@@@@......
	...
     93d:	00 04 3c 7c 44 44 44 44 44 00 00 00 00 00 00 00     ..<|DDDDD.......
	...
     95d:	00 04 3c 7c 44 44 3c 7c 44 44 00 00 00 00 00 00     ..<|DD<|DD......
	...
     97d:	00 00 34 74 54 54 54 5c 5c 00 00 00 00 00 00 00     ..4tTTT\\.......
	...
     99d:	00 04 7c 7c 44 44 44 7c 7c 00 00 00 00 00 00 00     ..||DDD||.......
	...
     9bd:	00 04 7c 7c 50 50 54 7c 7c 00 00 00 00 00 00 00     ..||PPT||.......
	...
     9dd:	00 04 7c 7c 50 7c 7c 50 7c 7c 00 00 00 00 00 00     ..||P||P||......
	...
     9fd:	00 80 40 60 34 1c 1c 20 60 c0 80 00 00 00 00 00     ..@`4.. `.......
	...
     a1d:	00 80 c0 7c 3c e0 e0 3c 7c c0 80 00 00 00 00 00     ...|<..<|.......
	...
     a3d:	00 00 38 7c 44 44 44 7c 38 00 00 00 00 00 00 00     ..8|DDD|8.......
	...
     a5d:	00 00 44 44 24 34 1c 2c 64 40 00 00 00 00 00 00     ..DD$4.,d@......
	...
     a7d:	00 40 64 34 3c 6c 34 3c 6c 44 00 00 00 00 00 00     .@d4<l4<lD......
	...
     a9d:	00 00 88 88 4c 6c 3c 58 c8 80 00 00 00 00 00 00     ....Ll<X........
	...
     abd:	00 00 14 14 14 14 14 14 fc 7c 00 00 00 00 00 00     .........|......
	...
     add:	00 04 3c 7c 54 54 54 54 54 00 00 00 00 00 00 00     ..<|TTTTT.......
	...
     afd:	00 00 44 7c 7c 44 44 7c 7c 44 00 00 00 00 00 00     ..D||DD||D......
	...
     b1d:	00 04 34 7c 4e 4e 4e 7c 34 04 00 00 00 00 00 00     ..4|NNN|4.......
	...
     b5d:	00 00 04 04 04 04 04 fc 7c 00 00 00 00 00 00 00     ........|.......
	...
     b7d:	00 04 04 7c 3c 04 04 7c 3c 00 00 00 00 00 00 00     ...|<..|<.......
	...
     b9d:	00 04 3c 7c 40 40 40 40 40 00 00 00 00 00 00 00     ..<|@@@@@.......
	...
     bbd:	00 04 3c 7c 44 44 44 44 44 00 00 00 00 00 00 00     ..<|DDDDD.......
	...
     bdd:	00 04 3c 7c 44 44 3c 7c 44 44 00 00 00 00 00 00     ..<|DD<|DD......
	...
     bfd:	00 00 34 74 54 54 54 5c 5c 00 00 00 00 00 00 00     ..4tTTT\\.......
	...
     c1d:	00 04 7c 7c 44 44 44 7c 7c 00 00 00 00 00 00 00     ..||DDD||.......
	...
     c3d:	00 04 7c 7c 50 50 54 7c 7c 00 00 00 00 00 00 00     ..||PPT||.......
	...
     c5d:	00 04 7c 7c 50 7c 7c 50 7c 7c 00 00 00 00 00 00     ..||P||P||......
	...
     c7d:	00 40 20 30 1a 0e 0e 10 30 60 00 00 00 00 00 00     .@ 0....0`......
	...
     c9d:	00 40 60 3c 1c 70 70 1c 3c 60 40 00 00 00 00 00     .@`<.pp.<`@.....
	...
     cbd:	00 00 38 7c 44 44 44 7c 38 00 00 00 00 00 00 00     ..8|DDD|8.......
	...
     cdd:	00 40 44 24 24 14 1c 2c 64 40 00 00 00 00 00 00     .@D$$..,d@......
	...
     cfd:	00 44 64 34 3c 6c 74 3c 6c 44 00 00 00 00 00 00     .Dd4<lt<lD......
	...
     d1d:	00 44 44 24 26 16 1e 2c 64 40 00 00 00 00 00 00     .DD$&..,d@......
	...
     d3d:	00 00 14 14 14 14 14 fc 7c 00 00 00 00 00 00 00     ........|.......
	...
     d5d:	00 04 3c 7c 54 54 54 54 54 00 00 00 00 00 00 00     ..<|TTTTT.......
	...
     d7d:	00 44 7c 7c 44 44 7c 7c 44 00 00 00 00 00 00 00     .D||DD||D.......
	...
     d9d:	00 04 34 7c 4e 4e 4e 7c 34 04 00 00 00 00 00 00     ..4|NNN|4.......
	...
     ddd:	00 00 04 04 84 c4 64 3c 1c 00 00 00 00 00 00 00     ......d<........
     ded:	00 00 01 01 00 00 00 00 00 00 00 00 00 00 00 00     ................
     dfd:	00 04 84 e4 7c 9c e4 7c 1c 00 00 00 00 00 00 00     ....|..|........
     e0d:	00 01 00 00 01 00 00 00 00 00 00 00 00 00 00 00     ................
     e1d:	00 04 7c fc 80 80 80 80 80 00 00 00 00 00 00 00     ..|.............
	...
     e3d:	00 04 7c fc 84 84 84 84 80 00 00 00 00 00 00 00     ..|.............
	...
     e5d:	00 04 7c fc 84 7c fc 84 84 80 00 00 00 00 00 00     ..|..|..........
	...
     e7d:	00 00 e4 e4 24 24 24 3c 3c 00 00 00 00 00 00 00     ....$$$<<.......
     e8d:	00 00 00 01 01 01 01 01 01 01 00 00 00 00 00 00     ................
     e9d:	00 04 fc fc 84 84 84 fc fc 00 00 00 00 00 00 00     ................
	...
     ebd:	00 04 fc fc 90 90 94 fc fc 00 00 00 00 00 00 00     ................
	...
     edd:	04 fc fc 90 fc fc 90 fc fc 00 00 00 00 00 00 00     ................
	...
     efd:	00 00 00 80 e4 3c 7c c0 80 00 00 00 00 00 00 00     .....<|.........
     f0d:	00 01 01 00 00 00 00 00 01 01 00 00 00 00 00 00     ................
     f1d:	00 80 c0 7c 1c e0 1c 7c c0 80 00 00 00 00 00 00     ...|...|........
	...
     f3d:	00 00 78 fc 84 84 84 fc 78 00 00 00 00 00 00 00     ..x.....x.......
	...
     f5d:	00 00 84 84 44 64 34 5c cc 80 00 00 00 00 00 00     ....Dd4\........
	...
     f7d:	00 84 c4 64 fc dc 64 fc 9c 00 00 00 00 00 00 00     ...d..d.........
     f8d:	00 00 00 01 01 00 00 00 01 01 00 00 00 00 00 00     ................
     f9d:	00 08 08 8c cc 6c f8 98 00 00 00 00 00 00 00 00     .....l..........
     fad:	00 01 01 00 00 00 00 01 01 00 00 00 00 00 00 00     ................
     fbd:	00 00 14 14 94 d4 74 3c 1c 00 00 00 00 00 00 00     ......t<........
     fcd:	00 00 01 01 00 00 00 00 00 00 00 00 00 00 00 00     ................
     fdd:	00 04 fc fc 24 24 24 24 00 00 00 00 00 00 00 00     ....$$$$........
     fed:	00 00 00 01 01 01 01 01 01 00 00 00 00 00 00 00     ................
     ffd:	00 84 fc fc 84 84 fc fc 84 84 00 00 00 00 00 00     ................
	...
    101d:	00 04 74 fc 8e 8e fc 74 04 00 00 00 00 00 00 00     ..t....t........
	...
    105d:	00 00 00 04 04 04 04 04 04 04 04 7c 3c 00 00 00     ...........|<...
	...
    107d:	00 00 04 04 04 7c 3c 04 04 04 04 7c 3c 00 00 00     .....|<....|<...
	...
    109d:	00 00 04 1c 3c 20 20 20 20 20 20 20 20 00 00 00     ....<        ...
	...
    10bd:	00 00 04 1c 3c 24 24 24 24 24 24 24 24 00 00 00     ....<$$$$$$$$...
	...
    10dd:	00 00 04 1c 3c 24 24 24 1c 3c 24 24 24 00 00 00     ....<$$$.<$$$...
	...
    10fd:	00 00 00 34 74 54 54 54 54 54 54 5c 5c 00 00 00     ...4tTTTTTT\\...
	...
    111d:	00 00 00 04 3c 3c 24 24 24 24 24 3c 3c 00 00 00     ....<<$$$$$<<...
	...
    113d:	00 00 04 7c 7c 50 50 50 50 50 54 7c 7c 00 00 00     ...||PPPPPT||...
	...
    115d:	00 00 04 7c 7c 50 50 7c 7c 50 50 7c 7c 00 00 00     ...||PP||PP||...
	...
    117d:	00 00 40 40 20 30 1a 0e 0e 08 10 30 60 40 00 00     ..@@ 0.....0`@..
	...
    119d:	00 40 60 30 1e 0e 58 70 30 1e 1e 30 60 40 00 00     .@`0..Xp0..0`@..
	...
    11c1:	38 7c 44 44 44 44 7c 38 00 00 00 00 00 00 00 00     8|DDDD|8........
	...
    11dd:	00 00 00 44 44 44 24 24 14 3c 2c 44 40 00 00 00     ...DDD$$.<,D@...
	...
    11fd:	00 00 44 64 34 1c 1c 64 64 1c 1c 34 64 40 00 00     ..Dd4..dd..4d@..
	...
    121d:	00 00 00 44 44 24 34 1e 0e 1e 34 24 44 40 00 00     ...DD$4...4$D@..
	...
    123d:	00 00 00 14 14 14 14 14 14 14 14 7c 3c 00 00 00     ...........|<...
	...
    125d:	00 00 04 3c 7c 54 54 54 54 54 54 54 54 00 00 00     ...<|TTTTTTTT...
	...
    127d:	00 00 00 44 44 7c 7c 44 44 7c 7c 44 44 00 00 00     ...DD||DD||DD...
	...
    129d:	00 00 00 04 34 7c 4e 4e 4e 4e 7c 34 04 00 00 00     ....4|NNNN|4....
	...
    12dd:	00 00 04 04 04 04 04 7c 3c 00 00 00 00 00 00 00     .......|<.......
	...
    12fd:	00 04 04 7c 3c 04 04 7c 3c 00 00 00 00 00 00 00     ...|<..|<.......
	...
    131d:	00 04 3c 7c 40 40 40 40 40 00 00 00 00 00 00 00     ..<|@@@@@.......
	...
    133d:	00 04 3c 7c 44 44 44 44 44 00 00 00 00 00 00 00     ..<|DDDDD.......
	...
    135d:	00 04 3c 7c 44 44 3c 7c 44 44 00 00 00 00 00 00     ..<|DD<|DD......
	...
    137d:	00 00 34 74 54 54 54 5c 5c 00 00 00 00 00 00 00     ..4tTTT\\.......
	...
    139d:	00 04 7c 7c 44 44 44 7c 7c 00 00 00 00 00 00 00     ..||DDD||.......
	...
    13bd:	00 04 7c 7c 50 50 54 7c 7c 00 00 00 00 00 00 00     ..||PPT||.......
	...
    13dd:	00 04 7c 7c 50 7c 7c 50 7c 7c 00 00 00 00 00 00     ..||P||P||......
	...
    13fd:	00 40 20 30 1a 0e 0e 10 30 60 00 00 00 00 00 00     .@ 0....0`......
	...
    141d:	00 40 60 3c 1c 70 70 1c 3c 60 40 00 00 00 00 00     .@`<.pp.<`@.....
	...
    143d:	00 00 38 7c 44 44 44 7c 38 00 00 00 00 00 00 00     ..8|DDD|8.......
	...
    145d:	00 40 44 24 24 14 1c 2c 64 40 00 00 00 00 00 00     .@D$$..,d@......
	...
    147d:	00 44 64 34 3c 6c 34 3c 6c 44 00 00 00 00 00 00     .Dd4<l4<lD......
	...
    149d:	00 44 44 24 26 16 1e 2c 64 40 00 00 00 00 00 00     .DD$&..,d@......
	...
    14bd:	00 00 14 14 14 14 14 fc 7c 00 00 00 00 00 00 00     ........|.......
	...
    14dd:	00 04 3c 7c 54 54 54 54 54 00 00 00 00 00 00 00     ..<|TTTTT.......
	...
    14fd:	00 44 7c 7c 44 44 7c 7c 44 00 00 00 00 00 00 00     .D||DD||D.......
	...
    151d:	00 04 34 7c 4e 4e 4e 7c 34 04 00 00 00 00 00 00     ..4|NNN|4.......
	...
    1565:	00 00 02 fe fe 40 40 40 00 00 00 00 00 00 00 00     .....@@@........
    1575:	00 00 00 7f 3f 00 00 00 00 00 00 00 00 00 00 00     ....?...........
    1585:	00 04 fc fc 42 fe fe 00 00 00 00 00 00 00 00 00     ....B...........
    1595:	00 00 3f 1f 00 7f 3f 00 00 00 00 00 00 00 00 00     ..?...?.........
    15a5:	00 00 02 fe fe 20 20 20 00 00 00 00 00 00 00 00     .....   ........
    15b5:	00 00 00 7f 3f 01 01 01 00 00 00 00 00 00 00 00     ....?...........
    15c5:	00 04 fc fc 22 fe fe 00 00 00 00 00 00 00 00 00     ...."...........
    15d5:	00 00 3f 1f 01 7f 3f 00 00 00 00 00 00 00 00 00     ..?...?.........
    15e5:	00 40 40 42 fe fe 00 00 00 00 00 00 00 00 00 00     .@@B............
    15f5:	00 00 00 00 7f 3f 00 00 00 00 00 00 00 00 00 00     .....?..........
    1605:	40 44 fc fc 02 fe fe 00 00 00 00 00 00 00 00 00     @D..............
    1615:	00 00 3f 1f 00 7f 3f 00 00 00 00 00 00 00 00 00     ..?...?.........
    1625:	00 a0 a0 a2 fe fe 00 00 00 00 00 00 00 00 00 00     ................
    1635:	00 00 00 00 7f 3f 00 00 00 00 00 00 00 00 00 a0     .....?..........
    1645:	a0 a4 fc fc 02 fe fe 00 00 00 00 00 00 00 00 00     ................
    1655:	00 00 3f 1f 00 7f 3f 00 00 00 00 00 00 00 00 00     ..?...?.........
	...
    166d:	00 08 08 08 08 08 08 0f 0f 08 08 08 08 08 08 00     ................
	...
    1685:	00 00 02 fe fe 80 80 80 00 04 04 04 07 07 04 04     ................
    1695:	04 04 00 7f 3f 00 00 00 00 00 00 00 00 00 00 00     ....?...........
    16a5:	00 04 fc fc 42 fe fe 00 00 04 04 07 07 04 04 04     ....B...........
    16b5:	04 00 3f 1f 00 7f 3f 00 00 00 00 00 00 00 00 00     ..?...?.........
    16c5:	00 00 00 02 fe fe 00 00 00 04 04 04 07 07 04 04     ................
    16d5:	04 04 04 00 7f 3f 00 00 00 00 00 00 00 00 00 00     .....?..........
	...
    16ed:	00 08 08 08 0f 0f 08 08 09 0f 0f 08 08 08 08 00     ................
	...
    170d:	00 01 01 01 01 01 01 7f 3f 01 01 01 01 01 01 00     ........?.......
	...
    1725:	00 00 00 02 fe fe 00 00 00 01 01 01 01 3f 1f 01     .............?..
    1735:	01 05 05 04 7f 3f 00 00 00 00 00 00 00 00 00 00     .....?..........
    1745:	00 04 fc fc 02 fe fe 00 00 01 01 01 3f 1f 01 05     ............?...
    1755:	05 04 3f 1f 00 7f 3f 00 00 00 00 00 00 00 00 00     ..?...?.........
    1765:	00 00 00 02 fe fe 00 00 00 01 01 01 01 3f 1f 01     .............?..
    1775:	01 01 01 00 7f 3f 00 00 00 00 00 00 00 00 00 00     .....?..........
	...
    178d:	00 01 01 01 01 7f 3f 01 01 7f 3f 01 01 01 01 00     ......?...?.....
	...
    17ad:	00 08 08 08 08 08 08 08 08 08 08 08 08 08 08 00     ................
	...
    17c5:	00 00 00 02 fe fe 00 00 00 04 04 04 04 04 04 04     ................
    17d5:	02 02 02 00 7f 3f 00 00 00 00 00 00 00 00 00 00     .....?..........
    17e5:	00 00 00 02 fe fe 00 00 00 00 00 00 00 00 00 00     ................
    17f5:	00 00 00 00 7f 3f 00 00 00 00 00 00 00 00 00 00     .....?..........
	...
    1825:	00 00 02 fe fe 40 40 40 00 00 00 00 00 00 00 00     .....@@@........
    1835:	00 00 00 7f 3f 00 00 00 00 00 00 00 00 00 00 00     ....?...........
    1845:	00 04 fc fc 42 fe fe 00 00 00 00 00 00 00 00 00     ....B...........
    1855:	00 00 3f 1f 00 7f 3f 00 00 00 00 00 00 00 00 00     ..?...?.........
    1865:	00 00 02 fe fe 20 20 20 00 00 00 00 00 00 00 00     .....   ........
    1875:	00 00 00 7f 3f 01 01 01 00 00 00 00 00 00 00 00     ....?...........
    1885:	00 04 fc fc 22 fe fe 00 00 00 00 00 00 00 00 00     ...."...........
    1895:	00 00 3f 1f 01 7f 3f 00 00 00 00 00 00 00 00 00     ..?...?.........
    18a5:	00 40 40 42 fe fe 00 00 00 00 00 00 00 00 00 00     .@@B............
    18b5:	00 00 00 00 7f 3f 00 00 00 00 00 00 00 00 00 00     .....?..........
    18c5:	00 44 fc fc 02 fe fe 00 00 00 00 00 00 00 00 00     .D..............
    18d5:	00 00 3f 1f 00 7f 3f 00 00 00 00 00 00 00 00 00     ..?...?.........
    18e5:	00 a0 a0 a2 fe fe 00 00 00 00 00 00 00 00 00 00     ................
    18f5:	00 00 00 00 7f 3f 00 00 00 00 00 00 00 00 00 00     .....?..........
    1905:	00 a4 fc fc 02 fe fe 00 00 00 00 00 00 00 00 00     ................
    1915:	00 00 3f 1f 00 7f 3f 00 00 00 00 00 00 00 00 00     ..?...?.........
	...
    192d:	00 08 08 08 08 08 08 0f 0f 08 08 08 08 08 08 00     ................
	...
    1945:	00 00 02 fe fe 80 80 80 00 04 04 04 07 07 04 04     ................
    1955:	04 04 00 7f 3f 00 00 00 00 00 00 00 00 00 00 00     ....?...........
    1965:	00 04 fc fc 42 fe fe 00 00 04 04 04 07 07 04 04     ....B...........
    1975:	04 00 3f 1f 00 7f 3f 00 00 00 00 00 00 00 00 00     ..?...?.........
    1985:	00 00 00 02 fe fe 00 00 00 04 04 04 07 07 04 04     ................
    1995:	04 04 04 00 7f 3f 00 00 00 00 00 00 00 00 00 00     .....?..........
	...
    19ad:	00 08 08 08 08 0f 0f 08 08 0f 0f 08 08 08 08 00     ................
	...
    19cd:	00 01 01 01 01 01 01 7f 3f 01 01 01 01 01 01 00     ........?.......
	...
    19e5:	00 00 00 02 fe fe 00 00 00 01 01 01 01 3f 1f 01     .............?..
    19f5:	01 05 05 04 7f 3f 00 00 00 00 00 00 00 00 00 00     .....?..........
    1a05:	00 04 fc fc 02 fe fe 00 00 01 01 01 1f 0f 01 05     ................
    1a15:	05 04 3f 1f 00 7f 3f 00 00 00 00 00 00 00 00 00     ..?...?.........
    1a25:	00 00 00 02 fe fe 00 00 00 01 01 01 01 3f 1f 01     .............?..
    1a35:	01 01 01 00 7f 3f 00 00 00 00 00 00 00 00 00 00     .....?..........
	...
    1a4d:	00 01 01 01 01 7f 3f 01 01 7f 3f 01 01 01 01 00     ......?...?.....
	...
    1a6d:	00 08 08 08 08 08 08 08 08 08 08 08 08 08 08 00     ................
	...
    1a85:	00 00 00 02 fe fe 00 00 00 04 04 04 04 04 04 04     ................
    1a95:	02 02 02 00 7f 3f 00 00 00 00 00 00 00 00 00 00     .....?..........
    1aa5:	00 00 00 02 fe fe 00 00 00 00 00 00 00 00 00 00     ................
    1ab5:	00 00 00 00 7f 3f 00 00 00 00 00 00 00 00 00 00     .....?..........
	...
    1ae5:	00 00 02 fe fe 20 20 20 00 00 00 00 00 00 00 00     .....   ........
    1af5:	00 00 00 03 01 00 00 00 00 00 00 00 00 00 00 00     ................
    1b05:	00 04 fc fc 22 fe fe 00 00 00 00 00 00 00 00 00     ...."...........
    1b15:	00 00 03 01 00 03 01 00 00 00 00 00 00 00 00 00     ................
    1b25:	00 00 02 fe fe 50 50 50 00 00 00 00 00 00 00 00     .....PPP........
    1b35:	00 00 00 03 01 00 00 00 00 00 00 00 00 00 00 00     ................
    1b45:	00 04 fc fc 52 fe fe 00 00 00 00 00 00 00 00 00     ....R...........
    1b55:	00 00 03 01 00 03 01 00 00 00 00 00 00 00 00 00     ................
    1b65:	20 20 20 22 fe fe 00 00 00 00 00 00 00 00 00 00        "............
    1b75:	00 00 00 00 03 01 00 00 00 00 00 00 00 00 00 00     ................
    1b85:	20 24 fc fc 02 fe fe 00 00 00 00 00 00 00 00 00      $..............
    1b95:	00 00 03 01 00 03 01 00 00 00 00 00 00 00 00 00     ................
    1ba5:	00 50 50 52 fe fe 00 00 00 00 00 00 00 00 00 00     .PPR............
    1bb5:	00 00 00 00 03 01 00 00 00 00 00 00 00 00 00 00     ................
    1bc5:	50 54 fc fc 02 fe fe 00 00 00 00 00 00 00 00 00     PT..............
    1bd5:	00 00 03 01 00 03 01 00 00 00 00 00 00 00 00 c0     ................
    1be5:	c0 00 00 00 00 00 00 00 00 01 01 01 01 01 01 01     ................
    1bf5:	01 01 01 01 01 01 01 00 00 00 00 00 c0 c0 00 00     ................
    1c05:	00 00 02 fe fe 20 20 20 00 01 01 01 01 01 01 01     .....   ........
    1c15:	01 01 00 03 01 00 00 00 00 00 00 c0 c0 00 00 00     ................
    1c25:	00 04 fc fc 22 fe fe 00 00 01 01 01 01 01 01 01     ...."...........
    1c35:	01 00 01 00 00 03 01 00 00 00 00 00 c0 c0 00 00     ................
    1c45:	00 00 00 02 fe fe 00 00 00 01 01 01 01 01 01 01     ................
    1c55:	01 01 01 00 03 01 00 00 00 00 00 00 c0 c0 00 00     ................
    1c65:	00 c0 c0 00 00 00 00 00 00 01 01 01 01 01 01 01     ................
    1c75:	01 01 01 01 01 01 01 00 00 80 80 80 80 80 80 80     ................
    1c85:	80 80 80 80 80 80 80 00 00 00 00 00 00 00 00 07     ................
    1c95:	03 00 00 00 00 00 00 00 00 40 40 40 40 c0 c0 40     .........@@@@..@
    1ca5:	40 40 40 04 fc fc 00 00 00 00 00 00 00 07 03 00     @@@.............
    1cb5:	00 01 01 01 07 03 00 00 00 00 00 00 00 00 00 00     ................
    1cc5:	40 44 fc fc 02 fe fe 00 00 01 01 01 07 03 01 01     @D..............
    1cd5:	01 00 07 03 00 07 03 00 00 00 80 80 80 80 80 80     ................
    1ce5:	80 80 80 00 02 fe fe 00 00 00 00 00 00 03 03 00     ................
    1cf5:	00 00 00 00 00 03 01 00 00 00 00 00 00 00 00 00     ................
	...
    1d0d:	00 01 01 01 01 07 07 01 01 07 07 01 01 01 01 00     ................
	...
    1d2d:	00 01 01 01 01 01 01 01 01 01 01 01 01 01 01 00     ................
	...
    1d45:	00 00 00 02 fe fe 00 00 00 01 01 01 01 01 01 01     ................
    1d55:	01 01 01 00 03 01 00 00 00 00 00 00 00 00 00 00     ................
    1d65:	00 00 00 02 fe fe 00 00 00 00 00 00 00 00 00 00     ................
    1d75:	00 00 00 00 03 01 00 00 00 00 00 00 00 00 00 00     ................
	...
    1da5:	00 00 02 fe fe 20 20 20 00 00 00 00 00 00 00 00     .....   ........
    1db5:	00 00 00 03 01 00 00 00 00 00 00 00 00 00 00 00     ................
    1dc5:	00 04 fc fc 22 fe fe 00 00 00 00 00 00 00 00 00     ...."...........
    1dd5:	00 00 03 01 00 03 01 00 00 00 00 00 00 00 00 00     ................
    1de5:	00 00 02 fe fe 50 50 50 00 00 00 00 00 00 00 00     .....PPP........
    1df5:	00 00 00 03 01 00 00 00 00 00 00 00 00 00 00 00     ................
    1e05:	00 04 fc fc 52 fe fe 00 00 00 00 00 00 00 00 00     ....R...........
    1e15:	00 00 03 01 00 03 01 00 00 00 00 00 00 00 00 00     ................
    1e25:	00 20 20 22 fe fe 00 00 00 00 00 00 00 00 00 00     .  "............
    1e35:	00 00 00 00 03 01 00 00 00 00 00 00 00 00 00 00     ................
    1e45:	00 24 fc fc 02 fe fe 00 00 00 00 00 00 00 00 00     .$..............
    1e55:	00 00 03 01 00 03 01 00 00 00 00 00 00 00 00 00     ................
    1e65:	00 50 50 52 fe fe 00 00 00 00 00 00 00 00 00 00     .PPR............
    1e75:	00 00 00 00 03 01 00 00 00 00 00 00 00 00 00 00     ................
    1e85:	00 54 fc fc 02 fe fe 00 00 00 00 00 00 00 00 00     .T..............
    1e95:	00 00 03 01 00 03 01 00 00 00 00 00 00 00 00 c0     ................
    1ea5:	c0 00 00 00 00 00 00 00 00 01 01 01 01 01 01 01     ................
    1eb5:	01 01 01 01 01 01 01 00 00 00 00 00 c0 c0 00 00     ................
    1ec5:	00 00 02 fe fe 20 20 20 00 01 01 01 01 01 01 01     .....   ........
    1ed5:	01 01 00 03 01 00 00 00 00 00 00 00 c0 c0 00 00     ................
    1ee5:	00 04 fc fc 22 fe fe 00 00 01 01 01 01 01 01 01     ...."...........
    1ef5:	01 00 01 00 00 03 01 00 00 00 00 00 c0 c0 00 00     ................
    1f05:	00 00 00 02 fe fe 00 00 00 01 01 01 01 01 01 01     ................
    1f15:	01 01 01 00 03 01 00 00 00 00 00 00 00 c0 c0 00     ................
    1f25:	00 c0 c0 00 00 00 00 00 00 01 01 01 01 01 01 01     ................
    1f35:	01 01 01 01 01 01 01 00 00 00 00 00 00 00 00 00     ................
	...
    1f4d:	00 01 01 01 01 01 01 07 07 01 01 01 01 01 01 00     ................
    1f5d:	00 00 80 80 80 80 80 80 80 80 80 00 02 fe fe 00     ................
    1f6d:	00 00 00 00 00 03 03 00 00 00 00 01 01 03 03 00     ................
    1f7d:	00 80 80 80 80 80 80 80 a0 24 fc fc 02 fe fe 00     .........$......
    1f8d:	00 00 00 00 03 01 00 00 00 00 03 01 00 03 01 00     ................
    1f9d:	00 00 80 80 80 80 80 80 80 80 80 00 02 fe fe 00     ................
    1fad:	00 00 00 00 00 03 03 00 00 00 00 00 00 03 01 00     ................
	...
    1fcd:	00 01 01 01 01 07 07 01 01 07 07 01 01 01 01 00     ................
	...
    1fed:	00 01 01 01 01 01 01 01 01 01 01 01 01 01 01 00     ................
	...
    2005:	00 00 00 02 fe fe 00 00 00 01 01 01 01 01 01 01     ................
    2015:	01 01 01 00 03 01 00 00 00 00 00 00 00 00 00 00     ................
    2025:	00 00 00 02 fe fe 00 00 00 00 00 00 00 00 00 00     ................
    2035:	00 00 00 00 03 01 00 00 00 00 00 00 00 00 00 00     ................
	...
    2071:	04 04 04 04 04 04 04 7c 3c 00 00 00 00 00 00 00     .......|<.......
	...
    208d:	00 00 00 04 04 04 7c 3c 04 04 04 7c 3c 00 00 00     ......|<...|<...
	...
    20ad:	00 00 00 04 04 04 7c 3c 40 60 3c 1c 70 60 00 00     ......|<@`<.p`..
	...
    20d1:	00 04 3c 7c 40 40 40 40 40 40 00 00 00 00 00 00     ..<|@@@@@@......
	...
    20ed:	00 00 00 04 3c 7c 40 40 44 64 3c 3c 64 44 00 00     ....<|@@Dd<<dD..
	...
    210d:	00 00 00 04 3c 7c 40 40 28 78 5c 5c 78 28 00 00     ....<|@@(x\\x(..
	...
    2131:	04 3c 7c 44 44 44 44 44 44 00 00 00 00 00 00 00     .<|DDDDDD.......
	...
    2151:	34 74 54 54 54 54 54 5c 5c 00 00 00 00 00 00 00     4tTTTTT\\.......
	...
    216d:	00 00 00 34 74 54 5c 5c 00 04 04 7c 3c 00 00 00     ...4tT\\...|<...
	...
    218d:	00 00 00 34 74 54 5c 5c 00 7c 7c 44 7c 7c 00 00     ...4tT\\.||D||..
	...
    21ad:	00 00 00 34 74 54 5c 5c 00 7c 7c 50 7c 7c 00 00     ...4tT\\.||P||..
	...
    21d1:	34 74 54 5c 5c 00 60 3c 3c 60 40 00 00 00 00 00     4tT\\.`<<`@.....
	...
    21ed:	00 00 00 34 74 54 5c 5c 00 7c 7c 54 54 54 00 00     ...4tT\\.||TTT..
	...
    220d:	00 00 00 34 74 54 5c 18 44 7c 7c 44 7c 7c 44 00     ...4tT\.D||D||D.
	...
    222d:	00 00 00 34 74 54 5c 5c 00 28 78 5c 5c 78 28 00     ...4tT\\.(x\\x(.
	...
    2251:	04 7c 7c 44 44 44 44 7c 7c 00 00 00 00 00 00 00     .||DDDD||.......
	...
    2271:	04 7c 7c 50 50 50 54 7c 7c 00 00 00 00 00 00 00     .||PPPT||.......
	...
    2291:	7c 7c 50 7c 7c 40 60 3c 3c 60 60 00 00 00 00 00     ||P||@`<<``.....
	...
    22b1:	40 40 20 30 1c 0c 10 30 60 40 00 00 00 00 00 00     @@ 0...0`@......
	...
    22cd:	00 00 00 40 60 30 1c 5c 70 30 1c 1c 30 60 40 00     ...@`0.\p0..0`@.
	...
    22f1:	00 38 7c 44 44 44 44 7c 38 00 00 00 00 00 00 00     .8|DDDD|8.......
	...
    2311:	44 44 24 34 1c 1c 34 24 44 44 00 00 00 00 00 00     DD$4..4$DD......
	...
    2331:	48 48 28 38 1c 1c 38 28 48 48 00 00 00 00 00 00     HH(8..8(HH......
	...
    2351:	00 14 14 14 14 14 14 7c 3c 00 00 00 00 00 00 00     .......|<.......
	...
    2371:	04 3c 7c 54 54 54 54 54 54 00 00 00 00 00 00 00     .<|TTTTTT.......
	...
    2391:	44 44 7c 7c 44 44 7c 7c 44 44 00 00 00 00 00 00     DD||DD||DD......
	...
    23b1:	08 28 78 5c 5c 5c 5c 78 28 08 00 00 00 00 00 00     .(x\\\\x(.......
	...
    23f1:	00 04 04 04 04 04 04 04 7c 3c 00 00 00 00 00 00     ........|<......
	...
    2411:	04 04 04 7c 3c 04 04 04 7c 3c 00 00 00 00 00 00     ...|<...|<......
	...
    2431:	04 04 04 7c 3c 40 60 3c 1c 70 60 00 00 00 00 00     ...|<@`<.p`.....
	...
    2451:	00 04 3c 7c 40 40 40 40 40 40 00 00 00 00 00 00     ..<|@@@@@@......
	...
    2471:	04 3c 7c 40 40 44 64 3c 3c 64 44 00 00 00 00 00     .<|@@Dd<<dD.....
	...
    2491:	04 3c 7c 40 40 28 78 5c 5c 78 28 00 00 00 00 00     .<|@@(x\\x(.....
	...
    24b1:	00 04 3c 7c 44 44 44 44 44 44 00 00 00 00 00 00     ..<|DDDDDD......
	...
    24d1:	00 34 74 54 54 54 54 54 5c 5c 00 00 00 00 00 00     .4tTTTTT\\......
	...
    24f1:	34 74 54 5c 5c 00 04 04 7c 3c 00 00 00 00 00 00     4tT\\...|<......
	...
    250d:	00 00 00 34 74 54 5c 5c 00 7c 7c 44 7c 7c 00 00     ...4tT\\.||D||..
	...
    252d:	00 00 00 34 74 54 5c 5c 00 7c 7c 50 7c 7c 00 00     ...4tT\\.||P||..
	...
    2551:	34 74 54 5c 5c 00 60 3c 3c 60 40 00 00 00 00 00     4tT\\.`<<`@.....
	...
    256d:	00 00 00 34 74 54 5c 5c 00 7c 7c 54 54 54 00 00     ...4tT\\.||TTT..
	...
    258d:	00 00 00 34 74 54 5c 18 44 7c 7c 44 7c 7c 44 00     ...4tT\.D||D||D.
	...
    25ad:	00 00 00 34 74 54 5c 5c 00 28 78 5c 5c 78 28 00     ...4tT\\.(x\\x(.
	...
    25d1:	00 04 7c 7c 44 44 44 44 7c 7c 00 00 00 00 00 00     ..||DDDD||......
	...
    25f1:	00 04 7c 7c 50 50 50 54 7c 7c 00 00 00 00 00 00     ..||PPPT||......
	...
    2611:	7c 7c 50 7c 7c 40 60 3c 3c 60 60 00 00 00 00 00     ||P||@`<<``.....
	...
    2631:	40 40 20 30 1c 0c 10 30 60 40 00 00 00 00 00 00     @@ 0...0`@......
	...
    2651:	40 60 30 1c 5c 70 30 1c 1c 30 60 40 00 00 00 00     @`0.\p0..0`@....
	...
    2671:	00 00 38 7c 44 44 44 44 7c 38 00 00 00 00 00 00     ..8|DDDD|8......
	...
    2691:	44 44 24 34 1c 1c 34 24 44 44 00 00 00 00 00 00     DD$4..4$DD......
	...
    26b1:	48 48 28 38 1c 1c 38 28 48 48 00 00 00 00 00 00     HH(8..8(HH......
	...
    26d1:	00 00 14 14 14 14 14 14 7c 3c 00 00 00 00 00 00     ........|<......
	...
    26f1:	00 04 3c 7c 54 54 54 54 54 54 00 00 00 00 00 00     ..<|TTTTTT......
	...
    2711:	44 44 7c 7c 44 44 7c 7c 44 44 00 00 00 00 00 00     DD||DD||DD......
	...
    2731:	00 08 28 78 5c 5c 5c 5c 78 28 08 00 00 00 00 00     ..(x\\\\x(......
	...
    2771:	00 04 04 04 04 04 04 04 04 7c 3c 00 00 00 00 00     .........|<.....
	...
    2791:	04 04 04 04 7c 3c 04 04 04 7c 3c 00 00 00 00 00     ....|<...|<.....
	...
    27b1:	04 04 04 04 7c 3c 40 60 3c 1c 70 60 00 00 00 00     ....|<@`<.p`....
	...
    27d1:	00 04 3c 7c 40 40 40 40 40 40 40 00 00 00 00 00     ..<|@@@@@@@.....
	...
    27ed:	00 00 00 04 3c 7c 40 40 00 44 64 3c 3c 64 44 00     ....<|@@.Dd<<dD.
	...
    280d:	00 00 00 04 3c 7c 40 40 40 28 78 5c 5c 78 28 00     ....<|@@@(x\\x(.
	...
    2831:	00 04 3c 7c 44 44 44 44 44 44 00 00 00 00 00 00     ..<|DDDDDD......
	...
    2851:	00 00 34 74 54 54 54 54 54 5c 5c 00 00 00 00 00     ..4tTTTTT\\.....
	...
    2871:	00 34 74 54 5c 5c 00 04 04 7c 3c 00 00 00 00 00     .4tT\\...|<.....
	...
    2891:	34 74 54 5c 5c 00 7c 7c 44 7c 7c 00 00 00 00 00     4tT\\.||D||.....
	...
    28b1:	34 74 54 5c 5c 00 7c 7c 50 7c 7c 00 00 00 00 00     4tT\\.||P||.....
	...
    28d1:	00 34 74 54 5c 5c 00 60 3c 3c 60 40 00 00 00 00     .4tT\\.`<<`@....
	...
    28f1:	34 74 54 5c 5c 00 7c 7c 54 54 54 00 00 00 00 00     4tT\\.||TTT.....
	...
    290d:	00 00 00 34 74 54 5c 18 44 7c 7c 44 7c 7c 44 00     ...4tT\.D||D||D.
	...
    292d:	00 00 00 34 74 54 5c 5c 00 28 78 5c 5c 78 28 00     ...4tT\\.(x\\x(.
	...
    2951:	00 04 7c 7c 44 44 44 44 44 7c 7c 00 00 00 00 00     ..||DDDDD||.....
	...
    2971:	00 04 7c 7c 50 50 50 50 54 7c 7c 00 00 00 00 00     ..||PPPPT||.....
	...
    2991:	7c 7c 50 7c 7c 40 60 3c 3c 60 60 00 00 00 00 00     ||P||@`<<``.....
	...
    29b1:	00 40 40 20 30 1c 0c 10 30 60 40 00 00 00 00 00     .@@ 0...0`@.....
	...
    29d1:	40 60 30 1c 5c 70 30 1c 1c 30 60 40 00 00 00 00     @`0.\p0..0`@....
	...
    29f1:	00 00 00 38 7c 44 44 44 44 7c 38 00 00 00 00 00     ...8|DDDD|8.....
	...
    2a11:	00 44 44 24 34 1c 1c 34 24 44 44 00 00 00 00 00     .DD$4..4$DD.....
	...
    2a31:	00 48 48 28 38 1c 1c 38 28 48 48 00 00 00 00 00     .HH(8..8(HH.....
	...
    2a51:	00 00 14 14 14 14 14 14 14 7c 3c 00 00 00 00 00     .........|<.....
	...
    2a71:	00 00 04 3c 7c 54 54 54 54 54 54 00 00 00 00 00     ...<|TTTTTT.....
	...
    2a91:	00 44 44 7c 7c 44 44 7c 7c 44 44 00 00 00 00 00     .DD||DD||DD.....
	...
    2ab1:	00 08 28 78 5c 5c 5c 5c 78 28 08 00 00 00 00 00     ..(x\\\\x(......
	...
    2aed:	00 00 00 04 04 04 04 04 04 04 04 7c 3c 00 00 00     ...........|<...
	...
    2b0d:	00 00 04 04 04 7c 3c 00 04 04 04 7c 3c 00 00 00     .....|<....|<...
	...
    2b2d:	00 00 00 04 04 04 7c 3c 40 60 3c 1c 70 60 00 00     ......|<@`<.p`..
	...
    2b4d:	00 00 04 3c 7c 40 40 40 40 40 40 40 40 00 00 00     ...<|@@@@@@@@...
	...
    2b6d:	00 00 04 3c 7c 40 40 00 44 64 3c 3c 64 44 00 00     ...<|@@.Dd<<dD..
	...
    2b8d:	00 00 04 3c 7c 40 40 40 28 78 5c 5c 78 28 00 00     ...<|@@@(x\\x(..
	...
    2bad:	00 00 08 38 78 48 48 48 48 48 48 48 48 00 00 00     ...8xHHHHHHHH...
	...
    2bcd:	00 00 00 34 74 54 54 54 54 54 54 5c 5c 00 00 00     ...4tTTTTTT\\...
	...
    2bed:	00 00 00 34 74 54 5c 5c 00 04 04 04 7c 3c 00 00     ...4tT\\....|<..
	...
    2c0d:	00 00 34 74 54 5c 5c 00 7c 7c 44 44 7c 7c 00 00     ..4tT\\.||DD||..
	...
    2c2d:	00 00 00 34 74 54 5c 5c 00 7c 7c 50 7c 7c 00 00     ...4tT\\.||P||..
	...
    2c4d:	00 00 00 34 74 54 5c 5c 00 40 60 3c 3c 60 40 00     ...4tT\\.@`<<`@.
	...
    2c6d:	00 00 00 34 74 54 5c 5c 00 7c 7c 54 54 54 00 00     ...4tT\\.||TTT..
	...
    2c8d:	00 00 00 34 74 54 5c 18 44 7c 7c 44 7c 7c 44 00     ...4tT\.D||D||D.
	...
    2cad:	00 00 34 74 54 5c 5c 00 28 78 5c 5c 78 28 00 00     ..4tT\\.(x\\x(..
	...
    2ccd:	00 00 00 04 7c 7c 44 44 44 44 44 7c 7c 00 00 00     ....||DDDDD||...
	...
    2ced:	00 00 04 7c 7c 50 50 50 50 50 54 7c 7c 00 00 00     ...||PPPPPT||...
	...
    2d0d:	00 00 00 7c 7c 50 7c 7c 40 60 3c 3c 60 60 00 00     ...||P||@`<<``..
	...
    2d2d:	00 00 00 40 40 20 30 1c 0c 10 30 60 40 00 00 00     ...@@ 0...0`@...
	...
    2d4d:	00 40 60 30 1c 1c 30 60 60 30 1c 1c 30 60 40 00     .@`0..0``0..0`@.
	...
    2d71:	38 7c 44 44 44 44 7c 38 00 00 00 00 00 00 00 00     8|DDDD|8........
	...
    2d8d:	00 00 00 44 44 24 34 1c 1c 34 24 44 44 00 00 00     ...DD$4..4$DD...
	...
    2dad:	00 00 00 48 48 28 38 1c 1c 38 28 48 48 00 00 00     ...HH(8..8(HH...
	...
    2dcd:	00 00 00 14 14 14 14 14 14 14 14 7c 3c 00 00 00     ...........|<...
	...
    2ded:	00 00 00 04 3c 7c 54 54 54 54 54 54 54 00 00 00     ....<|TTTTTTT...
	...
    2e0d:	00 00 00 44 44 7c 7c 44 44 7c 7c 44 44 00 00 00     ...DD||DD||DD...
	...
    2e2d:	00 00 00 08 28 78 5c 5c 5c 5c 78 28 08 00 00 00     ....(x\\\\x(....

00002e3d <KS_Table>:
    2e3d:	88 61 88 62 88 65 88 68 88 69 88 6a 88 6b 88 71     .a.b.e.h.i.j.k.q
    2e4d:	88 73 88 74 88 75 88 76 88 77 88 78 88 79 88 7b     .s.t.u.v.w.x.y.{
    2e5d:	88 7c 88 7d 88 81 88 82 88 85 88 89 88 91 88 93     .|.}............
    2e6d:	88 95 88 96 88 97 88 a1 88 a2 88 a5 88 a9 88 b5     ................
    2e7d:	88 b7 88 c1 88 c5 88 c9 88 e1 88 e2 88 e5 88 e8     ................
    2e8d:	88 e9 88 eb 88 f1 88 f3 88 f5 88 f6 88 f7 88 f8     ................
    2e9d:	88 fb 88 fc 88 fd 89 41 89 45 89 49 89 51 89 53     .......A.E.I.Q.S
    2ead:	89 55 89 56 89 57 89 61 89 62 89 63 89 65 89 68     .U.V.W.a.b.c.e.h
    2ebd:	89 69 89 71 89 73 89 75 89 76 89 77 89 7b 89 81     .i.q.s.u.v.w.{..
    2ecd:	89 85 89 89 89 93 89 95 89 a1 89 a2 89 a5 89 a8     ................
    2edd:	89 a9 89 ab 89 ad 89 b0 89 b1 89 b3 89 b5 89 b7     ................
    2eed:	89 b8 89 c1 89 c2 89 c5 89 c9 89 cb 89 d1 89 d3     ................
    2efd:	89 d5 89 d7 89 e1 89 e5 89 e9 89 f3 89 f6 89 f7     ................
    2f0d:	8a 41 8a 42 8a 45 8a 49 8a 51 8a 53 8a 55 8a 57     .A.B.E.I.Q.S.U.W
    2f1d:	8a 61 8a 65 8a 69 8a 73 8a 75 8a 81 8a 82 8a 85     .a.e.i.s.u......
    2f2d:	8a 88 8a 89 8a 8a 8a 8b 8a 90 8a 91 8a 93 8a 95     ................
    2f3d:	8a 97 8a 98 8a a1 8a a2 8a a5 8a a9 8a b6 8a b7     ................
    2f4d:	8a c1 8a d5 8a e1 8a e2 8a e5 8a e9 8a f1 8a f3     ................
    2f5d:	8a f5 8b 41 8b 45 8b 49 8b 61 8b 62 8b 65 8b 68     ...A.E.I.a.b.e.h
    2f6d:	8b 69 8b 6a 8b 71 8b 73 8b 75 8b 77 8b 81 8b a1     .i.j.q.s.u.w....
    2f7d:	8b a2 8b a5 8b a8 8b a9 8b ab 8b b1 8b b3 8b b5     ................
    2f8d:	8b b7 8b b8 8b bc 8c 61 8c 62 8c 63 8c 65 8c 69     .......a.b.c.e.i
    2f9d:	8c 6b 8c 71 8c 73 8c 75 8c 76 8c 77 8c 7b 8c 81     .k.q.s.u.v.w.{..
    2fad:	8c 82 8c 85 8c 89 8c 91 8c 93 8c 95 8c 96 8c 97     ................
    2fbd:	8c a1 8c a2 8c a9 8c e1 8c e2 8c e3 8c e5 8c e9     ................
    2fcd:	8c f1 8c f3 8c f5 8c f6 8c f7 8d 41 8d 42 8d 45     ...........A.B.E
    2fdd:	8d 51 8d 55 8d 57 8d 61 8d 65 8d 69 8d 75 8d 76     .Q.U.W.a.e.i.u.v
    2fed:	8d 7b 8d 81 8d a1 8d a2 8d a5 8d a7 8d a9 8d b1     .{..............
    2ffd:	8d b3 8d b5 8d b7 8d b8 8d b9 8d c1 8d c2 8d c9     ................
    300d:	8d d6 8d d7 8d e1 8d e2 8d f7 8e 41 8e 45 8e 49     ...........A.E.I
    301d:	8e 51 8e 53 8e 57 8e 61 8e 81 8e 82 8e 85 8e 89     .Q.S.W.a........
    302d:	8e 90 8e 91 8e 93 8e 95 8e 97 8e 98 8e a1 8e a9     ................
    303d:	8e b6 8e b7 8e c1 8e c2 8e c5 8e c9 8e d1 8e d3     ................
    304d:	8e d6 8e e1 8e e5 8e e9 8e f1 8e f3 8f 41 8f 61     .............A.a
    305d:	8f 62 8f 65 8f 67 8f 69 8f 6b 8f 70 8f 71 8f 73     .b.e.g.i.k.p.q.s
    306d:	8f 75 8f 77 8f 7b 8f a1 8f a2 8f a5 8f a9 8f b1     .u.w.{..........
    307d:	8f b3 8f b5 8f b7 90 61 90 62 90 63 90 65 90 68     .......a.b.c.e.h
    308d:	90 69 90 6a 90 6b 90 71 90 73 90 75 90 76 90 77     .i.j.k.q.s.u.v.w
    309d:	90 78 90 79 90 7b 90 7d 90 81 90 82 90 85 90 89     .x.y.{.}........
    30ad:	90 91 90 93 90 95 90 96 90 97 90 a1 90 a2 90 a5     ................
    30bd:	90 a9 90 b1 90 b7 90 e1 90 e2 90 e4 90 e5 90 e9     ................
    30cd:	90 eb 90 ec 90 f1 90 f3 90 f5 90 f6 90 f7 90 fd     ................
    30dd:	91 41 91 42 91 45 91 49 91 51 91 53 91 55 91 56     .A.B.E.I.Q.S.U.V
    30ed:	91 57 91 61 91 62 91 65 91 69 91 71 91 73 91 76     .W.a.b.e.i.q.s.v
    30fd:	91 77 91 7a 91 81 91 85 91 a1 91 a2 91 a5 91 a9     .w.z............
    310d:	91 ab 91 b1 91 b3 91 b5 91 b7 91 bc 91 bd 91 c1     ................
    311d:	91 c5 91 c9 91 d6 92 41 92 45 92 49 92 51 92 53     .......A.E.I.Q.S
    312d:	92 55 92 61 92 62 92 65 92 69 92 73 92 75 92 77     .U.a.b.e.i.s.u.w
    313d:	92 81 92 82 92 85 92 88 92 89 92 91 92 93 92 95     ................
    314d:	92 97 92 a1 92 b6 92 c1 92 e1 92 e5 92 e9 92 f1     ................
    315d:	92 f3 93 41 93 42 93 49 93 51 93 53 93 57 93 61     ...A.B.I.Q.S.W.a
    316d:	93 62 93 65 93 69 93 6a 93 6b 93 71 93 73 93 75     .b.e.i.j.k.q.s.u
    317d:	93 77 93 78 93 7c 93 81 93 85 93 89 93 a1 93 a2     .w.x.|..........
    318d:	93 a5 93 a9 93 ab 93 b1 93 b3 93 b5 93 b7 93 bc     ................
    319d:	94 61 94 62 94 63 94 65 94 68 94 69 94 6a 94 6b     .a.b.c.e.h.i.j.k
    31ad:	94 6c 94 70 94 71 94 73 94 75 94 76 94 77 94 78     .l.p.q.s.u.v.w.x
    31bd:	94 79 94 7d 94 81 94 82 94 85 94 89 94 91 94 93     .y.}............
    31cd:	94 95 94 96 94 97 94 a1 94 e1 94 e2 94 e3 94 e5     ................
    31dd:	94 e8 94 e9 94 eb 94 ec 94 f1 94 f3 94 f5 94 f7     ................
    31ed:	94 f9 94 fc 95 41 95 42 95 45 95 49 95 51 95 53     .....A.B.E.I.Q.S
    31fd:	95 55 95 56 95 57 95 61 95 65 95 69 95 76 95 77     .U.V.W.a.e.i.v.w
    320d:	95 81 95 85 95 a1 95 a2 95 a5 95 a8 95 a9 95 ab     ................
    321d:	95 ad 95 b1 95 b3 95 b5 95 b7 95 b9 95 bb 95 c1     ................
    322d:	95 c5 95 c9 95 e1 95 f6 96 41 96 45 96 49 96 51     .........A.E.I.Q
    323d:	96 53 96 55 96 61 96 81 96 82 96 85 96 89 96 91     .S.U.a..........
    324d:	96 93 96 95 96 97 96 a1 96 b6 96 c1 96 d7 96 e1     ................
    325d:	96 e5 96 e9 96 f3 96 f5 96 f7 97 41 97 45 97 49     ...........A.E.I
    326d:	97 51 97 57 97 61 97 62 97 65 97 68 97 69 97 6b     .Q.W.a.b.e.h.i.k
    327d:	97 71 97 73 97 75 97 77 97 81 97 a1 97 a2 97 a5     .q.s.u.w........
    328d:	97 a8 97 a9 97 b1 97 b3 97 b5 97 b6 97 b7 97 b8     ................
    329d:	98 61 98 62 98 65 98 69 98 71 98 73 98 75 98 76     .a.b.e.i.q.s.u.v
    32ad:	98 77 98 7d 98 81 98 82 98 85 98 89 98 91 98 93     .w.}............
    32bd:	98 95 98 96 98 97 98 e1 98 e2 98 e5 98 e9 98 eb     ................
    32cd:	98 ec 98 f1 98 f3 98 f5 98 f6 98 f7 98 fd 99 41     ...............A
    32dd:	99 42 99 45 99 49 99 51 99 53 99 55 99 56 99 57     .B.E.I.Q.S.U.V.W
    32ed:	99 61 99 76 99 a1 99 a2 99 a5 99 a9 99 b7 99 c1     .a.v............
    32fd:	99 c9 99 e1 9a 41 9a 45 9a 81 9a 82 9a 85 9a 89     .....A.E........
    330d:	9a 90 9a 91 9a 97 9a c1 9a e1 9a e5 9a e9 9a f1     ................
    331d:	9a f3 9a f7 9b 61 9b 62 9b 65 9b 68 9b 69 9b 71     .....a.b.e.h.i.q
    332d:	9b 73 9b 75 9b 81 9b 85 9b 89 9b 91 9b 93 9b a1     .s.u............
    333d:	9b a5 9b a9 9b b1 9b b3 9b b5 9b b7 9c 61 9c 62     .............a.b
    334d:	9c 65 9c 69 9c 71 9c 73 9c 75 9c 76 9c 77 9c 78     .e.i.q.s.u.v.w.x
    335d:	9c 7c 9c 7d 9c 81 9c 82 9c 85 9c 89 9c 91 9c 93     .|.}............
    336d:	9c 95 9c 96 9c 97 9c a1 9c a2 9c a5 9c b5 9c b7     ................
    337d:	9c e1 9c e2 9c e5 9c e9 9c f1 9c f3 9c f5 9c f6     ................
    338d:	9c f7 9c fd 9d 41 9d 42 9d 45 9d 49 9d 51 9d 53     .....A.B.E.I.Q.S
    339d:	9d 55 9d 57 9d 61 9d 62 9d 65 9d 69 9d 71 9d 73     .U.W.a.b.e.i.q.s
    33ad:	9d 75 9d 76 9d 77 9d 81 9d 85 9d 93 9d 95 9d a1     .u.v.w..........
    33bd:	9d a2 9d a5 9d a9 9d b1 9d b3 9d b5 9d b7 9d c1     ................
    33cd:	9d c5 9d d7 9d f6 9e 41 9e 45 9e 49 9e 51 9e 53     .......A.E.I.Q.S
    33dd:	9e 55 9e 57 9e 61 9e 65 9e 69 9e 73 9e 75 9e 77     .U.W.a.e.i.s.u.w
    33ed:	9e 81 9e 82 9e 85 9e 89 9e 91 9e 93 9e 95 9e 97     ................
    33fd:	9e a1 9e b6 9e c1 9e e1 9e e2 9e e5 9e e9 9e f1     ................
    340d:	9e f5 9e f7 9f 41 9f 42 9f 45 9f 49 9f 51 9f 53     .....A.B.E.I.Q.S
    341d:	9f 55 9f 57 9f 61 9f 62 9f 65 9f 69 9f 71 9f 73     .U.W.a.b.e.i.q.s
    342d:	9f 75 9f 77 9f 78 9f 7b 9f 7c 9f a1 9f a2 9f a5     .u.w.x.{.|......
    343d:	9f a9 9f b1 9f b3 9f b5 9f b7 a0 61 a0 62 a0 65     ...........a.b.e
    344d:	a0 67 a0 68 a0 69 a0 6a a0 6b a0 71 a0 73 a0 75     .g.h.i.j.k.q.s.u
    345d:	a0 77 a0 78 a0 7b a0 7d a0 81 a0 82 a0 85 a0 89     .w.x.{.}........
    346d:	a0 91 a0 93 a0 95 a0 96 a0 97 a0 98 a0 a1 a0 a2     ................
    347d:	a0 a9 a0 b7 a0 e1 a0 e2 a0 e5 a0 e9 a0 eb a0 f1     ................
    348d:	a0 f3 a0 f5 a0 f7 a0 f8 a0 fd a1 41 a1 42 a1 45     ...........A.B.E
    349d:	a1 49 a1 51 a1 53 a1 55 a1 56 a1 57 a1 61 a1 62     .I.Q.S.U.V.W.a.b
    34ad:	a1 65 a1 69 a1 75 a1 76 a1 77 a1 79 a1 81 a1 a1     .e.i.u.v.w.y....
    34bd:	a1 a2 a1 a4 a1 a5 a1 a9 a1 ab a1 b1 a1 b3 a1 b5     ................
    34cd:	a1 b7 a1 c1 a1 c5 a1 d6 a1 d7 a2 41 a2 45 a2 49     ...........A.E.I
    34dd:	a2 53 a2 55 a2 57 a2 61 a2 65 a2 69 a2 73 a2 75     .S.U.W.a.e.i.s.u
    34ed:	a2 81 a2 82 a2 83 a2 85 a2 88 a2 89 a2 8a a2 8b     ................
    34fd:	a2 91 a2 93 a2 95 a2 97 a2 9b a2 9d a2 a1 a2 a5     ................
    350d:	a2 a9 a2 b3 a2 b5 a2 c1 a2 e1 a2 e5 a2 e9 a3 41     ...............A
    351d:	a3 45 a3 49 a3 51 a3 55 a3 61 a3 65 a3 69 a3 71     .E.I.Q.U.a.e.i.q
    352d:	a3 75 a3 a1 a3 a2 a3 a5 a3 a8 a3 a9 a3 ab a3 b1     .u..............
    353d:	a3 b3 a3 b5 a3 b6 a3 b7 a3 b9 a3 bb a4 61 a4 62     .............a.b
    354d:	a4 63 a4 64 a4 65 a4 68 a4 69 a4 6a a4 6b a4 6c     .c.d.e.h.i.j.k.l
    355d:	a4 71 a4 73 a4 75 a4 77 a4 7b a4 81 a4 82 a4 85     .q.s.u.w.{......
    356d:	a4 89 a4 91 a4 93 a4 95 a4 96 a4 97 a4 9b a4 a1     ................
    357d:	a4 a2 a4 a5 a4 b3 a4 e1 a4 e2 a4 e5 a4 e8 a4 e9     ................
    358d:	a4 eb a4 f1 a4 f3 a4 f5 a4 f7 a4 f8 a5 41 a5 42     .............A.B
    359d:	a5 45 a5 48 a5 49 a5 51 a5 53 a5 55 a5 56 a5 57     .E.H.I.Q.S.U.V.W
    35ad:	a5 61 a5 62 a5 65 a5 69 a5 73 a5 75 a5 76 a5 77     .a.b.e.i.s.u.v.w
    35bd:	a5 7b a5 81 a5 85 a5 a1 a5 a2 a5 a3 a5 a5 a5 a9     .{..............
    35cd:	a5 b1 a5 b3 a5 b5 a5 b7 a5 c1 a5 c5 a5 d6 a5 e1     ................
    35dd:	a5 f6 a6 41 a6 42 a6 45 a6 49 a6 51 a6 53 a6 61     ...A.B.E.I.Q.S.a
    35ed:	a6 65 a6 81 a6 82 a6 85 a6 88 a6 89 a6 8a a6 8b     .e..............
    35fd:	a6 91 a6 93 a6 95 a6 97 a6 9b a6 9c a6 a1 a6 a9     ................
    360d:	a6 b6 a6 c1 a6 e1 a6 e2 a6 e5 a6 e9 a6 f7 a7 41     ...............A
    361d:	a7 45 a7 49 a7 51 a7 55 a7 57 a7 61 a7 62 a7 65     .E.I.Q.U.W.a.b.e
    362d:	a7 69 a7 71 a7 73 a7 75 a7 a1 a7 a2 a7 a5 a7 a9     .i.q.s.u........
    363d:	a7 ab a7 b1 a7 b3 a7 b5 a7 b7 a7 b8 a7 b9 a8 61     ...............a
    364d:	a8 62 a8 65 a8 69 a8 6b a8 71 a8 73 a8 75 a8 76     .b.e.i.k.q.s.u.v
    365d:	a8 77 a8 7d a8 81 a8 82 a8 85 a8 89 a8 91 a8 93     .w.}............
    366d:	a8 95 a8 96 a8 97 a8 a1 a8 a2 a8 b1 a8 e1 a8 e2     ................
    367d:	a8 e5 a8 e8 a8 e9 a8 f1 a8 f5 a8 f6 a8 f7 a9 41     ...............A
    368d:	a9 57 a9 61 a9 62 a9 71 a9 73 a9 75 a9 76 a9 77     .W.a.b.q.s.u.v.w
    369d:	a9 a1 a9 a2 a9 a5 a9 a9 a9 b1 a9 b3 a9 b7 aa 41     ...............A
    36ad:	aa 61 aa 77 aa 81 aa 82 aa 85 aa 89 aa 91 aa 95     .a.w............
    36bd:	aa 97 ab 41 ab 57 ab 61 ab 65 ab 69 ab 71 ab 73     ...A.W.a.e.i.q.s
    36cd:	ab a1 ab a2 ab a5 ab a9 ab b1 ab b3 ab b5 ab b7     ................
    36dd:	ac 61 ac 62 ac 64 ac 65 ac 68 ac 69 ac 6a ac 6b     .a.b.d.e.h.i.j.k
    36ed:	ac 71 ac 73 ac 75 ac 76 ac 77 ac 7b ac 81 ac 82     .q.s.u.v.w.{....
    36fd:	ac 85 ac 89 ac 91 ac 93 ac 95 ac 96 ac 97 ac a1     ................
    370d:	ac a2 ac a5 ac a9 ac b1 ac b3 ac b5 ac b7 ac c1     ................
    371d:	ac c5 ac c9 ac d1 ac d7 ac e1 ac e2 ac e3 ac e4     ................
    372d:	ac e5 ac e8 ac e9 ac eb ac ec ac f1 ac f3 ac f5     ................
    373d:	ac f6 ac f7 ac fc ad 41 ad 42 ad 45 ad 49 ad 51     .......A.B.E.I.Q
    374d:	ad 53 ad 55 ad 56 ad 57 ad 61 ad 62 ad 65 ad 69     .S.U.V.W.a.b.e.i
    375d:	ad 71 ad 73 ad 75 ad 76 ad 77 ad 81 ad 85 ad 89     .q.s.u.v.w......
    376d:	ad 97 ad a1 ad a2 ad a3 ad a5 ad a9 ad ab ad b1     ................
    377d:	ad b3 ad b5 ad b7 ad bb ad c1 ad c2 ad c5 ad c9     ................
    378d:	ad d7 ad e1 ad e5 ad e9 ad f1 ad f5 ad f6 ae 41     ...............A
    379d:	ae 45 ae 49 ae 51 ae 53 ae 55 ae 61 ae 62 ae 65     .E.I.Q.S.U.a.b.e
    37ad:	ae 69 ae 71 ae 73 ae 75 ae 77 ae 81 ae 82 ae 85     .i.q.s.u.w......
    37bd:	ae 88 ae 89 ae 91 ae 93 ae 95 ae 97 ae 99 ae 9b     ................
    37cd:	ae 9c ae a1 ae b6 ae c1 ae c2 ae c5 ae c9 ae d1     ................
    37dd:	ae d7 ae e1 ae e2 ae e5 ae e9 ae f1 ae f3 ae f5     ................
    37ed:	ae f7 af 41 af 42 af 49 af 51 af 55 af 57 af 61     ...A.B.I.Q.U.W.a
    37fd:	af 62 af 65 af 69 af 6a af 71 af 73 af 75 af 77     .b.e.i.j.q.s.u.w
    380d:	af a1 af a2 af a5 af a8 af a9 af b0 af b1 af b3     ................
    381d:	af b5 af b7 af bc b0 61 b0 62 b0 64 b0 65 b0 69     .......a.b.d.e.i
    382d:	b0 71 b0 73 b0 76 b0 77 b0 7d b0 81 b0 82 b0 85     .q.s.v.w.}......
    383d:	b0 89 b0 91 b0 93 b0 96 b0 97 b0 b7 b0 e1 b0 e2     ................
    384d:	b0 e5 b0 e9 b0 eb b0 f1 b0 f3 b0 f6 b0 f7 b1 41     ...............A
    385d:	b1 45 b1 49 b1 57 b1 a1 b1 a2 b1 a5 b1 a8 b1 a9     .E.I.W..........
    386d:	b1 ab b1 b1 b1 b3 b1 b7 b1 c1 b1 c2 b1 c5 b1 d6     ................
    387d:	b1 e1 b1 f6 b2 41 b2 45 b2 49 b2 51 b2 53 b2 61     .....A.E.I.Q.S.a
    388d:	b2 81 b2 82 b2 85 b2 89 b2 91 b2 93 b2 97 b2 a1     ................
    389d:	b2 b6 b2 c1 b2 e1 b2 e5 b3 57 b3 61 b3 62 b3 65     .........W.a.b.e
    38ad:	b3 69 b3 6b b3 70 b3 71 b3 73 b3 81 b3 85 b3 89     .i.k.p.q.s......
    38bd:	b3 91 b3 a1 b3 a2 b3 a5 b3 a9 b3 b1 b3 b3 b3 b5     ................
    38cd:	b3 b7 b4 61 b4 62 b4 65 b4 66 b4 67 b4 69 b4 6a     ...a.b.e.f.g.i.j
    38dd:	b4 6b b4 70 b4 71 b4 73 b4 75 b4 76 b4 77 b4 7b     .k.p.q.s.u.v.w.{
    38ed:	b4 7c b4 81 b4 82 b4 85 b4 89 b4 91 b4 93 b4 95     .|..............
    38fd:	b4 96 b4 97 b4 a1 b4 a2 b4 a5 b4 a9 b4 ac b4 b1     ................
    390d:	b4 b3 b4 b5 b4 b7 b4 bb b4 bd b4 c1 b4 c5 b4 c9     ................
    391d:	b4 d3 b4 e1 b4 e2 b4 e5 b4 e6 b4 e8 b4 e9 b4 ea     ................
    392d:	b4 eb b4 f1 b4 f3 b4 f4 b4 f5 b4 f6 b4 f7 b4 f8     ................
    393d:	b4 fa b4 fc b5 41 b5 42 b5 45 b5 49 b5 51 b5 53     .....A.B.E.I.Q.S
    394d:	b5 55 b5 57 b5 61 b5 62 b5 63 b5 65 b5 69 b5 6b     .U.W.a.b.c.e.i.k
    395d:	b5 6c b5 71 b5 73 b5 74 b5 75 b5 76 b5 77 b5 7b     .l.q.s.t.u.v.w.{
    396d:	b5 7c b5 7d b5 81 b5 85 b5 89 b5 91 b5 93 b5 95     .|.}............
    397d:	b5 96 b5 a1 b5 a2 b5 a5 b5 a9 b5 aa b5 ab b5 ad     ................
    398d:	b5 b0 b5 b1 b5 b3 b5 b5 b5 b7 b5 b9 b5 c1 b5 c2     ................
    399d:	b5 c5 b5 c9 b5 d1 b5 d3 b5 d5 b5 d6 b5 d7 b5 e1     ................
    39ad:	b5 e2 b5 e5 b5 f1 b5 f5 b5 f7 b6 41 b6 42 b6 45     ...........A.B.E
    39bd:	b6 49 b6 51 b6 53 b6 55 b6 57 b6 61 b6 62 b6 65     .I.Q.S.U.W.a.b.e
    39cd:	b6 69 b6 71 b6 73 b6 75 b6 77 b6 81 b6 82 b6 85     .i.q.s.u.w......
    39dd:	b6 89 b6 8a b6 8b b6 91 b6 93 b6 95 b6 97 b6 a1     ................
    39ed:	b6 a2 b6 a5 b6 a9 b6 b1 b6 b3 b6 b6 b6 b7 b6 c1     ................
    39fd:	b6 c2 b6 c5 b6 c9 b6 d1 b6 d3 b6 d7 b6 e1 b6 e2     ................
    3a0d:	b6 e5 b6 e9 b6 f1 b6 f3 b6 f5 b6 f7 b7 41 b7 42     .............A.B
    3a1d:	b7 45 b7 49 b7 51 b7 53 b7 55 b7 57 b7 59 b7 61     .E.I.Q.S.U.W.Y.a
    3a2d:	b7 62 b7 65 b7 69 b7 6f b7 71 b7 73 b7 75 b7 77     .b.e.i.o.q.s.u.w
    3a3d:	b7 78 b7 79 b7 7a b7 7b b7 7c b7 7d b7 81 b7 85     .x.y.z.{.|.}....
    3a4d:	b7 89 b7 91 b7 95 b7 a1 b7 a2 b7 a5 b7 a9 b7 aa     ................
    3a5d:	b7 ab b7 b0 b7 b1 b7 b3 b7 b5 b7 b6 b7 b7 b7 b8     ................
    3a6d:	b7 bc b8 61 b8 62 b8 65 b8 67 b8 68 b8 69 b8 6b     ...a.b.e.g.h.i.k
    3a7d:	b8 71 b8 73 b8 75 b8 76 b8 77 b8 78 b8 81 b8 82     .q.s.u.v.w.x....
    3a8d:	b8 85 b8 89 b8 91 b8 93 b8 95 b8 96 b8 97 b8 a1     ................
    3a9d:	b8 a2 b8 a5 b8 a7 b8 a9 b8 b1 b8 b7 b8 c1 b8 c5     ................
    3aad:	b8 c9 b8 e1 b8 e2 b8 e5 b8 e9 b8 eb b8 f1 b8 f3     ................
    3abd:	b8 f5 b8 f7 b8 f8 b9 41 b9 42 b9 45 b9 49 b9 51     .......A.B.E.I.Q
    3acd:	b9 53 b9 55 b9 57 b9 61 b9 65 b9 69 b9 71 b9 73     .S.U.W.a.e.i.q.s
    3add:	b9 76 b9 77 b9 81 b9 a1 b9 a2 b9 a5 b9 a9 b9 ab     .v.w............
    3aed:	b9 b1 b9 b3 b9 b5 b9 b7 b9 b8 b9 b9 b9 bd b9 c1     ................
    3afd:	b9 c2 b9 c9 b9 d3 b9 d5 b9 d7 b9 e1 b9 f6 b9 f7     ................
    3b0d:	ba 41 ba 45 ba 49 ba 51 ba 53 ba 55 ba 57 ba 61     .A.E.I.Q.S.U.W.a
    3b1d:	ba 62 ba 65 ba 77 ba 81 ba 82 ba 85 ba 89 ba 8a     .b.e.w..........
    3b2d:	ba 8b ba 91 ba 93 ba 95 ba 97 ba a1 ba b6 ba c1     ................
    3b3d:	ba e1 ba e2 ba e5 ba e9 ba f1 ba f3 ba f5 bb 41     ...............A
    3b4d:	bb 45 bb 49 bb 51 bb 61 bb 62 bb 65 bb 69 bb 71     .E.I.Q.a.b.e.i.q
    3b5d:	bb 73 bb 75 bb 77 bb a1 bb a2 bb a5 bb a8 bb a9     .s.u.w..........
    3b6d:	bb ab bb b1 bb b3 bb b5 bb b7 bb b8 bb bb bb bc     ................
    3b7d:	bc 61 bc 62 bc 65 bc 67 bc 69 bc 6c bc 71 bc 73     .a.b.e.g.i.l.q.s
    3b8d:	bc 75 bc 76 bc 77 bc 81 bc 82 bc 85 bc 89 bc 91     .u.v.w..........
    3b9d:	bc 93 bc 95 bc 96 bc 97 bc a1 bc a5 bc b7 bc e1     ................
    3bad:	bc e2 bc e5 bc e9 bc f1 bc f3 bc f5 bc f6 bc f7     ................
    3bbd:	bd 41 bd 57 bd 61 bd 76 bd a1 bd a2 bd a5 bd a9     .A.W.a.v........
    3bcd:	bd b1 bd b3 bd b5 bd b7 bd b9 bd c1 bd c2 bd c9     ................
    3bdd:	bd d6 bd e1 bd f6 be 41 be 45 be 49 be 51 be 53     .......A.E.I.Q.S
    3bed:	be 77 be 81 be 82 be 85 be 89 be 91 be 93 be 97     .w..............
    3bfd:	be a1 be b6 be b7 be e1 bf 41 bf 61 bf 71 bf 75     .........A.a.q.u
    3c0d:	bf 77 bf a1 bf a2 bf a5 bf a9 bf b1 bf b3 bf b7     .w..............
    3c1d:	bf b8 bf bd c0 61 c0 62 c0 65 c0 67 c0 69 c0 71     .....a.b.e.g.i.q
    3c2d:	c0 73 c0 75 c0 76 c0 77 c0 78 c0 81 c0 82 c0 85     .s.u.v.w.x......
    3c3d:	c0 89 c0 91 c0 93 c0 95 c0 96 c0 97 c0 a1 c0 a5     ................
    3c4d:	c0 a7 c0 a9 c0 b1 c0 b7 c0 e1 c0 e2 c0 e5 c0 e9     ................
    3c5d:	c0 f1 c0 f3 c0 f5 c0 f6 c0 f7 c1 41 c1 42 c1 45     ...........A.B.E
    3c6d:	c1 49 c1 51 c1 53 c1 55 c1 57 c1 61 c1 65 c1 76     .I.Q.S.U.W.a.e.v
    3c7d:	c1 81 c1 85 c1 97 c1 a1 c1 a2 c1 a5 c1 a9 c1 b1     ................
    3c8d:	c1 b3 c1 b5 c1 b7 c1 c1 c1 c5 c1 c9 c1 d7 c2 41     ...............A
    3c9d:	c2 45 c2 49 c2 51 c2 53 c2 55 c2 57 c2 61 c2 71     .E.I.Q.S.U.W.a.q
    3cad:	c2 81 c2 82 c2 85 c2 89 c2 91 c2 93 c2 95 c2 97     ................
    3cbd:	c2 a1 c2 b6 c2 c1 c2 c5 c2 e1 c2 e5 c2 e9 c2 f1     ................
    3ccd:	c2 f3 c2 f5 c2 f7 c3 41 c3 45 c3 49 c3 51 c3 57     .......A.E.I.Q.W
    3cdd:	c3 61 c3 62 c3 65 c3 69 c3 71 c3 73 c3 75 c3 77     .a.b.e.i.q.s.u.w
    3ced:	c3 a1 c3 a2 c3 a5 c3 a8 c3 a9 c3 aa c3 b1 c3 b3     ................
    3cfd:	c3 b5 c3 b7 c4 61 c4 62 c4 65 c4 69 c4 71 c4 73     .....a.b.e.i.q.s
    3d0d:	c4 75 c4 77 c4 81 c4 82 c4 85 c4 89 c4 91 c4 93     .u.w............
    3d1d:	c4 95 c4 96 c4 97 c4 a1 c4 a2 c4 b7 c4 e1 c4 e2     ................
    3d2d:	c4 e5 c4 e8 c4 e9 c4 f1 c4 f3 c4 f5 c4 f6 c4 f7     ................
    3d3d:	c5 41 c5 42 c5 45 c5 49 c5 51 c5 53 c5 55 c5 57     .A.B.E.I.Q.S.U.W
    3d4d:	c5 61 c5 65 c5 69 c5 71 c5 73 c5 75 c5 76 c5 77     .a.e.i.q.s.u.v.w
    3d5d:	c5 81 c5 a1 c5 a2 c5 a5 c5 a9 c5 b1 c5 b3 c5 b5     ................
    3d6d:	c5 b7 c5 c1 c5 c2 c5 c5 c5 c9 c5 d1 c5 d7 c5 e1     ................
    3d7d:	c5 f7 c6 41 c6 49 c6 61 c6 81 c6 82 c6 85 c6 89     ...A.I.a........
    3d8d:	c6 91 c6 93 c6 95 c6 97 c6 a1 c6 a5 c6 a9 c6 b7     ................
    3d9d:	c6 c1 c6 d7 c6 e1 c6 e2 c6 e5 c6 e9 c6 f1 c6 f3     ................
    3dad:	c6 f5 c6 f7 c7 41 c7 45 c7 49 c7 51 c7 61 c7 62     .....A.E.I.Q.a.b
    3dbd:	c7 65 c7 69 c7 71 c7 73 c7 77 c7 a1 c7 a2 c7 a5     .e.i.q.s.w......
    3dcd:	c7 a9 c7 b1 c7 b3 c7 b5 c7 b7 c8 61 c8 62 c8 65     ...........a.b.e
    3ddd:	c8 69 c8 6a c8 71 c8 73 c8 75 c8 76 c8 77 c8 81     .i.j.q.s.u.v.w..
    3ded:	c8 82 c8 85 c8 89 c8 91 c8 93 c8 95 c8 96 c8 97     ................
    3dfd:	c8 a1 c8 b7 c8 e1 c8 e2 c8 e5 c8 e9 c8 eb c8 f1     ................
    3e0d:	c8 f3 c8 f5 c8 f6 c8 f7 c9 41 c9 42 c9 45 c9 49     .........A.B.E.I
    3e1d:	c9 51 c9 53 c9 55 c9 57 c9 61 c9 65 c9 76 c9 81     .Q.S.U.W.a.e.v..
    3e2d:	c9 85 c9 a1 c9 a2 c9 a5 c9 a9 c9 b1 c9 b3 c9 b5     ................
    3e3d:	c9 b7 c9 bc c9 c1 c9 c5 c9 e1 ca 41 ca 45 ca 55     ...........A.E.U
    3e4d:	ca 57 ca 61 ca 81 ca 82 ca 85 ca 89 ca 91 ca 93     .W.a............
    3e5d:	ca 95 ca 97 ca a1 ca b6 ca c1 ca e1 ca e2 ca e5     ................
    3e6d:	ca e9 ca f1 ca f3 ca f7 cb 41 cb 45 cb 49 cb 51     .........A.E.I.Q
    3e7d:	cb 57 cb 61 cb 62 cb 65 cb 68 cb 69 cb 6b cb 71     .W.a.b.e.h.i.k.q
    3e8d:	cb 73 cb 75 cb 81 cb 85 cb 89 cb 91 cb 93 cb a1     .s.u............
    3e9d:	cb a2 cb a5 cb a9 cb b1 cb b3 cb b5 cb b7 cc 61     ...............a
    3ead:	cc 62 cc 63 cc 65 cc 69 cc 6b cc 71 cc 73 cc 75     .b.c.e.i.k.q.s.u
    3ebd:	cc 76 cc 77 cc 7b cc 81 cc 82 cc 85 cc 89 cc 91     .v.w.{..........
    3ecd:	cc 93 cc 95 cc 96 cc 97 cc a1 cc a2 cc e1 cc e2     ................
    3edd:	cc e5 cc e9 cc f1 cc f3 cc f5 cc f6 cc f7 cd 41     ...............A
    3eed:	cd 42 cd 45 cd 49 cd 51 cd 53 cd 55 cd 57 cd 61     .B.E.I.Q.S.U.W.a
    3efd:	cd 65 cd 69 cd 71 cd 73 cd 76 cd 77 cd 81 cd 89     .e.i.q.s.v.w....
    3f0d:	cd 93 cd 95 cd a1 cd a2 cd a5 cd a9 cd b1 cd b3     ................
    3f1d:	cd b5 cd b7 cd c1 cd d7 ce 41 ce 45 ce 61 ce 65     .........A.E.a.e
    3f2d:	ce 69 ce 73 ce 75 ce 81 ce 82 ce 85 ce 88 ce 89     .i.s.u..........
    3f3d:	ce 8b ce 91 ce 93 ce 95 ce 97 ce a1 ce b7 ce e1     ................
    3f4d:	ce e5 ce e9 ce f1 ce f5 cf 41 cf 45 cf 49 cf 51     .........A.E.I.Q
    3f5d:	cf 55 cf 57 cf 61 cf 65 cf 69 cf 71 cf 73 cf 75     .U.W.a.e.i.q.s.u
    3f6d:	cf a1 cf a2 cf a5 cf a9 cf b1 cf b3 cf b5 cf b7     ................
    3f7d:	d0 61 d0 62 d0 65 d0 69 d0 6e d0 71 d0 73 d0 75     .a.b.e.i.n.q.s.u
    3f8d:	d0 77 d0 81 d0 82 d0 85 d0 89 d0 91 d0 93 d0 95     .w..............
    3f9d:	d0 96 d0 97 d0 a1 d0 b7 d0 e1 d0 e2 d0 e5 d0 e9     ................
    3fad:	d0 eb d0 f1 d0 f3 d0 f5 d0 f7 d1 41 d1 42 d1 45     ...........A.B.E
    3fbd:	d1 49 d1 51 d1 53 d1 55 d1 57 d1 61 d1 62 d1 65     .I.Q.S.U.W.a.b.e
    3fcd:	d1 69 d1 71 d1 73 d1 75 d1 76 d1 77 d1 81 d1 85     .i.q.s.u.v.w....
    3fdd:	d1 89 d1 93 d1 a1 d1 a2 d1 a5 d1 a9 d1 ae d1 b1     ................
    3fed:	d1 b3 d1 b5 d1 b7 d1 bb d1 c1 d1 c2 d1 c5 d1 c9     ................
    3ffd:	d1 d5 d1 d7 d1 e1 d1 e2 d1 e5 d1 f5 d1 f7 d2 41     ...............A
    400d:	d2 42 d2 45 d2 49 d2 53 d2 55 d2 57 d2 61 d2 65     .B.E.I.S.U.W.a.e
    401d:	d2 69 d2 73 d2 75 d2 81 d2 82 d2 85 d2 89 d2 8e     .i.s.u..........
    402d:	d2 91 d2 95 d2 97 d2 a1 d2 a5 d2 a9 d2 b1 d2 b7     ................
    403d:	d2 c1 d2 c2 d2 c5 d2 c9 d2 d7 d2 e1 d2 e2 d2 e5     ................
    404d:	d2 e9 d2 f1 d2 f3 d2 f5 d2 f7 d3 41 d3 42 d3 45     ...........A.B.E
    405d:	d3 49 d3 51 d3 55 d3 57 d3 61 d3 62 d3 65 d3 67     .I.Q.U.W.a.b.e.g
    406d:	d3 68 d3 69 d3 6a d3 71 d3 73 d3 75 d3 77 d3 7b     .h.i.j.q.s.u.w.{
    407d:	d3 81 d3 85 d3 89 d3 91 d3 93 d3 97 d3 a1 d3 a2     ................
    408d:	d3 a5 d3 a9 d3 b1 d3 b3 d3 b5 d3 b7                 ............

00004099 <E_font>:
	...
    40a9:	f0 08 28 08 08 28 08 f0 07 08 09 0b 0b 09 08 07     ..(..(..........
    40b9:	f0 f8 d8 f8 f8 d8 f8 f0 07 0f 0e 0c 0c 0e 0f 07     ................
    40c9:	00 f0 f8 f8 f0 f8 f8 f0 00 00 03 07 0f 07 03 00     ................
    40d9:	00 80 c0 e0 f0 e0 c0 80 00 00 01 03 07 03 01 00     ................
    40e9:	00 c0 c0 f8 f8 f8 c0 c0 00 03 0b 09 0f 09 0b 03     ................
    40f9:	00 c0 e0 f0 f8 f0 e0 c0 00 01 0b 0b 0f 0b 0b 01     ................
    4109:	00 00 80 c0 c0 80 00 00 00 00 01 03 03 01 00 00     ................
    4119:	fe fe 7e 3e 3e 7e fe fe 7f 7f 7e 7c 7c 7e 7f 7f     ..~>>~....~||~..
    4129:	00 c0 60 20 20 60 c0 00 00 03 06 04 04 06 03 00     ..`  `..........
    4139:	fe 3e 9e de de 9e 3e fe 7f 7c 79 7b 7b 79 7c 7f     .>....>..|y{{y|.
    4149:	00 00 80 c0 e8 b8 18 78 00 07 0f 08 08 0f 07 00     .......x........
    4159:	00 70 f8 88 88 f8 70 00 00 02 02 0f 0f 02 02 00     .p....p.........
    4169:	00 00 00 f8 f8 30 60 c0 00 06 0f 0f 07 00 00 00     .....0`.........
    4179:	00 00 f8 f8 28 28 f8 f8 00 07 07 03 00 0e 0f 07     ....((..........
    4189:	00 10 c0 e0 28 e0 c0 10 00 04 01 03 0a 03 01 04     ....(...........
    4199:	00 f8 f0 e0 c0 c0 80 80 00 0f 07 03 01 01 00 00     ................
    41a9:	00 80 80 c0 c0 e0 f0 f8 00 00 00 01 01 03 07 0f     ................
    41b9:	00 20 30 f8 f8 30 20 00 00 02 06 0f 0f 06 02 00     . 0..0 .........
    41c9:	00 70 f8 f8 00 f8 f8 70 00 00 0d 0d 00 0d 0d 00     .p.....p........
    41d9:	70 f8 88 f8 f8 08 f8 f8 00 00 00 0f 0f 00 0f 0f     p...............
    41e9:	00 d8 fc 24 64 cc 88 00 00 08 19 13 12 1f 0d 00     ...$d...........
	...
    4201:	00 0f 0f 0f 0f 0f 0f 0f 00 20 30 f8 f8 30 20 00     ......... 0..0 .
    4211:	00 12 16 1f 1f 16 12 00 00 20 30 f8 f8 30 20 00     ......... 0..0 .
    4221:	00 00 00 0f 0f 00 00 00 00 00 00 f8 f8 00 00 00     ................
    4231:	00 02 06 0f 0f 06 02 00 00 80 80 80 80 e0 c0 80     ................
    4241:	00 00 00 00 00 03 01 00 00 80 c0 e0 80 80 80 80     ................
    4251:	00 00 01 03 00 00 00 00 00 c0 c0 00 00 00 00 00     ................
    4261:	00 03 03 02 02 02 02 02 80 c0 e0 80 80 e0 c0 80     ................
    4271:	00 01 03 00 00 03 01 00 00 00 00 c0 f8 c0 00 00     ................
    4281:	00 0c 0f 0f 0f 0f 0f 0c 00 18 78 f8 f8 f8 78 18     ..........x...x.
    4291:	00 00 00 01 0f 01 00 00 00 00 00 00 00 00 00 00     ................
	...
    42a9:	00 00 70 f8 f8 70 00 00 00 00 00 0d 0d 00 00 00     ..p..p..........
    42b9:	00 20 38 18 20 38 18 00 00 00 00 00 00 00 00 00     . 8. 8..........
    42c9:	00 20 f8 f8 20 f8 f8 20 00 02 0f 0f 02 0f 0f 02     . .. .. ........
    42d9:	00 60 f0 9c 9c b0 20 00 00 02 06 1c 1c 07 03 00     .`.... .........
    42e9:	00 20 70 70 a0 c0 60 20 00 04 06 03 05 0e 0e 04     . pp..` ........
    42f9:	00 00 b0 f8 c8 78 b0 80 00 07 0f 08 09 07 0f 08     .....x..........
    4309:	00 00 20 38 18 00 00 00 00 00 00 00 00 00 00 00     .. 8............
    4319:	00 00 e0 f0 18 08 00 00 00 00 03 07 0c 08 00 00     ................
    4329:	00 00 08 18 f0 e0 00 00 00 00 08 0c 07 03 00 00     ................
    4339:	00 80 a0 e0 c0 e0 a0 80 00 00 02 03 01 03 02 00     ................
    4349:	00 80 80 e0 e0 80 80 00 00 00 00 03 03 00 00 00     ................
	...
    4361:	00 00 10 1c 0c 00 00 00 00 80 80 80 80 80 80 00     ................
	...
    4381:	00 00 00 0c 0c 00 00 00 00 00 00 00 80 c0 60 30     ..............`0
    4391:	00 0c 06 03 01 00 00 00 00 f0 f8 88 c8 f8 f0 00     ................
    43a1:	00 07 0f 09 08 0f 07 00 00 00 10 f8 f8 00 00 00     ................
    43b1:	00 00 08 0f 0f 08 00 00 00 10 18 08 88 f8 70 00     ..............p.
    43c1:	00 0c 0e 0b 09 08 08 00 00 08 08 48 e8 b8 18 00     ...........H....
    43d1:	00 04 0c 08 08 0f 07 00 00 c0 e0 30 f8 f8 00 00     ...........0....
    43e1:	00 03 03 02 0f 0f 02 00 00 78 78 48 48 c8 88 00     .........xxHH...
    43f1:	00 04 0c 08 08 0f 07 00 00 e0 f0 98 88 88 00 00     ................
    4401:	00 07 0f 08 08 0f 07 00 00 08 08 88 c8 78 38 00     .............x8.
    4411:	00 00 0f 0f 00 00 00 00 00 70 f8 88 88 f8 70 00     .........p....p.
    4421:	00 07 0f 08 08 0f 07 00 00 70 f8 88 88 f8 f0 00     .........p......
    4431:	00 00 08 08 0c 07 03 00 00 00 00 30 30 00 00 00     ...........00...
    4441:	00 00 00 06 06 00 00 00 00 00 00 30 30 00 00 00     ...........00...
    4451:	00 00 08 0e 06 00 00 00 00 80 c0 60 30 18 08 00     ...........`0...
    4461:	00 00 01 03 06 0c 08 00 00 40 40 40 40 40 40 00     .........@@@@@@.
    4471:	00 02 02 02 02 02 02 00 00 08 18 30 60 c0 80 00     ...........0`...
    4481:	00 08 0c 06 03 01 00 00 00 10 18 88 c8 78 30 00     .............x0.
    4491:	00 00 00 0d 0d 00 00 00 00 f0 f8 08 c8 f8 f0 00     ................
    44a1:	00 07 0f 08 0b 0b 01 00 00 e0 f0 18 18 f0 e0 00     ................
    44b1:	00 0f 0f 01 01 0f 0f 00 00 f8 f8 88 88 f8 70 00     ..............p.
    44c1:	00 0f 0f 08 08 0f 07 00 00 f0 f8 08 08 18 10 00     ................
    44d1:	00 07 0f 08 08 0c 04 00 00 f8 f8 08 08 f8 f0 00     ................
    44e1:	00 0f 0f 08 08 0f 07 00 00 f8 f8 88 88 88 08 00     ................
    44f1:	00 0f 0f 08 08 08 08 00 00 f8 f8 88 88 88 08 00     ................
    4501:	00 0f 0f 00 00 00 00 00 00 f0 f8 08 08 08 08 00     ................
    4511:	00 07 0f 08 09 0f 0f 00 00 f8 f8 80 80 f8 f8 00     ................
    4521:	00 0f 0f 00 00 0f 0f 00 00 00 08 f8 f8 08 00 00     ................
    4531:	00 00 08 0f 0f 08 00 00 00 00 00 00 00 f8 f8 00     ................
    4541:	00 04 0c 08 08 0f 07 00 00 f8 f8 80 e0 78 18 00     .............x..
    4551:	00 0f 0f 00 03 0f 0c 00 00 f8 f8 00 00 00 00 00     ................
    4561:	00 0f 0f 08 08 08 08 00 00 f8 f8 30 e0 30 f8 f8     ...........0.0..
    4571:	00 0f 0f 00 00 00 0f 0f 00 f8 f8 e0 80 f8 f8 00     ................
    4581:	00 0f 0f 00 03 0f 0f 00 00 f0 f8 08 08 f8 f0 00     ................
    4591:	00 07 0f 08 08 0f 07 00 00 f8 f8 88 88 f8 70 00     ..............p.
    45a1:	00 0f 0f 00 00 00 00 00 00 f0 f8 08 08 f8 f0 00     ................
    45b1:	00 07 0f 08 08 1f 17 00 00 f8 f8 88 88 f8 70 00     ..............p.
    45c1:	00 0f 0f 01 03 0e 0c 00 00 70 f8 88 88 98 10 00     .........p......
    45d1:	00 04 0c 08 08 0f 07 00 00 08 08 f8 f8 08 08 00     ................
    45e1:	00 00 00 0f 0f 00 00 00 00 f8 f8 00 00 f8 f8 00     ................
    45f1:	00 07 0f 08 08 0f 07 00 00 f8 f8 00 00 f8 f8 00     ................
    4601:	00 03 07 0c 0c 07 03 00 00 f8 f8 00 80 00 f8 f8     ................
    4611:	00 0f 0f 06 03 06 0f 0f 00 38 78 c0 c0 78 38 00     .........8x..x8.
    4621:	00 0e 0f 01 01 0f 0e 00 00 78 f8 80 80 f8 78 00     .........x....x.
    4631:	00 00 00 0f 0f 00 00 00 00 08 08 88 c8 78 38 00     .............x8.
    4641:	00 0e 0f 09 08 08 08 00 00 00 f8 f8 08 08 00 00     ................
    4651:	00 00 0f 0f 08 08 00 00 00 30 60 c0 80 00 00 00     .........0`.....
    4661:	00 00 00 00 01 03 06 0c 00 00 08 08 f8 f8 00 00     ................
    4671:	00 00 08 08 0f 0f 00 00 00 10 18 0c 0c 18 10 00     ................
	...
    4691:	20 20 20 20 20 20 20 20 00 00 00 18 38 20 00 00             ....8 ..
	...
    46a9:	00 00 40 40 40 c0 80 00 00 06 0f 09 09 0f 0f 00     ..@@@...........
    46b9:	00 f8 f8 40 40 c0 80 00 00 0f 0f 08 08 0f 07 00     ...@@...........
    46c9:	00 80 c0 40 40 c0 80 00 00 07 0f 08 08 0c 04 00     ...@@...........
    46d9:	00 80 c0 40 40 f8 f8 00 00 07 0f 08 08 0f 0f 00     ...@@...........
    46e9:	00 80 c0 40 40 c0 80 00 00 07 0f 0a 0a 0b 0b 00     ...@@...........
    46f9:	00 80 f0 f8 88 98 10 00 00 00 0f 0f 00 00 00 00     ................
    4709:	00 80 c0 40 40 c0 80 00 00 07 4f 48 48 7f 3f 00     ...@@.....OHH.?.
    4719:	00 f8 f8 40 40 c0 80 00 00 0f 0f 00 00 0f 0f 00     ...@@...........
    4729:	00 00 40 d8 d8 00 00 00 00 00 08 0f 0f 08 00 00     ..@.............
    4739:	00 00 00 00 40 d8 d8 00 00 00 10 30 20 3f 1f 00     ....@......0 ?..
    4749:	00 f8 f8 00 80 c0 40 00 00 0f 0f 03 07 0c 08 00     ......@.........
    4759:	00 00 08 f8 f8 00 00 00 00 00 08 0f 0f 08 00 00     ................
    4769:	00 c0 c0 c0 80 c0 c0 80 00 0f 0f 00 07 00 0f 0f     ................
    4779:	00 c0 c0 40 40 c0 80 00 00 0f 0f 00 00 0f 0f 00     ...@@...........
    4789:	00 80 c0 40 40 c0 80 00 00 07 0f 08 08 0f 07 00     ...@@...........
    4799:	00 c0 c0 40 40 c0 80 00 00 7f 7f 08 08 0f 07 00     ...@@...........
    47a9:	00 80 c0 40 40 c0 c0 00 00 07 0f 08 08 7f 7f 00     ...@@...........
    47b9:	00 c0 c0 80 c0 40 40 00 00 0f 0f 01 00 00 00 00     .....@@.........
    47c9:	00 80 c0 40 40 40 40 00 00 08 09 09 09 0f 06 00     ...@@@@.........
    47d9:	00 40 f8 f8 40 40 00 00 00 00 07 0f 08 0c 04 00     .@..@@..........
    47e9:	00 c0 c0 00 00 c0 c0 00 00 07 0f 08 08 0f 0f 00     ................
    47f9:	00 c0 c0 00 00 c0 c0 00 00 03 07 0c 0c 07 03 00     ................
    4809:	00 c0 c0 00 00 00 c0 c0 00 07 0f 0c 07 0c 0f 07     ................
    4819:	00 40 c0 80 00 80 c0 40 00 08 0c 07 03 07 0c 08     .@.....@........
    4829:	00 c0 c0 00 00 c0 c0 00 00 07 4f 48 48 7f 3f 00     ..........OHH.?.
    4839:	00 40 40 40 c0 c0 40 00 00 0c 0e 0b 09 08 08 00     .@@@..@.........
    4849:	00 00 80 f0 78 08 08 00 00 00 00 07 0f 08 08 00     ....x...........
    4859:	00 00 00 78 78 00 00 00 00 00 00 0f 0f 00 00 00     ...xx...........
    4869:	00 00 08 08 78 f0 80 00 00 00 08 08 0f 07 00 00     ....x...........
    4879:	00 80 c0 40 c0 80 c0 40 00 00 00 00 00 00 00 00     ...@...@........
    4889:	00 00 00 70 88 88 88 70 00 00 00 00 00 00 00 00     ...p...p........

00004899 <__c.1790>:
    4899:	6e 61 6e 00                                         nan.

0000489d <__c.1788>:
    489d:	69 6e 66 00 00 40 7a 10 f3 5a 00 a0 72 4e 18 09     inf..@z..Z..rN..
    48ad:	00 10 a5 d4 e8 00 00 e8 76 48 17 00 00 e4 0b 54     ........vH.....T
    48bd:	02 00 00 ca 9a 3b 00 00 00 e1 f5 05 00 00 80 96     .....;..........
    48cd:	98 00 00 00 40 42 0f 00 00 00 a0 86 01 00 00 00     ....@B..........
    48dd:	10 27 00 00 00 00 e8 03 00 00 00 00 64 00 00 00     .'..........d...
    48ed:	00 00 0a 00 00 00 00 00 01 00 00 00 00 00 2c 76     ..............,v
    48fd:	d8 88 dc 67 4f 08 23 df c1 df ae 59 e1 b1 b7 96     ...gO.#....Y....
    490d:	e5 e3 e4 53 c6 3a e6 51 99 76 96 e8 e6 c2 84 26     ...S.:.Q.v.....&
    491d:	eb 89 8c 9b 62 ed 40 7c 6f fc ef bc 9c 9f 40 f2     ....b.@|o.....@.
    492d:	ba a5 6f a5 f4 90 05 5a 2a f7 5c 93 6b 6c f9 67     ..o....Z*.\.kl.g
    493d:	6d c1 1b fc e0 e4 0d 47 fe f5 20 e6 b5 00 d0 ed     m......G.. .....
    494d:	90 2e 03 00 94 35 77 05 00 80 84 1e 08 00 00 20     .....5w........ 
    495d:	4e 0a 00 00 00 c8 0c 33 33 33 33 0f 98 6e 12 83     N......3333..n..
    496d:	11 41 ef 8d 21 14 89 3b e6 55 16 cf fe e6 db 18     .A..!..;.U......
    497d:	d1 84 4b 38 1b f7 7c 1d 90 1d a4 bb e4 24 20 32     ..K8..|......$ 2
    498d:	84 72 5e 22 81 00 c9 f1 24 ec a1 e5 3d 27 00        .r^"....$...='.

0000499c <__ctors_end>:
    499c:	11 24       	eor	r1, r1
    499e:	1f be       	out	0x3f, r1	; 63
    49a0:	cf ef       	ldi	r28, 0xFF	; 255
    49a2:	d0 e1       	ldi	r29, 0x10	; 16
    49a4:	de bf       	out	0x3e, r29	; 62
    49a6:	cd bf       	out	0x3d, r28	; 61

000049a8 <__do_copy_data>:
    49a8:	1b e0       	ldi	r17, 0x0B	; 11
    49aa:	a0 e0       	ldi	r26, 0x00	; 0
    49ac:	b1 e0       	ldi	r27, 0x01	; 1
    49ae:	e2 ee       	ldi	r30, 0xE2	; 226
    49b0:	f5 ec       	ldi	r31, 0xC5	; 197
    49b2:	00 e0       	ldi	r16, 0x00	; 0
    49b4:	0b bf       	out	0x3b, r16	; 59
    49b6:	02 c0       	rjmp	.+4      	; 0x49bc <__do_copy_data+0x14>
    49b8:	07 90       	elpm	r0, Z+
    49ba:	0d 92       	st	X+, r0
    49bc:	ae 33       	cpi	r26, 0x3E	; 62
    49be:	b1 07       	cpc	r27, r17
    49c0:	d9 f7       	brne	.-10     	; 0x49b8 <__do_copy_data+0x10>

000049c2 <__do_clear_bss>:
    49c2:	1c e0       	ldi	r17, 0x0C	; 12
    49c4:	ae e3       	ldi	r26, 0x3E	; 62
    49c6:	bb e0       	ldi	r27, 0x0B	; 11
    49c8:	01 c0       	rjmp	.+2      	; 0x49cc <.do_clear_bss_start>

000049ca <.do_clear_bss_loop>:
    49ca:	1d 92       	st	X+, r1

000049cc <.do_clear_bss_start>:
    49cc:	a3 35       	cpi	r26, 0x53	; 83
    49ce:	b1 07       	cpc	r27, r17
    49d0:	e1 f7       	brne	.-8      	; 0x49ca <.do_clear_bss_loop>
    49d2:	0e 94 91 59 	call	0xb322	; 0xb322 <main>
    49d6:	0c 94 ef 62 	jmp	0xc5de	; 0xc5de <_exit>

000049da <__bad_interrupt>:
    49da:	0c 94 00 00 	jmp	0	; 0x0 <__vectors>

000049de <MCU_initialize>:
/*		OK-128TFT   					*/
/* ---------------------------------------------------------------------------- */

void MCU_initialize(void)			/* initialize ATmega128A MCU */
{
  DDRA  = 0xFF;					// PORTA output
    49de:	9f ef       	ldi	r25, 0xFF	; 255
    49e0:	9a bb       	out	0x1a, r25	; 26
  PORTA = 0x00;
    49e2:	1b ba       	out	0x1b, r1	; 27

  DDRB  = 0xF7;					// PORTB output(PB3 = input)
    49e4:	87 ef       	ldi	r24, 0xF7	; 247
    49e6:	87 bb       	out	0x17, r24	; 23
  PORTB = 0xC0;					// (-TS_CS = -SD_CS = 1)
    49e8:	80 ec       	ldi	r24, 0xC0	; 192
    49ea:	88 bb       	out	0x18, r24	; 24

  DDRC  = 0xFF;					// PORTC output
    49ec:	94 bb       	out	0x14, r25	; 20
  PORTC = 0x58;					// (-TFT_CS = -TFT_WR = -TFT_HB_WR = 1)
    49ee:	88 e5       	ldi	r24, 0x58	; 88
    49f0:	85 bb       	out	0x15, r24	; 21

  DDRD  = 0xF9;					// PORTD output(PD2,1 = input)
    49f2:	89 ef       	ldi	r24, 0xF9	; 249
    49f4:	81 bb       	out	0x11, r24	; 17
  PORTD = 0x00;
    49f6:	12 ba       	out	0x12, r1	; 18

  DDRE  = 0x39;					// PORTE output(PE7,6,2,1 = input)
    49f8:	89 e3       	ldi	r24, 0x39	; 57
    49fa:	82 b9       	out	0x02, r24	; 2
  PORTE = 0x00;
    49fc:	13 b8       	out	0x03, r1	; 3

  DDRF  = 0x00;					// PORTF input
    49fe:	10 92 61 00 	sts	0x0061, r1
  PORTF = 0x00;
    4a02:	10 92 62 00 	sts	0x0062, r1

  DDRG  = 0x00;					// PORTG input
    4a06:	10 92 64 00 	sts	0x0064, r1
  PORTG = 0x00;
    4a0a:	10 92 65 00 	sts	0x0065, r1
}
    4a0e:	08 95       	ret

00004a10 <Delay_us>:

void Delay_us(U08 time_us)			/* time delay for us (1~255 us) */
{
    4a10:	90 e0       	ldi	r25, 0x00	; 0
    4a12:	07 c0       	rjmp	.+14     	; 0x4a22 <Delay_us+0x12>
  register unsigned char i;

  for(i = 0; i < time_us; i++)			// 4 cycles
    { asm volatile("PUSH R0");			// 2 cycles
    4a14:	0f 92       	push	r0
      asm volatile("POP  R0");			// 2 cycles
    4a16:	0f 90       	pop	r0
      asm volatile("PUSH R0");			// 2 cycles
    4a18:	0f 92       	push	r0
      asm volatile("POP  R0");			// 2 cycles
    4a1a:	0f 90       	pop	r0
      asm volatile("PUSH R0");			// 2 cycles
    4a1c:	0f 92       	push	r0
      asm volatile("POP  R0");			// 2 cycles = 16 cycles for 16MHz
    4a1e:	0f 90       	pop	r0

void Delay_us(U08 time_us)			/* time delay for us (1~255 us) */
{
  register unsigned char i;

  for(i = 0; i < time_us; i++)			// 4 cycles
    4a20:	9f 5f       	subi	r25, 0xFF	; 255
    4a22:	98 17       	cp	r25, r24
    4a24:	b8 f3       	brcs	.-18     	; 0x4a14 <Delay_us+0x4>
      asm volatile("PUSH R0");			// 2 cycles
      asm volatile("POP  R0");			// 2 cycles
      asm volatile("PUSH R0");			// 2 cycles
      asm volatile("POP  R0");			// 2 cycles = 16 cycles for 16MHz
    }
}
    4a26:	08 95       	ret

00004a28 <Delay_ms>:

void Delay_ms(U16 time_ms)			/* time delay for ms (1~65535 ms) */
{
    4a28:	0f 93       	push	r16
    4a2a:	1f 93       	push	r17
    4a2c:	cf 93       	push	r28
    4a2e:	df 93       	push	r29
    4a30:	8c 01       	movw	r16, r24
    4a32:	c0 e0       	ldi	r28, 0x00	; 0
    4a34:	d0 e0       	ldi	r29, 0x00	; 0
    4a36:	0d c0       	rjmp	.+26     	; 0x4a52 <Delay_ms+0x2a>
  register unsigned int i;

  for(i = 0; i < time_ms; i++)
    { Delay_us(250);
    4a38:	8a ef       	ldi	r24, 0xFA	; 250
    4a3a:	0e 94 08 25 	call	0x4a10	; 0x4a10 <Delay_us>
      Delay_us(250);
    4a3e:	8a ef       	ldi	r24, 0xFA	; 250
    4a40:	0e 94 08 25 	call	0x4a10	; 0x4a10 <Delay_us>
      Delay_us(250);
    4a44:	8a ef       	ldi	r24, 0xFA	; 250
    4a46:	0e 94 08 25 	call	0x4a10	; 0x4a10 <Delay_us>
      Delay_us(250);
    4a4a:	8a ef       	ldi	r24, 0xFA	; 250
    4a4c:	0e 94 08 25 	call	0x4a10	; 0x4a10 <Delay_us>

void Delay_ms(U16 time_ms)			/* time delay for ms (1~65535 ms) */
{
  register unsigned int i;

  for(i = 0; i < time_ms; i++)
    4a50:	21 96       	adiw	r28, 0x01	; 1
    4a52:	c0 17       	cp	r28, r16
    4a54:	d1 07       	cpc	r29, r17
    4a56:	80 f3       	brcs	.-32     	; 0x4a38 <Delay_ms+0x10>
    { Delay_us(250);
      Delay_us(250);
      Delay_us(250);
      Delay_us(250);
    }
}
    4a58:	df 91       	pop	r29
    4a5a:	cf 91       	pop	r28
    4a5c:	1f 91       	pop	r17
    4a5e:	0f 91       	pop	r16
    4a60:	08 95       	ret

00004a62 <Beep>:

void Beep(void)					/* beep for 50 ms */
{ 
  sbi(PORTC,2);					// buzzer on
    4a62:	aa 9a       	sbi	0x15, 2	; 21
  Delay_ms(50);					// delay 50 ms
    4a64:	82 e3       	ldi	r24, 0x32	; 50
    4a66:	90 e0       	ldi	r25, 0x00	; 0
    4a68:	0e 94 14 25 	call	0x4a28	; 0x4a28 <Delay_ms>
  cbi(PORTC,2);					// buzzer off
    4a6c:	aa 98       	cbi	0x15, 2	; 21
}
    4a6e:	08 95       	ret

00004a70 <Beep_3times>:

void Beep_3times(void)				/* beep 3 times */
{ 
  Beep();					// beep for 50 ms
    4a70:	0e 94 31 25 	call	0x4a62	; 0x4a62 <Beep>
  Delay_ms(100);
    4a74:	84 e6       	ldi	r24, 0x64	; 100
    4a76:	90 e0       	ldi	r25, 0x00	; 0
    4a78:	0e 94 14 25 	call	0x4a28	; 0x4a28 <Delay_ms>
  Beep();					// beep for 50 ms
    4a7c:	0e 94 31 25 	call	0x4a62	; 0x4a62 <Beep>
  Delay_ms(100);
    4a80:	84 e6       	ldi	r24, 0x64	; 100
    4a82:	90 e0       	ldi	r25, 0x00	; 0
    4a84:	0e 94 14 25 	call	0x4a28	; 0x4a28 <Delay_ms>
  Beep();					// beep for 50 ms
    4a88:	0e 94 31 25 	call	0x4a62	; 0x4a62 <Beep>
}
    4a8c:	08 95       	ret

00004a8e <Key_input>:
#define no_key		0x0F			// no key input

unsigned char key_flag = 0;

unsigned char Key_input(void)			/* input key KEY1 - KEY4 */
{
    4a8e:	1f 93       	push	r17
  unsigned char key;

  key = PING & 0x0F;				// any key pressed ?
    4a90:	10 91 63 00 	lds	r17, 0x0063
    4a94:	1f 70       	andi	r17, 0x0F	; 15
    4a96:	80 91 3e 0b 	lds	r24, 0x0B3E
  if(key == 0x0F)				// if no key, check key off
    4a9a:	1f 30       	cpi	r17, 0x0F	; 15
    4a9c:	49 f4       	brne	.+18     	; 0x4ab0 <Key_input+0x22>
    { if(key_flag == 0)
    4a9e:	88 23       	and	r24, r24
    4aa0:	81 f0       	breq	.+32     	; 0x4ac2 <Key_input+0x34>
        return key;
      else
        { Delay_ms(20);
    4aa2:	84 e1       	ldi	r24, 0x14	; 20
    4aa4:	90 e0       	ldi	r25, 0x00	; 0
    4aa6:	0e 94 14 25 	call	0x4a28	; 0x4a28 <Delay_ms>
          key_flag = 0;
    4aaa:	10 92 3e 0b 	sts	0x0B3E, r1
    4aae:	09 c0       	rjmp	.+18     	; 0x4ac2 <Key_input+0x34>
          return key;
        }
    }
  else						// if key input, check continuous key
    { if(key_flag != 0)				// if continuous key, treat as no key input
    4ab0:	88 23       	and	r24, r24
    4ab2:	11 f0       	breq	.+4      	; 0x4ab8 <Key_input+0x2a>
    4ab4:	1f e0       	ldi	r17, 0x0F	; 15
    4ab6:	05 c0       	rjmp	.+10     	; 0x4ac2 <Key_input+0x34>
        return 0x0F;
      else					// if new key, beep and delay for debounce
        { Beep();
    4ab8:	0e 94 31 25 	call	0x4a62	; 0x4a62 <Beep>
          key_flag = 1;
    4abc:	81 e0       	ldi	r24, 0x01	; 1
    4abe:	80 93 3e 0b 	sts	0x0B3E, r24
          return key;
        }
    }
}
    4ac2:	81 2f       	mov	r24, r17
    4ac4:	1f 91       	pop	r17
    4ac6:	08 95       	ret

00004ac8 <Key_input_silent>:

unsigned char Key_input_silent(void)		/* input key KEY1 - KEY4 without sound */
{
    4ac8:	1f 93       	push	r17
  unsigned char key;

  key = PING & 0x0F;				// any key pressed ?
    4aca:	10 91 63 00 	lds	r17, 0x0063
    4ace:	1f 70       	andi	r17, 0x0F	; 15
    4ad0:	80 91 3e 0b 	lds	r24, 0x0B3E
  if(key == 0x0F)				// if no key, check key off
    4ad4:	1f 30       	cpi	r17, 0x0F	; 15
    4ad6:	49 f4       	brne	.+18     	; 0x4aea <Key_input_silent+0x22>
    { if(key_flag == 0)
    4ad8:	88 23       	and	r24, r24
    4ada:	91 f0       	breq	.+36     	; 0x4b00 <Key_input_silent+0x38>
        return key;
      else
        { Delay_ms(20);
    4adc:	84 e1       	ldi	r24, 0x14	; 20
    4ade:	90 e0       	ldi	r25, 0x00	; 0
    4ae0:	0e 94 14 25 	call	0x4a28	; 0x4a28 <Delay_ms>
          key_flag = 0;
    4ae4:	10 92 3e 0b 	sts	0x0B3E, r1
    4ae8:	0b c0       	rjmp	.+22     	; 0x4b00 <Key_input_silent+0x38>
          return key;
        }
    }
  else						// if key input, check continuous key
    { if(key_flag != 0)				// if continuous key, treat as no key input
    4aea:	88 23       	and	r24, r24
    4aec:	11 f0       	breq	.+4      	; 0x4af2 <Key_input_silent+0x2a>
    4aee:	1f e0       	ldi	r17, 0x0F	; 15
    4af0:	07 c0       	rjmp	.+14     	; 0x4b00 <Key_input_silent+0x38>
        return 0x0F;
      else					// if new key, delay for debounce
        { Delay_ms(20);
    4af2:	84 e1       	ldi	r24, 0x14	; 20
    4af4:	90 e0       	ldi	r25, 0x00	; 0
    4af6:	0e 94 14 25 	call	0x4a28	; 0x4a28 <Delay_ms>
          key_flag = 1;
    4afa:	81 e0       	ldi	r24, 0x01	; 1
    4afc:	80 93 3e 0b 	sts	0x0B3E, r24
          return key;
        }
    }
}
    4b00:	81 2f       	mov	r24, r17
    4b02:	1f 91       	pop	r17
    4b04:	08 95       	ret

00004b06 <LCD_command>:
  Delay_ms(2);
}

void LCD_command(U08 command)			/* write a command(instruction) to text LCD */
{
  cbi(PORTC,0);					// E = 0, Rs = 0
    4b06:	a8 98       	cbi	0x15, 0	; 21
  cbi(PORTC,1);
    4b08:	a9 98       	cbi	0x15, 1	; 21
  PORTA = command;				// output command
    4b0a:	8b bb       	out	0x1b, r24	; 27
  sbi(PORTC,0);					// E = 1
    4b0c:	a8 9a       	sbi	0x15, 0	; 21
  asm volatile(" PUSH  R0 ");			// delay for about 250 ns
    4b0e:	0f 92       	push	r0
  asm volatile(" POP   R0 ");
    4b10:	0f 90       	pop	r0
  cbi(PORTC,0);					// E = 0
    4b12:	a8 98       	cbi	0x15, 0	; 21
  Delay_us(50);
    4b14:	82 e3       	ldi	r24, 0x32	; 50
    4b16:	0e 94 08 25 	call	0x4a10	; 0x4a10 <Delay_us>
}
    4b1a:	08 95       	ret

00004b1c <LCD_initialize>:
/*		 LCD   					*/
/* ---------------------------------------------------------------------------- */

void LCD_initialize(void)			/* initialize text LCD module */
{
  LCD_command(0x38);				// function set(8 bit, 2 line, 5x7 dot)
    4b1c:	88 e3       	ldi	r24, 0x38	; 56
    4b1e:	0e 94 83 25 	call	0x4b06	; 0x4b06 <LCD_command>
  LCD_command(0x0C);				// display control(display ON, cursor OFF)
    4b22:	8c e0       	ldi	r24, 0x0C	; 12
    4b24:	0e 94 83 25 	call	0x4b06	; 0x4b06 <LCD_command>
  LCD_command(0x06);				// entry mode set(increment, not shift)
    4b28:	86 e0       	ldi	r24, 0x06	; 6
    4b2a:	0e 94 83 25 	call	0x4b06	; 0x4b06 <LCD_command>
  LCD_command(0x01);				// clear display
    4b2e:	81 e0       	ldi	r24, 0x01	; 1
    4b30:	0e 94 83 25 	call	0x4b06	; 0x4b06 <LCD_command>
  Delay_ms(2);
    4b34:	82 e0       	ldi	r24, 0x02	; 2
    4b36:	90 e0       	ldi	r25, 0x00	; 0
    4b38:	0e 94 14 25 	call	0x4a28	; 0x4a28 <Delay_ms>
}
    4b3c:	08 95       	ret

00004b3e <LCD_data>:
  Delay_us(50);
}

void LCD_data(U08 data)				/* display a character on text LCD */
{
  cbi(PORTC,0);					// E = 0, Rs = 1
    4b3e:	a8 98       	cbi	0x15, 0	; 21
  sbi(PORTC,1);
    4b40:	a9 9a       	sbi	0x15, 1	; 21
  PORTA = data;					// output data
    4b42:	8b bb       	out	0x1b, r24	; 27
  sbi(PORTC,0);					// E = 1
    4b44:	a8 9a       	sbi	0x15, 0	; 21
  asm volatile(" PUSH  R0 ");			// delay for about 250 ns
    4b46:	0f 92       	push	r0
  asm volatile(" POP   R0 ");
    4b48:	0f 90       	pop	r0
  cbi(PORTC,0);					// E = 0
    4b4a:	a8 98       	cbi	0x15, 0	; 21
  Delay_us(50);
    4b4c:	82 e3       	ldi	r24, 0x32	; 50
    4b4e:	0e 94 08 25 	call	0x4a10	; 0x4a10 <Delay_us>
}
    4b52:	08 95       	ret

00004b54 <LCD_string>:

void LCD_string(U08 command, char *string)	/* display a string on LCD */
{
    4b54:	cf 93       	push	r28
    4b56:	df 93       	push	r29
    4b58:	eb 01       	movw	r28, r22
  LCD_command(command);				// start position of string
    4b5a:	0e 94 83 25 	call	0x4b06	; 0x4b06 <LCD_command>
    4b5e:	03 c0       	rjmp	.+6      	; 0x4b66 <LCD_string+0x12>
  while(*string != '\0')			// display string
    { LCD_data(*string);
    4b60:	0e 94 9f 25 	call	0x4b3e	; 0x4b3e <LCD_data>
       string++;
    4b64:	21 96       	adiw	r28, 0x01	; 1
}

void LCD_string(U08 command, char *string)	/* display a string on LCD */
{
  LCD_command(command);				// start position of string
  while(*string != '\0')			// display string
    4b66:	88 81       	ld	r24, Y
    4b68:	88 23       	and	r24, r24
    4b6a:	d1 f7       	brne	.-12     	; 0x4b60 <LCD_string+0xc>
    { LCD_data(*string);
       string++;
    }
}
    4b6c:	df 91       	pop	r29
    4b6e:	cf 91       	pop	r28
    4b70:	08 95       	ret

00004b72 <LCD_binary>:
/* ---------------------------------------------------------------------------- */
/*		 LCD     				*/
/* ---------------------------------------------------------------------------- */

void LCD_binary(U16 number, U08 digit)		/* display 8 or 16 bit binary number */
{
    4b72:	1f 93       	push	r17
    4b74:	cf 93       	push	r28
    4b76:	df 93       	push	r29
    4b78:	ec 01       	movw	r28, r24
    4b7a:	16 2f       	mov	r17, r22
  unsigned char i, shift;

  if((digit == 0) || (digit > 16)) return;
    4b7c:	11 50       	subi	r17, 0x01	; 1
    4b7e:	10 31       	cpi	r17, 0x10	; 16
    4b80:	68 f4       	brcc	.+26     	; 0x4b9c <LCD_binary+0x2a>

  shift = digit - 1;
  for(i = 0; i < digit; i++ )
    { LCD_data(((number >> shift) & 0x01) + '0');
    4b82:	ce 01       	movw	r24, r28
    4b84:	01 2e       	mov	r0, r17
    4b86:	02 c0       	rjmp	.+4      	; 0x4b8c <LCD_binary+0x1a>
    4b88:	96 95       	lsr	r25
    4b8a:	87 95       	ror	r24
    4b8c:	0a 94       	dec	r0
    4b8e:	e2 f7       	brpl	.-8      	; 0x4b88 <LCD_binary+0x16>
    4b90:	81 70       	andi	r24, 0x01	; 1
    4b92:	80 5d       	subi	r24, 0xD0	; 208
    4b94:	0e 94 9f 25 	call	0x4b3e	; 0x4b3e <LCD_data>
      shift--;
    4b98:	11 50       	subi	r17, 0x01	; 1
    4b9a:	98 f7       	brcc	.-26     	; 0x4b82 <LCD_binary+0x10>
    }
}
    4b9c:	df 91       	pop	r29
    4b9e:	cf 91       	pop	r28
    4ba0:	1f 91       	pop	r17
    4ba2:	08 95       	ret

00004ba4 <LCD_unsigned_decimal>:

void LCD_unsigned_decimal(U32 number, U08 zerofill, U08 digit) /* display unsigned decimal number */
{
    4ba4:	8f 92       	push	r8
    4ba6:	9f 92       	push	r9
    4ba8:	af 92       	push	r10
    4baa:	bf 92       	push	r11
    4bac:	cf 92       	push	r12
    4bae:	df 92       	push	r13
    4bb0:	ef 92       	push	r14
    4bb2:	ff 92       	push	r15
    4bb4:	0f 93       	push	r16
    4bb6:	1f 93       	push	r17
    4bb8:	4b 01       	movw	r8, r22
    4bba:	5c 01       	movw	r10, r24
    4bbc:	c4 2e       	mov	r12, r20
    4bbe:	d2 2e       	mov	r13, r18
  unsigned char zero_flag, character;
  unsigned long div;

  if((digit == 0) || (digit > 9)) return;
    4bc0:	82 2f       	mov	r24, r18
    4bc2:	81 50       	subi	r24, 0x01	; 1
    4bc4:	89 30       	cpi	r24, 0x09	; 9
    4bc6:	08 f0       	brcs	.+2      	; 0x4bca <LCD_unsigned_decimal+0x26>
    4bc8:	47 c0       	rjmp	.+142    	; 0x4c58 <LCD_unsigned_decimal+0xb4>
    4bca:	81 e0       	ldi	r24, 0x01	; 1
    4bcc:	e8 2e       	mov	r14, r24
    4bce:	f1 2c       	mov	r15, r1
    4bd0:	01 2d       	mov	r16, r1
    4bd2:	11 2d       	mov	r17, r1
    4bd4:	0a c0       	rjmp	.+20     	; 0x4bea <LCD_unsigned_decimal+0x46>

  div = 1;
  while(--digit) div *= 10;
    4bd6:	c8 01       	movw	r24, r16
    4bd8:	b7 01       	movw	r22, r14
    4bda:	2a e0       	ldi	r18, 0x0A	; 10
    4bdc:	30 e0       	ldi	r19, 0x00	; 0
    4bde:	40 e0       	ldi	r20, 0x00	; 0
    4be0:	50 e0       	ldi	r21, 0x00	; 0
    4be2:	0e 94 e8 60 	call	0xc1d0	; 0xc1d0 <__mulsi3>
    4be6:	7b 01       	movw	r14, r22
    4be8:	8c 01       	movw	r16, r24
    4bea:	da 94       	dec	r13
    4bec:	a1 f7       	brne	.-24     	; 0x4bd6 <LCD_unsigned_decimal+0x32>
    4bee:	dc 2c       	mov	r13, r12
    4bf0:	2e c0       	rjmp	.+92     	; 0x4c4e <LCD_unsigned_decimal+0xaa>

  zero_flag = zerofill;
  while(div > 0)				// display number
    { character = number / div;
    4bf2:	b4 01       	movw	r22, r8
    4bf4:	c5 01       	movw	r24, r10
    4bf6:	a8 01       	movw	r20, r16
    4bf8:	97 01       	movw	r18, r14
    4bfa:	0e 94 3a 61 	call	0xc274	; 0xc274 <__udivmodsi4>
      if((character == 0) && (zero_flag == 0) && (div != 1))
    4bfe:	22 23       	and	r18, r18
    4c00:	61 f4       	brne	.+24     	; 0x4c1a <LCD_unsigned_decimal+0x76>
    4c02:	dd 20       	and	r13, r13
    4c04:	51 f4       	brne	.+20     	; 0x4c1a <LCD_unsigned_decimal+0x76>
    4c06:	81 e0       	ldi	r24, 0x01	; 1
    4c08:	e8 16       	cp	r14, r24
    4c0a:	f1 04       	cpc	r15, r1
    4c0c:	01 05       	cpc	r16, r1
    4c0e:	11 05       	cpc	r17, r1
    4c10:	21 f0       	breq	.+8      	; 0x4c1a <LCD_unsigned_decimal+0x76>
        LCD_data(character + ' ');
    4c12:	80 e2       	ldi	r24, 0x20	; 32
    4c14:	0e 94 9f 25 	call	0x4b3e	; 0x4b3e <LCD_data>
    4c18:	06 c0       	rjmp	.+12     	; 0x4c26 <LCD_unsigned_decimal+0x82>
      else
        { zero_flag = 1;
          LCD_data(character + '0');
    4c1a:	82 2f       	mov	r24, r18
    4c1c:	80 5d       	subi	r24, 0xD0	; 208
    4c1e:	0e 94 9f 25 	call	0x4b3e	; 0x4b3e <LCD_data>
    4c22:	dd 24       	eor	r13, r13
    4c24:	d3 94       	inc	r13
        }
      number %= div;
    4c26:	b4 01       	movw	r22, r8
    4c28:	c5 01       	movw	r24, r10
    4c2a:	a8 01       	movw	r20, r16
    4c2c:	97 01       	movw	r18, r14
    4c2e:	0e 94 3a 61 	call	0xc274	; 0xc274 <__udivmodsi4>
    4c32:	4b 01       	movw	r8, r22
    4c34:	5c 01       	movw	r10, r24
      div /= 10;
    4c36:	c8 01       	movw	r24, r16
    4c38:	b7 01       	movw	r22, r14
    4c3a:	2a e0       	ldi	r18, 0x0A	; 10
    4c3c:	30 e0       	ldi	r19, 0x00	; 0
    4c3e:	40 e0       	ldi	r20, 0x00	; 0
    4c40:	50 e0       	ldi	r21, 0x00	; 0
    4c42:	0e 94 3a 61 	call	0xc274	; 0xc274 <__udivmodsi4>
    4c46:	c9 01       	movw	r24, r18
    4c48:	da 01       	movw	r26, r20
    4c4a:	7c 01       	movw	r14, r24
    4c4c:	8d 01       	movw	r16, r26

  div = 1;
  while(--digit) div *= 10;

  zero_flag = zerofill;
  while(div > 0)				// display number
    4c4e:	e1 14       	cp	r14, r1
    4c50:	f1 04       	cpc	r15, r1
    4c52:	01 05       	cpc	r16, r1
    4c54:	11 05       	cpc	r17, r1
    4c56:	69 f6       	brne	.-102    	; 0x4bf2 <LCD_unsigned_decimal+0x4e>
          LCD_data(character + '0');
        }
      number %= div;
      div /= 10;
    }
}
    4c58:	1f 91       	pop	r17
    4c5a:	0f 91       	pop	r16
    4c5c:	ff 90       	pop	r15
    4c5e:	ef 90       	pop	r14
    4c60:	df 90       	pop	r13
    4c62:	cf 90       	pop	r12
    4c64:	bf 90       	pop	r11
    4c66:	af 90       	pop	r10
    4c68:	9f 90       	pop	r9
    4c6a:	8f 90       	pop	r8
    4c6c:	08 95       	ret

00004c6e <LCD_signed_decimal>:

void LCD_signed_decimal(S32 number, U08 zerofill, U08 digit)	/* display signed decimal number */
{
    4c6e:	5f 92       	push	r5
    4c70:	6f 92       	push	r6
    4c72:	7f 92       	push	r7
    4c74:	8f 92       	push	r8
    4c76:	9f 92       	push	r9
    4c78:	af 92       	push	r10
    4c7a:	bf 92       	push	r11
    4c7c:	cf 92       	push	r12
    4c7e:	df 92       	push	r13
    4c80:	ef 92       	push	r14
    4c82:	ff 92       	push	r15
    4c84:	0f 93       	push	r16
    4c86:	1f 93       	push	r17
    4c88:	7b 01       	movw	r14, r22
    4c8a:	8c 01       	movw	r16, r24
    4c8c:	84 2e       	mov	r8, r20
    4c8e:	92 2e       	mov	r9, r18
  unsigned char zero_flag, character;
  unsigned long div;

  if((digit == 0) || (digit > 9)) return;
    4c90:	82 2f       	mov	r24, r18
    4c92:	81 50       	subi	r24, 0x01	; 1
    4c94:	89 30       	cpi	r24, 0x09	; 9
    4c96:	08 f0       	brcs	.+2      	; 0x4c9a <LCD_signed_decimal+0x2c>
    4c98:	61 c0       	rjmp	.+194    	; 0x4d5c <LCD_signed_decimal+0xee>

  if(number >= 0)				// display sign
    4c9a:	17 fd       	sbrc	r17, 7
    4c9c:	04 c0       	rjmp	.+8      	; 0x4ca6 <LCD_signed_decimal+0x38>
    LCD_data('+');
    4c9e:	8b e2       	ldi	r24, 0x2B	; 43
    4ca0:	0e 94 9f 25 	call	0x4b3e	; 0x4b3e <LCD_data>
    4ca4:	0b c0       	rjmp	.+22     	; 0x4cbc <LCD_signed_decimal+0x4e>
  else
    { LCD_data('-');
    4ca6:	8d e2       	ldi	r24, 0x2D	; 45
    4ca8:	0e 94 9f 25 	call	0x4b3e	; 0x4b3e <LCD_data>
      number = -number;
    4cac:	10 95       	com	r17
    4cae:	00 95       	com	r16
    4cb0:	f0 94       	com	r15
    4cb2:	e0 94       	com	r14
    4cb4:	e1 1c       	adc	r14, r1
    4cb6:	f1 1c       	adc	r15, r1
    4cb8:	01 1d       	adc	r16, r1
    4cba:	11 1d       	adc	r17, r1
    4cbc:	91 e0       	ldi	r25, 0x01	; 1
    4cbe:	a9 2e       	mov	r10, r25
    4cc0:	b1 2c       	mov	r11, r1
    4cc2:	c1 2c       	mov	r12, r1
    4cc4:	d1 2c       	mov	r13, r1
    4cc6:	0a c0       	rjmp	.+20     	; 0x4cdc <LCD_signed_decimal+0x6e>
    }

  div = 1;
  while(--digit) div *= 10;
    4cc8:	c6 01       	movw	r24, r12
    4cca:	b5 01       	movw	r22, r10
    4ccc:	2a e0       	ldi	r18, 0x0A	; 10
    4cce:	30 e0       	ldi	r19, 0x00	; 0
    4cd0:	40 e0       	ldi	r20, 0x00	; 0
    4cd2:	50 e0       	ldi	r21, 0x00	; 0
    4cd4:	0e 94 e8 60 	call	0xc1d0	; 0xc1d0 <__mulsi3>
    4cd8:	5b 01       	movw	r10, r22
    4cda:	6c 01       	movw	r12, r24
    4cdc:	9a 94       	dec	r9
    4cde:	a1 f7       	brne	.-24     	; 0x4cc8 <LCD_signed_decimal+0x5a>
    4ce0:	58 2c       	mov	r5, r8
    4ce2:	37 c0       	rjmp	.+110    	; 0x4d52 <LCD_signed_decimal+0xe4>

  zero_flag = zerofill;
  while(div > 0)				// display number
    { character = number / div;
    4ce4:	9e 2c       	mov	r9, r14
    4ce6:	8f 2c       	mov	r8, r15
    4ce8:	70 2e       	mov	r7, r16
    4cea:	61 2e       	mov	r6, r17
    4cec:	b7 01       	movw	r22, r14
    4cee:	c8 01       	movw	r24, r16
    4cf0:	a6 01       	movw	r20, r12
    4cf2:	95 01       	movw	r18, r10
    4cf4:	0e 94 3a 61 	call	0xc274	; 0xc274 <__udivmodsi4>
      if((character == 0) && (zero_flag == 0) && (div != 1))
    4cf8:	22 23       	and	r18, r18
    4cfa:	61 f4       	brne	.+24     	; 0x4d14 <LCD_signed_decimal+0xa6>
    4cfc:	55 20       	and	r5, r5
    4cfe:	51 f4       	brne	.+20     	; 0x4d14 <LCD_signed_decimal+0xa6>
    4d00:	81 e0       	ldi	r24, 0x01	; 1
    4d02:	a8 16       	cp	r10, r24
    4d04:	b1 04       	cpc	r11, r1
    4d06:	c1 04       	cpc	r12, r1
    4d08:	d1 04       	cpc	r13, r1
    4d0a:	21 f0       	breq	.+8      	; 0x4d14 <LCD_signed_decimal+0xa6>
        LCD_data(character + ' ');
    4d0c:	80 e2       	ldi	r24, 0x20	; 32
    4d0e:	0e 94 9f 25 	call	0x4b3e	; 0x4b3e <LCD_data>
    4d12:	06 c0       	rjmp	.+12     	; 0x4d20 <LCD_signed_decimal+0xb2>
      else
        { zero_flag = 1;
          LCD_data(character + '0');
    4d14:	82 2f       	mov	r24, r18
    4d16:	80 5d       	subi	r24, 0xD0	; 208
    4d18:	0e 94 9f 25 	call	0x4b3e	; 0x4b3e <LCD_data>
    4d1c:	55 24       	eor	r5, r5
    4d1e:	53 94       	inc	r5
        }
      number %= div;
    4d20:	69 2d       	mov	r22, r9
    4d22:	78 2d       	mov	r23, r8
    4d24:	87 2d       	mov	r24, r7
    4d26:	96 2d       	mov	r25, r6
    4d28:	a6 01       	movw	r20, r12
    4d2a:	95 01       	movw	r18, r10
    4d2c:	0e 94 3a 61 	call	0xc274	; 0xc274 <__udivmodsi4>
    4d30:	ac 01       	movw	r20, r24
    4d32:	cb 01       	movw	r24, r22
    4d34:	da 01       	movw	r26, r20
    4d36:	7c 01       	movw	r14, r24
    4d38:	8d 01       	movw	r16, r26
      div /= 10;
    4d3a:	c6 01       	movw	r24, r12
    4d3c:	b5 01       	movw	r22, r10
    4d3e:	2a e0       	ldi	r18, 0x0A	; 10
    4d40:	30 e0       	ldi	r19, 0x00	; 0
    4d42:	40 e0       	ldi	r20, 0x00	; 0
    4d44:	50 e0       	ldi	r21, 0x00	; 0
    4d46:	0e 94 3a 61 	call	0xc274	; 0xc274 <__udivmodsi4>
    4d4a:	c9 01       	movw	r24, r18
    4d4c:	da 01       	movw	r26, r20
    4d4e:	5c 01       	movw	r10, r24
    4d50:	6d 01       	movw	r12, r26

  div = 1;
  while(--digit) div *= 10;

  zero_flag = zerofill;
  while(div > 0)				// display number
    4d52:	a1 14       	cp	r10, r1
    4d54:	b1 04       	cpc	r11, r1
    4d56:	c1 04       	cpc	r12, r1
    4d58:	d1 04       	cpc	r13, r1
    4d5a:	21 f6       	brne	.-120    	; 0x4ce4 <LCD_signed_decimal+0x76>
          LCD_data(character + '0');
        }
      number %= div;
      div /= 10;
    }
}
    4d5c:	1f 91       	pop	r17
    4d5e:	0f 91       	pop	r16
    4d60:	ff 90       	pop	r15
    4d62:	ef 90       	pop	r14
    4d64:	df 90       	pop	r13
    4d66:	cf 90       	pop	r12
    4d68:	bf 90       	pop	r11
    4d6a:	af 90       	pop	r10
    4d6c:	9f 90       	pop	r9
    4d6e:	8f 90       	pop	r8
    4d70:	7f 90       	pop	r7
    4d72:	6f 90       	pop	r6
    4d74:	5f 90       	pop	r5
    4d76:	08 95       	ret

00004d78 <LCD_hexadecimal>:

void LCD_hexadecimal(U32 number, U08 digit)	/* display hexadecimal number */
{
    4d78:	cf 92       	push	r12
    4d7a:	df 92       	push	r13
    4d7c:	ef 92       	push	r14
    4d7e:	ff 92       	push	r15
    4d80:	1f 93       	push	r17
    4d82:	6b 01       	movw	r12, r22
    4d84:	7c 01       	movw	r14, r24
  unsigned char i, character;

  if((digit == 0) || (digit > 8)) return;
    4d86:	84 2f       	mov	r24, r20
    4d88:	81 50       	subi	r24, 0x01	; 1
    4d8a:	88 30       	cpi	r24, 0x08	; 8
    4d8c:	f8 f4       	brcc	.+62     	; 0x4dcc <LCD_hexadecimal+0x54>
    4d8e:	14 2f       	mov	r17, r20
    4d90:	1b c0       	rjmp	.+54     	; 0x4dc8 <LCD_hexadecimal+0x50>

  for(i = digit; i > 0; i--)
    { character = (number >> 4*(i-1)) & 0x0F;
    4d92:	81 2f       	mov	r24, r17
    4d94:	90 e0       	ldi	r25, 0x00	; 0
    4d96:	01 97       	sbiw	r24, 0x01	; 1
    4d98:	88 0f       	add	r24, r24
    4d9a:	99 1f       	adc	r25, r25
    4d9c:	88 0f       	add	r24, r24
    4d9e:	99 1f       	adc	r25, r25
    4da0:	a7 01       	movw	r20, r14
    4da2:	96 01       	movw	r18, r12
    4da4:	04 c0       	rjmp	.+8      	; 0x4dae <LCD_hexadecimal+0x36>
    4da6:	56 95       	lsr	r21
    4da8:	47 95       	ror	r20
    4daa:	37 95       	ror	r19
    4dac:	27 95       	ror	r18
    4dae:	8a 95       	dec	r24
    4db0:	d2 f7       	brpl	.-12     	; 0x4da6 <LCD_hexadecimal+0x2e>
    4db2:	da 01       	movw	r26, r20
    4db4:	c9 01       	movw	r24, r18
    4db6:	8f 70       	andi	r24, 0x0F	; 15
      if(character < 10) LCD_data(character + '0');
    4db8:	8a 30       	cpi	r24, 0x0A	; 10
    4dba:	10 f4       	brcc	.+4      	; 0x4dc0 <LCD_hexadecimal+0x48>
    4dbc:	80 5d       	subi	r24, 0xD0	; 208
    4dbe:	01 c0       	rjmp	.+2      	; 0x4dc2 <LCD_hexadecimal+0x4a>
      else               LCD_data(character - 10 + 'A');
    4dc0:	89 5c       	subi	r24, 0xC9	; 201
    4dc2:	0e 94 9f 25 	call	0x4b3e	; 0x4b3e <LCD_data>
{
  unsigned char i, character;

  if((digit == 0) || (digit > 8)) return;

  for(i = digit; i > 0; i--)
    4dc6:	11 50       	subi	r17, 0x01	; 1
    4dc8:	11 23       	and	r17, r17
    4dca:	19 f7       	brne	.-58     	; 0x4d92 <LCD_hexadecimal+0x1a>
    { character = (number >> 4*(i-1)) & 0x0F;
      if(character < 10) LCD_data(character + '0');
      else               LCD_data(character - 10 + 'A');
    }
}
    4dcc:	1f 91       	pop	r17
    4dce:	ff 90       	pop	r15
    4dd0:	ef 90       	pop	r14
    4dd2:	df 90       	pop	r13
    4dd4:	cf 90       	pop	r12
    4dd6:	08 95       	ret

00004dd8 <LCD_0x_hexadecimal>:

void LCD_0x_hexadecimal(U32 number, U08 digit)	/* display hexadecimal number with 0x */
{
    4dd8:	cf 92       	push	r12
    4dda:	df 92       	push	r13
    4ddc:	ef 92       	push	r14
    4dde:	ff 92       	push	r15
    4de0:	1f 93       	push	r17
    4de2:	6b 01       	movw	r12, r22
    4de4:	7c 01       	movw	r14, r24
    4de6:	14 2f       	mov	r17, r20
  unsigned char i, character;

  if((digit == 0) || (digit > 8)) return;
    4de8:	84 2f       	mov	r24, r20
    4dea:	81 50       	subi	r24, 0x01	; 1
    4dec:	88 30       	cpi	r24, 0x08	; 8
    4dee:	20 f5       	brcc	.+72     	; 0x4e38 <LCD_0x_hexadecimal+0x60>

  LCD_data('0');
    4df0:	80 e3       	ldi	r24, 0x30	; 48
    4df2:	0e 94 9f 25 	call	0x4b3e	; 0x4b3e <LCD_data>
  LCD_data('x');
    4df6:	88 e7       	ldi	r24, 0x78	; 120
    4df8:	0e 94 9f 25 	call	0x4b3e	; 0x4b3e <LCD_data>
    4dfc:	1b c0       	rjmp	.+54     	; 0x4e34 <LCD_0x_hexadecimal+0x5c>

  for(i = digit; i > 0; i--)
    { character = (number >> 4*(i-1)) & 0x0F;
    4dfe:	81 2f       	mov	r24, r17
    4e00:	90 e0       	ldi	r25, 0x00	; 0
    4e02:	01 97       	sbiw	r24, 0x01	; 1
    4e04:	88 0f       	add	r24, r24
    4e06:	99 1f       	adc	r25, r25
    4e08:	88 0f       	add	r24, r24
    4e0a:	99 1f       	adc	r25, r25
    4e0c:	a7 01       	movw	r20, r14
    4e0e:	96 01       	movw	r18, r12
    4e10:	04 c0       	rjmp	.+8      	; 0x4e1a <LCD_0x_hexadecimal+0x42>
    4e12:	56 95       	lsr	r21
    4e14:	47 95       	ror	r20
    4e16:	37 95       	ror	r19
    4e18:	27 95       	ror	r18
    4e1a:	8a 95       	dec	r24
    4e1c:	d2 f7       	brpl	.-12     	; 0x4e12 <LCD_0x_hexadecimal+0x3a>
    4e1e:	da 01       	movw	r26, r20
    4e20:	c9 01       	movw	r24, r18
    4e22:	8f 70       	andi	r24, 0x0F	; 15
      if(character < 10) LCD_data(character + '0');
    4e24:	8a 30       	cpi	r24, 0x0A	; 10
    4e26:	10 f4       	brcc	.+4      	; 0x4e2c <LCD_0x_hexadecimal+0x54>
    4e28:	80 5d       	subi	r24, 0xD0	; 208
    4e2a:	01 c0       	rjmp	.+2      	; 0x4e2e <LCD_0x_hexadecimal+0x56>
      else               LCD_data(character - 10 + 'A');
    4e2c:	89 5c       	subi	r24, 0xC9	; 201
    4e2e:	0e 94 9f 25 	call	0x4b3e	; 0x4b3e <LCD_data>
  if((digit == 0) || (digit > 8)) return;

  LCD_data('0');
  LCD_data('x');

  for(i = digit; i > 0; i--)
    4e32:	11 50       	subi	r17, 0x01	; 1
    4e34:	11 23       	and	r17, r17
    4e36:	19 f7       	brne	.-58     	; 0x4dfe <LCD_0x_hexadecimal+0x26>
    { character = (number >> 4*(i-1)) & 0x0F;
      if(character < 10) LCD_data(character + '0');
      else               LCD_data(character - 10 + 'A');
    }
}
    4e38:	1f 91       	pop	r17
    4e3a:	ff 90       	pop	r15
    4e3c:	ef 90       	pop	r14
    4e3e:	df 90       	pop	r13
    4e40:	cf 90       	pop	r12
    4e42:	08 95       	ret

00004e44 <LCD_unsigned_float>:

void LCD_unsigned_float(float number, U08 integral, U08 fractional) /* display unsigned floating-point number */
{
    4e44:	7f 92       	push	r7
    4e46:	8f 92       	push	r8
    4e48:	9f 92       	push	r9
    4e4a:	af 92       	push	r10
    4e4c:	bf 92       	push	r11
    4e4e:	cf 92       	push	r12
    4e50:	df 92       	push	r13
    4e52:	ef 92       	push	r14
    4e54:	ff 92       	push	r15
    4e56:	0f 93       	push	r16
    4e58:	1f 93       	push	r17
    4e5a:	5b 01       	movw	r10, r22
    4e5c:	6c 01       	movw	r12, r24
    4e5e:	74 2e       	mov	r7, r20
    4e60:	82 2e       	mov	r8, r18
  unsigned char zero_flag, digit, character;	// integral = digits of integral part
  unsigned long div, integer;			// fractional = digits of fractional part

  digit = integral + fractional;
  if((integral == 0) || (fractional == 0) || (digit > 9)) return;
    4e62:	44 23       	and	r20, r20
    4e64:	09 f4       	brne	.+2      	; 0x4e68 <LCD_unsigned_float+0x24>
    4e66:	6a c0       	rjmp	.+212    	; 0x4f3c <LCD_unsigned_float+0xf8>
    4e68:	22 23       	and	r18, r18
    4e6a:	09 f4       	brne	.+2      	; 0x4e6e <LCD_unsigned_float+0x2a>
    4e6c:	67 c0       	rjmp	.+206    	; 0x4f3c <LCD_unsigned_float+0xf8>
void LCD_unsigned_float(float number, U08 integral, U08 fractional) /* display unsigned floating-point number */
{
  unsigned char zero_flag, digit, character;	// integral = digits of integral part
  unsigned long div, integer;			// fractional = digits of fractional part

  digit = integral + fractional;
    4e6e:	92 2e       	mov	r9, r18
    4e70:	94 0e       	add	r9, r20
  if((integral == 0) || (fractional == 0) || (digit > 9)) return;
    4e72:	89 e0       	ldi	r24, 0x09	; 9
    4e74:	89 15       	cp	r24, r9
    4e76:	08 f4       	brcc	.+2      	; 0x4e7a <LCD_unsigned_float+0x36>
    4e78:	61 c0       	rjmp	.+194    	; 0x4f3c <LCD_unsigned_float+0xf8>
    4e7a:	41 e0       	ldi	r20, 0x01	; 1
    4e7c:	e4 2e       	mov	r14, r20
    4e7e:	f1 2c       	mov	r15, r1
    4e80:	01 2d       	mov	r16, r1
    4e82:	11 2d       	mov	r17, r1
    4e84:	0a c0       	rjmp	.+20     	; 0x4e9a <LCD_unsigned_float+0x56>

  div = 1;
  while(--digit) div *= 10;
    4e86:	c8 01       	movw	r24, r16
    4e88:	b7 01       	movw	r22, r14
    4e8a:	2a e0       	ldi	r18, 0x0A	; 10
    4e8c:	30 e0       	ldi	r19, 0x00	; 0
    4e8e:	40 e0       	ldi	r20, 0x00	; 0
    4e90:	50 e0       	ldi	r21, 0x00	; 0
    4e92:	0e 94 e8 60 	call	0xc1d0	; 0xc1d0 <__mulsi3>
    4e96:	7b 01       	movw	r14, r22
    4e98:	8c 01       	movw	r16, r24
    4e9a:	9a 94       	dec	r9
    4e9c:	a1 f7       	brne	.-24     	; 0x4e86 <LCD_unsigned_float+0x42>

  while(fractional--) number *= 10.;
    4e9e:	c6 01       	movw	r24, r12
    4ea0:	b5 01       	movw	r22, r10
    4ea2:	20 e0       	ldi	r18, 0x00	; 0
    4ea4:	30 e0       	ldi	r19, 0x00	; 0
    4ea6:	40 e2       	ldi	r20, 0x20	; 32
    4ea8:	51 e4       	ldi	r21, 0x41	; 65
    4eaa:	0e 94 1e 5c 	call	0xb83c	; 0xb83c <__mulsf3>
    4eae:	5b 01       	movw	r10, r22
    4eb0:	6c 01       	movw	r12, r24
    4eb2:	8a 94       	dec	r8
    4eb4:	a1 f7       	brne	.-24     	; 0x4e9e <LCD_unsigned_float+0x5a>
  integer = (U32)(number + 0.5);
    4eb6:	20 e0       	ldi	r18, 0x00	; 0
    4eb8:	30 e0       	ldi	r19, 0x00	; 0
    4eba:	40 e0       	ldi	r20, 0x00	; 0
    4ebc:	5f e3       	ldi	r21, 0x3F	; 63
    4ebe:	0e 94 53 5a 	call	0xb4a6	; 0xb4a6 <__addsf3>
    4ec2:	0e 94 27 5b 	call	0xb64e	; 0xb64e <__fixunssfsi>
    4ec6:	4b 01       	movw	r8, r22
    4ec8:	5c 01       	movw	r10, r24
    4eca:	cc 24       	eor	r12, r12
    4ecc:	dd 24       	eor	r13, r13
    4ece:	d3 94       	inc	r13
    4ed0:	30 c0       	rjmp	.+96     	; 0x4f32 <LCD_unsigned_float+0xee>

  zero_flag = 0;
  digit = 1;
  while(div > 0)				// display number
    { character = integer / div;
    4ed2:	b4 01       	movw	r22, r8
    4ed4:	c5 01       	movw	r24, r10
    4ed6:	a8 01       	movw	r20, r16
    4ed8:	97 01       	movw	r18, r14
    4eda:	0e 94 3a 61 	call	0xc274	; 0xc274 <__udivmodsi4>
      if((character == 0) && (zero_flag == 0) && (digit != integral))
    4ede:	22 23       	and	r18, r18
    4ee0:	41 f4       	brne	.+16     	; 0x4ef2 <LCD_unsigned_float+0xae>
    4ee2:	cc 20       	and	r12, r12
    4ee4:	31 f4       	brne	.+12     	; 0x4ef2 <LCD_unsigned_float+0xae>
    4ee6:	d7 14       	cp	r13, r7
    4ee8:	21 f0       	breq	.+8      	; 0x4ef2 <LCD_unsigned_float+0xae>
        LCD_data(character + ' ');
    4eea:	80 e2       	ldi	r24, 0x20	; 32
    4eec:	0e 94 9f 25 	call	0x4b3e	; 0x4b3e <LCD_data>
    4ef0:	0b c0       	rjmp	.+22     	; 0x4f08 <LCD_unsigned_float+0xc4>
      else
        { zero_flag = 1;
          LCD_data(character + '0');
    4ef2:	82 2f       	mov	r24, r18
    4ef4:	80 5d       	subi	r24, 0xD0	; 208
    4ef6:	0e 94 9f 25 	call	0x4b3e	; 0x4b3e <LCD_data>
        }
      integer %= div;
      div /= 10;

      if(digit == integral)
    4efa:	d7 14       	cp	r13, r7
    4efc:	19 f4       	brne	.+6      	; 0x4f04 <LCD_unsigned_float+0xc0>
        LCD_data('.');
    4efe:	8e e2       	ldi	r24, 0x2E	; 46
    4f00:	0e 94 9f 25 	call	0x4b3e	; 0x4b3e <LCD_data>
    4f04:	cc 24       	eor	r12, r12
    4f06:	c3 94       	inc	r12
        LCD_data(character + ' ');
      else
        { zero_flag = 1;
          LCD_data(character + '0');
        }
      integer %= div;
    4f08:	b4 01       	movw	r22, r8
    4f0a:	c5 01       	movw	r24, r10
    4f0c:	a8 01       	movw	r20, r16
    4f0e:	97 01       	movw	r18, r14
    4f10:	0e 94 3a 61 	call	0xc274	; 0xc274 <__udivmodsi4>
    4f14:	4b 01       	movw	r8, r22
    4f16:	5c 01       	movw	r10, r24
      div /= 10;
    4f18:	c8 01       	movw	r24, r16
    4f1a:	b7 01       	movw	r22, r14
    4f1c:	2a e0       	ldi	r18, 0x0A	; 10
    4f1e:	30 e0       	ldi	r19, 0x00	; 0
    4f20:	40 e0       	ldi	r20, 0x00	; 0
    4f22:	50 e0       	ldi	r21, 0x00	; 0
    4f24:	0e 94 3a 61 	call	0xc274	; 0xc274 <__udivmodsi4>
    4f28:	c9 01       	movw	r24, r18
    4f2a:	da 01       	movw	r26, r20
    4f2c:	7c 01       	movw	r14, r24
    4f2e:	8d 01       	movw	r16, r26

      if(digit == integral)
        LCD_data('.');
      digit++;
    4f30:	d3 94       	inc	r13
  while(fractional--) number *= 10.;
  integer = (U32)(number + 0.5);

  zero_flag = 0;
  digit = 1;
  while(div > 0)				// display number
    4f32:	e1 14       	cp	r14, r1
    4f34:	f1 04       	cpc	r15, r1
    4f36:	01 05       	cpc	r16, r1
    4f38:	11 05       	cpc	r17, r1
    4f3a:	59 f6       	brne	.-106    	; 0x4ed2 <LCD_unsigned_float+0x8e>

      if(digit == integral)
        LCD_data('.');
      digit++;
    }
}
    4f3c:	1f 91       	pop	r17
    4f3e:	0f 91       	pop	r16
    4f40:	ff 90       	pop	r15
    4f42:	ef 90       	pop	r14
    4f44:	df 90       	pop	r13
    4f46:	cf 90       	pop	r12
    4f48:	bf 90       	pop	r11
    4f4a:	af 90       	pop	r10
    4f4c:	9f 90       	pop	r9
    4f4e:	8f 90       	pop	r8
    4f50:	7f 90       	pop	r7
    4f52:	08 95       	ret

00004f54 <LCD_signed_float>:

void LCD_signed_float(float number, U08 integral, U08 fractional) /* display signed floating-point number */
{
    4f54:	7f 92       	push	r7
    4f56:	8f 92       	push	r8
    4f58:	9f 92       	push	r9
    4f5a:	af 92       	push	r10
    4f5c:	bf 92       	push	r11
    4f5e:	cf 92       	push	r12
    4f60:	df 92       	push	r13
    4f62:	ef 92       	push	r14
    4f64:	ff 92       	push	r15
    4f66:	0f 93       	push	r16
    4f68:	1f 93       	push	r17
    4f6a:	7b 01       	movw	r14, r22
    4f6c:	8c 01       	movw	r16, r24
    4f6e:	74 2e       	mov	r7, r20
    4f70:	82 2e       	mov	r8, r18
  unsigned char zero_flag, digit, character;
  unsigned long div, integer;

  digit = integral + fractional;
  if((integral == 0) || (fractional == 0) || (digit > 9)) return;
    4f72:	44 23       	and	r20, r20
    4f74:	09 f4       	brne	.+2      	; 0x4f78 <LCD_signed_float+0x24>
    4f76:	7d c0       	rjmp	.+250    	; 0x5072 <LCD_signed_float+0x11e>
    4f78:	22 23       	and	r18, r18
    4f7a:	09 f4       	brne	.+2      	; 0x4f7e <LCD_signed_float+0x2a>
    4f7c:	7a c0       	rjmp	.+244    	; 0x5072 <LCD_signed_float+0x11e>
void LCD_signed_float(float number, U08 integral, U08 fractional) /* display signed floating-point number */
{
  unsigned char zero_flag, digit, character;
  unsigned long div, integer;

  digit = integral + fractional;
    4f7e:	92 2e       	mov	r9, r18
    4f80:	94 0e       	add	r9, r20
  if((integral == 0) || (fractional == 0) || (digit > 9)) return;
    4f82:	89 e0       	ldi	r24, 0x09	; 9
    4f84:	89 15       	cp	r24, r9
    4f86:	08 f4       	brcc	.+2      	; 0x4f8a <LCD_signed_float+0x36>
    4f88:	74 c0       	rjmp	.+232    	; 0x5072 <LCD_signed_float+0x11e>

  if(number >= 0)				// display sign
    4f8a:	c8 01       	movw	r24, r16
    4f8c:	b7 01       	movw	r22, r14
    4f8e:	20 e0       	ldi	r18, 0x00	; 0
    4f90:	30 e0       	ldi	r19, 0x00	; 0
    4f92:	40 e0       	ldi	r20, 0x00	; 0
    4f94:	50 e0       	ldi	r21, 0x00	; 0
    4f96:	0e 94 1a 5c 	call	0xb834	; 0xb834 <__gesf2>
    4f9a:	88 23       	and	r24, r24
    4f9c:	24 f0       	brlt	.+8      	; 0x4fa6 <LCD_signed_float+0x52>
    LCD_data('+');
    4f9e:	8b e2       	ldi	r24, 0x2B	; 43
    4fa0:	0e 94 9f 25 	call	0x4b3e	; 0x4b3e <LCD_data>
    4fa4:	07 c0       	rjmp	.+14     	; 0x4fb4 <LCD_signed_float+0x60>
  else
    { LCD_data('-');
    4fa6:	8d e2       	ldi	r24, 0x2D	; 45
    4fa8:	0e 94 9f 25 	call	0x4b3e	; 0x4b3e <LCD_data>
      number = -number;
    4fac:	17 fb       	bst	r17, 7
    4fae:	10 95       	com	r17
    4fb0:	17 f9       	bld	r17, 7
    4fb2:	10 95       	com	r17
    4fb4:	51 e0       	ldi	r21, 0x01	; 1
    4fb6:	a5 2e       	mov	r10, r21
    4fb8:	b1 2c       	mov	r11, r1
    4fba:	c1 2c       	mov	r12, r1
    4fbc:	d1 2c       	mov	r13, r1
    4fbe:	0a c0       	rjmp	.+20     	; 0x4fd4 <LCD_signed_float+0x80>
    }

  div = 1;
  while(--digit) div *= 10;
    4fc0:	c6 01       	movw	r24, r12
    4fc2:	b5 01       	movw	r22, r10
    4fc4:	2a e0       	ldi	r18, 0x0A	; 10
    4fc6:	30 e0       	ldi	r19, 0x00	; 0
    4fc8:	40 e0       	ldi	r20, 0x00	; 0
    4fca:	50 e0       	ldi	r21, 0x00	; 0
    4fcc:	0e 94 e8 60 	call	0xc1d0	; 0xc1d0 <__mulsi3>
    4fd0:	5b 01       	movw	r10, r22
    4fd2:	6c 01       	movw	r12, r24
    4fd4:	9a 94       	dec	r9
    4fd6:	a1 f7       	brne	.-24     	; 0x4fc0 <LCD_signed_float+0x6c>

  while(fractional--) number *= 10.;
    4fd8:	c8 01       	movw	r24, r16
    4fda:	b7 01       	movw	r22, r14
    4fdc:	20 e0       	ldi	r18, 0x00	; 0
    4fde:	30 e0       	ldi	r19, 0x00	; 0
    4fe0:	40 e2       	ldi	r20, 0x20	; 32
    4fe2:	51 e4       	ldi	r21, 0x41	; 65
    4fe4:	0e 94 1e 5c 	call	0xb83c	; 0xb83c <__mulsf3>
    4fe8:	7b 01       	movw	r14, r22
    4fea:	8c 01       	movw	r16, r24
    4fec:	8a 94       	dec	r8
    4fee:	a1 f7       	brne	.-24     	; 0x4fd8 <LCD_signed_float+0x84>
  integer = (U32)(number + 0.5);
    4ff0:	20 e0       	ldi	r18, 0x00	; 0
    4ff2:	30 e0       	ldi	r19, 0x00	; 0
    4ff4:	40 e0       	ldi	r20, 0x00	; 0
    4ff6:	5f e3       	ldi	r21, 0x3F	; 63
    4ff8:	0e 94 53 5a 	call	0xb4a6	; 0xb4a6 <__addsf3>
    4ffc:	0e 94 27 5b 	call	0xb64e	; 0xb64e <__fixunssfsi>
    5000:	4b 01       	movw	r8, r22
    5002:	7c 01       	movw	r14, r24
    5004:	11 e0       	ldi	r17, 0x01	; 1
    5006:	00 e0       	ldi	r16, 0x00	; 0
    5008:	2f c0       	rjmp	.+94     	; 0x5068 <LCD_signed_float+0x114>

  zero_flag = 0;
  digit = 1;
  while(div > 0)				// display number
    { character = integer / div;
    500a:	b4 01       	movw	r22, r8
    500c:	c7 01       	movw	r24, r14
    500e:	a6 01       	movw	r20, r12
    5010:	95 01       	movw	r18, r10
    5012:	0e 94 3a 61 	call	0xc274	; 0xc274 <__udivmodsi4>
      if((character == 0) && (zero_flag == 0) && (digit != integral))
    5016:	22 23       	and	r18, r18
    5018:	41 f4       	brne	.+16     	; 0x502a <LCD_signed_float+0xd6>
    501a:	00 23       	and	r16, r16
    501c:	31 f4       	brne	.+12     	; 0x502a <LCD_signed_float+0xd6>
    501e:	17 15       	cp	r17, r7
    5020:	21 f0       	breq	.+8      	; 0x502a <LCD_signed_float+0xd6>
        LCD_data(character + ' ');
    5022:	80 e2       	ldi	r24, 0x20	; 32
    5024:	0e 94 9f 25 	call	0x4b3e	; 0x4b3e <LCD_data>
    5028:	0a c0       	rjmp	.+20     	; 0x503e <LCD_signed_float+0xea>
      else
        { zero_flag = 1;
          LCD_data(character + '0');
    502a:	82 2f       	mov	r24, r18
    502c:	80 5d       	subi	r24, 0xD0	; 208
    502e:	0e 94 9f 25 	call	0x4b3e	; 0x4b3e <LCD_data>
        }
      integer %= div;
      div /= 10;

      if(digit == integral)
    5032:	17 15       	cp	r17, r7
    5034:	19 f4       	brne	.+6      	; 0x503c <LCD_signed_float+0xe8>
        LCD_data('.');
    5036:	8e e2       	ldi	r24, 0x2E	; 46
    5038:	0e 94 9f 25 	call	0x4b3e	; 0x4b3e <LCD_data>
    503c:	01 e0       	ldi	r16, 0x01	; 1
        LCD_data(character + ' ');
      else
        { zero_flag = 1;
          LCD_data(character + '0');
        }
      integer %= div;
    503e:	b4 01       	movw	r22, r8
    5040:	c7 01       	movw	r24, r14
    5042:	a6 01       	movw	r20, r12
    5044:	95 01       	movw	r18, r10
    5046:	0e 94 3a 61 	call	0xc274	; 0xc274 <__udivmodsi4>
    504a:	4b 01       	movw	r8, r22
    504c:	7c 01       	movw	r14, r24
      div /= 10;
    504e:	c6 01       	movw	r24, r12
    5050:	b5 01       	movw	r22, r10
    5052:	2a e0       	ldi	r18, 0x0A	; 10
    5054:	30 e0       	ldi	r19, 0x00	; 0
    5056:	40 e0       	ldi	r20, 0x00	; 0
    5058:	50 e0       	ldi	r21, 0x00	; 0
    505a:	0e 94 3a 61 	call	0xc274	; 0xc274 <__udivmodsi4>
    505e:	c9 01       	movw	r24, r18
    5060:	da 01       	movw	r26, r20
    5062:	5c 01       	movw	r10, r24
    5064:	6d 01       	movw	r12, r26

      if(digit == integral)
        LCD_data('.');
      digit++;
    5066:	1f 5f       	subi	r17, 0xFF	; 255
  while(fractional--) number *= 10.;
  integer = (U32)(number + 0.5);

  zero_flag = 0;
  digit = 1;
  while(div > 0)				// display number
    5068:	a1 14       	cp	r10, r1
    506a:	b1 04       	cpc	r11, r1
    506c:	c1 04       	cpc	r12, r1
    506e:	d1 04       	cpc	r13, r1
    5070:	61 f6       	brne	.-104    	; 0x500a <LCD_signed_float+0xb6>

      if(digit == integral)
        LCD_data('.');
      digit++;
    }
}
    5072:	1f 91       	pop	r17
    5074:	0f 91       	pop	r16
    5076:	ff 90       	pop	r15
    5078:	ef 90       	pop	r14
    507a:	df 90       	pop	r13
    507c:	cf 90       	pop	r12
    507e:	bf 90       	pop	r11
    5080:	af 90       	pop	r10
    5082:	9f 90       	pop	r9
    5084:	8f 90       	pop	r8
    5086:	7f 90       	pop	r7
    5088:	08 95       	ret

0000508a <TFT_command>:
  TFT_clear_screen();				// clear screen
}

void TFT_command(U08 IR)			/* write IR to TFT-LCD */
{
  PORTA = 0x00;					// output high byte
    508a:	1b ba       	out	0x1b, r1	; 27
  PORTC = 0x50;					// -HB = 0
    508c:	90 e5       	ldi	r25, 0x50	; 80
    508e:	95 bb       	out	0x15, r25	; 21
  PORTC = 0x58;					// -HB = 1
    5090:	28 e5       	ldi	r18, 0x58	; 88
    5092:	25 bb       	out	0x15, r18	; 21
  PORTA = IR;					// output low byte
    5094:	8b bb       	out	0x1b, r24	; 27
  PORTC = 0x18;					// -CS = RS = 0
    5096:	98 e1       	ldi	r25, 0x18	; 24
    5098:	95 bb       	out	0x15, r25	; 21
  PORTC = 0x08;					// -WR = 0
    509a:	88 e0       	ldi	r24, 0x08	; 8
    509c:	85 bb       	out	0x15, r24	; 21
  PORTC = 0x18;					// -WR = 1
    509e:	95 bb       	out	0x15, r25	; 21
  PORTC = 0x58;					// -CS = RS = 1
    50a0:	25 bb       	out	0x15, r18	; 21
}
    50a2:	08 95       	ret

000050a4 <TFT_data>:

void TFT_data(U16 data)				/* write data to TFT-LCD */
{
  PORTA = data >> 8;				// output high byte
    50a4:	9b bb       	out	0x1b, r25	; 27
  PORTC = 0x70;					// -HB = 0
    50a6:	90 e7       	ldi	r25, 0x70	; 112
    50a8:	95 bb       	out	0x15, r25	; 21
  PORTC = 0x78;					// -HB = 1
    50aa:	28 e7       	ldi	r18, 0x78	; 120
    50ac:	25 bb       	out	0x15, r18	; 21
  PORTA = data & 0x00FF;			// output low byte
    50ae:	8b bb       	out	0x1b, r24	; 27
  PORTC = 0x38;					// -CS = 0, RS = 1
    50b0:	98 e3       	ldi	r25, 0x38	; 56
    50b2:	95 bb       	out	0x15, r25	; 21
  PORTC = 0x28;					// -WR = 0
    50b4:	88 e2       	ldi	r24, 0x28	; 40
    50b6:	85 bb       	out	0x15, r24	; 21
  PORTC = 0x38;					// -WR = 1
    50b8:	95 bb       	out	0x15, r25	; 21
  PORTC = 0x78;					// -CS = RS = 1
    50ba:	25 bb       	out	0x15, r18	; 21
}
    50bc:	08 95       	ret

000050be <TFT_write>:

void TFT_write(U08 reg, U16 val)		/* write TFT-LCD register */
{
    50be:	0f 93       	push	r16
    50c0:	1f 93       	push	r17
    50c2:	8b 01       	movw	r16, r22
  TFT_command(reg);
    50c4:	0e 94 45 28 	call	0x508a	; 0x508a <TFT_command>
  TFT_data(val);
    50c8:	c8 01       	movw	r24, r16
    50ca:	0e 94 52 28 	call	0x50a4	; 0x50a4 <TFT_data>
}
    50ce:	1f 91       	pop	r17
    50d0:	0f 91       	pop	r16
    50d2:	08 95       	ret

000050d4 <TFT_GRAM_address>:
    for(j = 0; j < 240; j++)
      TFT_data(color);
}

void TFT_GRAM_address(U16 xPos, U16 yPos)	/* set GRAM address of TFT-LCD */
{
    50d4:	0f 93       	push	r16
    50d6:	1f 93       	push	r17
    50d8:	cf 93       	push	r28
    50da:	df 93       	push	r29
    50dc:	ec 01       	movw	r28, r24
    50de:	8b 01       	movw	r16, r22
  if(ScreenMode == 'P')
    50e0:	80 91 26 0b 	lds	r24, 0x0B26
    50e4:	80 35       	cpi	r24, 0x50	; 80
    50e6:	b9 f4       	brne	.+46     	; 0x5116 <TFT_GRAM_address+0x42>
    { if((xPos > 239) || (yPos > 319))
    50e8:	c0 3f       	cpi	r28, 0xF0	; 240
    50ea:	d1 05       	cpc	r29, r1
    50ec:	88 f5       	brcc	.+98     	; 0x5150 <TFT_GRAM_address+0x7c>
    50ee:	81 e0       	ldi	r24, 0x01	; 1
    50f0:	60 34       	cpi	r22, 0x40	; 64
    50f2:	78 07       	cpc	r23, r24
    50f4:	68 f5       	brcc	.+90     	; 0x5150 <TFT_GRAM_address+0x7c>
        return;
      TFT_write(0x02, 0x0000);			// xPos = 0~239
    50f6:	82 e0       	ldi	r24, 0x02	; 2
    50f8:	60 e0       	ldi	r22, 0x00	; 0
    50fa:	70 e0       	ldi	r23, 0x00	; 0
    50fc:	0e 94 5f 28 	call	0x50be	; 0x50be <TFT_write>
      TFT_write(0x03, xPos);
    5100:	83 e0       	ldi	r24, 0x03	; 3
    5102:	be 01       	movw	r22, r28
    5104:	0e 94 5f 28 	call	0x50be	; 0x50be <TFT_write>
      TFT_write(0x06, yPos >> 8);		// yPos = 0~319
    5108:	86 e0       	ldi	r24, 0x06	; 6
    510a:	61 2f       	mov	r22, r17
    510c:	70 e0       	ldi	r23, 0x00	; 0
    510e:	0e 94 5f 28 	call	0x50be	; 0x50be <TFT_write>
      TFT_write(0x07, yPos & 0x00FF);
    5112:	10 70       	andi	r17, 0x00	; 0
    5114:	16 c0       	rjmp	.+44     	; 0x5142 <TFT_GRAM_address+0x6e>
    }
  else
    { if((xPos > 319) || (yPos > 239))
    5116:	81 e0       	ldi	r24, 0x01	; 1
    5118:	c0 34       	cpi	r28, 0x40	; 64
    511a:	d8 07       	cpc	r29, r24
    511c:	c8 f4       	brcc	.+50     	; 0x5150 <TFT_GRAM_address+0x7c>
    511e:	60 3f       	cpi	r22, 0xF0	; 240
    5120:	71 05       	cpc	r23, r1
    5122:	b0 f4       	brcc	.+44     	; 0x5150 <TFT_GRAM_address+0x7c>
        return;
      TFT_write(0x02, xPos >> 8);		// xPos = 0~319
    5124:	82 e0       	ldi	r24, 0x02	; 2
    5126:	6d 2f       	mov	r22, r29
    5128:	70 e0       	ldi	r23, 0x00	; 0
    512a:	0e 94 5f 28 	call	0x50be	; 0x50be <TFT_write>
      TFT_write(0x03, xPos & 0x00FF);
    512e:	d0 70       	andi	r29, 0x00	; 0
    5130:	83 e0       	ldi	r24, 0x03	; 3
    5132:	be 01       	movw	r22, r28
    5134:	0e 94 5f 28 	call	0x50be	; 0x50be <TFT_write>
      TFT_write(0x06, 0x0000);			// yPos = 0~239
    5138:	86 e0       	ldi	r24, 0x06	; 6
    513a:	60 e0       	ldi	r22, 0x00	; 0
    513c:	70 e0       	ldi	r23, 0x00	; 0
    513e:	0e 94 5f 28 	call	0x50be	; 0x50be <TFT_write>
      TFT_write(0x07, yPos);
    5142:	87 e0       	ldi	r24, 0x07	; 7
    5144:	b8 01       	movw	r22, r16
    5146:	0e 94 5f 28 	call	0x50be	; 0x50be <TFT_write>
    }

  TFT_command(0x22);
    514a:	82 e2       	ldi	r24, 0x22	; 34
    514c:	0e 94 45 28 	call	0x508a	; 0x508a <TFT_command>
}
    5150:	df 91       	pop	r29
    5152:	cf 91       	pop	r28
    5154:	1f 91       	pop	r17
    5156:	0f 91       	pop	r16
    5158:	08 95       	ret

0000515a <TFT_color_screen>:
{
  TFT_color_screen(Black);
}

void TFT_color_screen(U16 color)		/* TFT-LCD full screen color */
{
    515a:	ef 92       	push	r14
    515c:	ff 92       	push	r15
    515e:	1f 93       	push	r17
    5160:	cf 93       	push	r28
    5162:	df 93       	push	r29
    5164:	7c 01       	movw	r14, r24
  unsigned int i;
  unsigned char j;

  TFT_GRAM_address(0,0);
    5166:	80 e0       	ldi	r24, 0x00	; 0
    5168:	90 e0       	ldi	r25, 0x00	; 0
    516a:	60 e0       	ldi	r22, 0x00	; 0
    516c:	70 e0       	ldi	r23, 0x00	; 0
    516e:	0e 94 6a 28 	call	0x50d4	; 0x50d4 <TFT_GRAM_address>
    5172:	c0 e0       	ldi	r28, 0x00	; 0
    5174:	d0 e0       	ldi	r29, 0x00	; 0
    5176:	0b c0       	rjmp	.+22     	; 0x518e <TFT_color_screen+0x34>

  for(i = 0; i < 320; i++)
    for(j = 0; j < 240; j++)
      TFT_data(color);
    5178:	c7 01       	movw	r24, r14
    517a:	0e 94 52 28 	call	0x50a4	; 0x50a4 <TFT_data>
  unsigned char j;

  TFT_GRAM_address(0,0);

  for(i = 0; i < 320; i++)
    for(j = 0; j < 240; j++)
    517e:	1f 5f       	subi	r17, 0xFF	; 255
    5180:	10 3f       	cpi	r17, 0xF0	; 240
    5182:	d1 f7       	brne	.-12     	; 0x5178 <TFT_color_screen+0x1e>
  unsigned int i;
  unsigned char j;

  TFT_GRAM_address(0,0);

  for(i = 0; i < 320; i++)
    5184:	21 96       	adiw	r28, 0x01	; 1
    5186:	81 e0       	ldi	r24, 0x01	; 1
    5188:	c0 34       	cpi	r28, 0x40	; 64
    518a:	d8 07       	cpc	r29, r24
    518c:	11 f0       	breq	.+4      	; 0x5192 <TFT_color_screen+0x38>
    518e:	10 e0       	ldi	r17, 0x00	; 0
    5190:	f3 cf       	rjmp	.-26     	; 0x5178 <TFT_color_screen+0x1e>
    for(j = 0; j < 240; j++)
      TFT_data(color);
}
    5192:	df 91       	pop	r29
    5194:	cf 91       	pop	r28
    5196:	1f 91       	pop	r17
    5198:	ff 90       	pop	r15
    519a:	ef 90       	pop	r14
    519c:	08 95       	ret

0000519e <TFT_clear_screen>:
/*		TFT-LCD   					*/
/* ---------------------------------------------------------------------------- */

void TFT_clear_screen(void)			/* TFT-LCD clear screen with black color */
{
  TFT_color_screen(Black);
    519e:	80 e0       	ldi	r24, 0x00	; 0
    51a0:	90 e0       	ldi	r25, 0x00	; 0
    51a2:	0e 94 ad 28 	call	0x515a	; 0x515a <TFT_color_screen>
}
    51a6:	08 95       	ret

000051a8 <TFT_initialize>:
/*		TFT-LCD   					*/
/* ---------------------------------------------------------------------------- */

void TFT_initialize(void)			/* initialize TFT-LCD with HX8347 */
{
  sbi(PORTC,7);					// reset TFT-LCD
    51a8:	af 9a       	sbi	0x15, 7	; 21
  Delay_ms(5);
    51aa:	85 e0       	ldi	r24, 0x05	; 5
    51ac:	90 e0       	ldi	r25, 0x00	; 0
    51ae:	0e 94 14 25 	call	0x4a28	; 0x4a28 <Delay_ms>
  cbi(PORTC,7);
    51b2:	af 98       	cbi	0x15, 7	; 21
  Delay_ms(120);
    51b4:	88 e7       	ldi	r24, 0x78	; 120
    51b6:	90 e0       	ldi	r25, 0x00	; 0
    51b8:	0e 94 14 25 	call	0x4a28	; 0x4a28 <Delay_ms>

  TFT_write(0x02, 0x0000);			// window setting
    51bc:	82 e0       	ldi	r24, 0x02	; 2
    51be:	60 e0       	ldi	r22, 0x00	; 0
    51c0:	70 e0       	ldi	r23, 0x00	; 0
    51c2:	0e 94 5f 28 	call	0x50be	; 0x50be <TFT_write>
  TFT_write(0x03, 0x0000);			// x = 0~239
    51c6:	83 e0       	ldi	r24, 0x03	; 3
    51c8:	60 e0       	ldi	r22, 0x00	; 0
    51ca:	70 e0       	ldi	r23, 0x00	; 0
    51cc:	0e 94 5f 28 	call	0x50be	; 0x50be <TFT_write>
  TFT_write(0x04, 0x0000);
    51d0:	84 e0       	ldi	r24, 0x04	; 4
    51d2:	60 e0       	ldi	r22, 0x00	; 0
    51d4:	70 e0       	ldi	r23, 0x00	; 0
    51d6:	0e 94 5f 28 	call	0x50be	; 0x50be <TFT_write>
  TFT_write(0x05, 0x00EF);
    51da:	85 e0       	ldi	r24, 0x05	; 5
    51dc:	6f ee       	ldi	r22, 0xEF	; 239
    51de:	70 e0       	ldi	r23, 0x00	; 0
    51e0:	0e 94 5f 28 	call	0x50be	; 0x50be <TFT_write>
  TFT_write(0x06, 0x0000);			// y = 0~319
    51e4:	86 e0       	ldi	r24, 0x06	; 6
    51e6:	60 e0       	ldi	r22, 0x00	; 0
    51e8:	70 e0       	ldi	r23, 0x00	; 0
    51ea:	0e 94 5f 28 	call	0x50be	; 0x50be <TFT_write>
  TFT_write(0x07, 0x0000);
    51ee:	87 e0       	ldi	r24, 0x07	; 7
    51f0:	60 e0       	ldi	r22, 0x00	; 0
    51f2:	70 e0       	ldi	r23, 0x00	; 0
    51f4:	0e 94 5f 28 	call	0x50be	; 0x50be <TFT_write>
  TFT_write(0x08, 0x0001);
    51f8:	88 e0       	ldi	r24, 0x08	; 8
    51fa:	61 e0       	ldi	r22, 0x01	; 1
    51fc:	70 e0       	ldi	r23, 0x00	; 0
    51fe:	0e 94 5f 28 	call	0x50be	; 0x50be <TFT_write>
  TFT_write(0x09, 0x003F);
    5202:	89 e0       	ldi	r24, 0x09	; 9
    5204:	6f e3       	ldi	r22, 0x3F	; 63
    5206:	70 e0       	ldi	r23, 0x00	; 0
    5208:	0e 94 5f 28 	call	0x50be	; 0x50be <TFT_write>

  TFT_write(0x01, 0x0006);			// display setting
    520c:	81 e0       	ldi	r24, 0x01	; 1
    520e:	66 e0       	ldi	r22, 0x06	; 6
    5210:	70 e0       	ldi	r23, 0x00	; 0
    5212:	0e 94 5f 28 	call	0x50be	; 0x50be <TFT_write>
  TFT_write(0x16, 0x0008);			// MV=0, MX=0, MY=0, BGR=1
    5216:	86 e1       	ldi	r24, 0x16	; 22
    5218:	68 e0       	ldi	r22, 0x08	; 8
    521a:	70 e0       	ldi	r23, 0x00	; 0
    521c:	0e 94 5f 28 	call	0x50be	; 0x50be <TFT_write>
  TFT_write(0x18, 0x0000);			// SM=0
    5220:	88 e1       	ldi	r24, 0x18	; 24
    5222:	60 e0       	ldi	r22, 0x00	; 0
    5224:	70 e0       	ldi	r23, 0x00	; 0
    5226:	0e 94 5f 28 	call	0x50be	; 0x50be <TFT_write>
  TFT_write(0x70, 0x0065);			// GS=1, SS=1, 16 bit/pixel
    522a:	80 e7       	ldi	r24, 0x70	; 112
    522c:	65 e6       	ldi	r22, 0x65	; 101
    522e:	70 e0       	ldi	r23, 0x00	; 0
    5230:	0e 94 5f 28 	call	0x50be	; 0x50be <TFT_write>
  TFT_write(0x23, 0x0095);
    5234:	83 e2       	ldi	r24, 0x23	; 35
    5236:	65 e9       	ldi	r22, 0x95	; 149
    5238:	70 e0       	ldi	r23, 0x00	; 0
    523a:	0e 94 5f 28 	call	0x50be	; 0x50be <TFT_write>
  TFT_write(0x24, 0x0095);
    523e:	84 e2       	ldi	r24, 0x24	; 36
    5240:	65 e9       	ldi	r22, 0x95	; 149
    5242:	70 e0       	ldi	r23, 0x00	; 0
    5244:	0e 94 5f 28 	call	0x50be	; 0x50be <TFT_write>
  TFT_write(0x25, 0x00FF);
    5248:	85 e2       	ldi	r24, 0x25	; 37
    524a:	6f ef       	ldi	r22, 0xFF	; 255
    524c:	70 e0       	ldi	r23, 0x00	; 0
    524e:	0e 94 5f 28 	call	0x50be	; 0x50be <TFT_write>
  TFT_write(0x27, 0x0002);
    5252:	87 e2       	ldi	r24, 0x27	; 39
    5254:	62 e0       	ldi	r22, 0x02	; 2
    5256:	70 e0       	ldi	r23, 0x00	; 0
    5258:	0e 94 5f 28 	call	0x50be	; 0x50be <TFT_write>
  TFT_write(0x28, 0x0002);
    525c:	88 e2       	ldi	r24, 0x28	; 40
    525e:	62 e0       	ldi	r22, 0x02	; 2
    5260:	70 e0       	ldi	r23, 0x00	; 0
    5262:	0e 94 5f 28 	call	0x50be	; 0x50be <TFT_write>
  TFT_write(0x29, 0x0002);
    5266:	89 e2       	ldi	r24, 0x29	; 41
    5268:	62 e0       	ldi	r22, 0x02	; 2
    526a:	70 e0       	ldi	r23, 0x00	; 0
    526c:	0e 94 5f 28 	call	0x50be	; 0x50be <TFT_write>
  TFT_write(0x2A, 0x0002);
    5270:	8a e2       	ldi	r24, 0x2A	; 42
    5272:	62 e0       	ldi	r22, 0x02	; 2
    5274:	70 e0       	ldi	r23, 0x00	; 0
    5276:	0e 94 5f 28 	call	0x50be	; 0x50be <TFT_write>
  TFT_write(0x2C, 0x0002);
    527a:	8c e2       	ldi	r24, 0x2C	; 44
    527c:	62 e0       	ldi	r22, 0x02	; 2
    527e:	70 e0       	ldi	r23, 0x00	; 0
    5280:	0e 94 5f 28 	call	0x50be	; 0x50be <TFT_write>
  TFT_write(0x2D, 0x0002);
    5284:	8d e2       	ldi	r24, 0x2D	; 45
    5286:	62 e0       	ldi	r22, 0x02	; 2
    5288:	70 e0       	ldi	r23, 0x00	; 0
    528a:	0e 94 5f 28 	call	0x50be	; 0x50be <TFT_write>
  TFT_write(0x3A, 0x0001);
    528e:	8a e3       	ldi	r24, 0x3A	; 58
    5290:	61 e0       	ldi	r22, 0x01	; 1
    5292:	70 e0       	ldi	r23, 0x00	; 0
    5294:	0e 94 5f 28 	call	0x50be	; 0x50be <TFT_write>
  TFT_write(0x3B, 0x0001);
    5298:	8b e3       	ldi	r24, 0x3B	; 59
    529a:	61 e0       	ldi	r22, 0x01	; 1
    529c:	70 e0       	ldi	r23, 0x00	; 0
    529e:	0e 94 5f 28 	call	0x50be	; 0x50be <TFT_write>
  TFT_write(0x3C, 0x00F0);
    52a2:	8c e3       	ldi	r24, 0x3C	; 60
    52a4:	60 ef       	ldi	r22, 0xF0	; 240
    52a6:	70 e0       	ldi	r23, 0x00	; 0
    52a8:	0e 94 5f 28 	call	0x50be	; 0x50be <TFT_write>
  TFT_write(0x3D, 0x0000);
    52ac:	8d e3       	ldi	r24, 0x3D	; 61
    52ae:	60 e0       	ldi	r22, 0x00	; 0
    52b0:	70 e0       	ldi	r23, 0x00	; 0
    52b2:	0e 94 5f 28 	call	0x50be	; 0x50be <TFT_write>
  Delay_ms(20);
    52b6:	84 e1       	ldi	r24, 0x14	; 20
    52b8:	90 e0       	ldi	r25, 0x00	; 0
    52ba:	0e 94 14 25 	call	0x4a28	; 0x4a28 <Delay_ms>
  TFT_write(0x35, 0x0038);
    52be:	85 e3       	ldi	r24, 0x35	; 53
    52c0:	68 e3       	ldi	r22, 0x38	; 56
    52c2:	70 e0       	ldi	r23, 0x00	; 0
    52c4:	0e 94 5f 28 	call	0x50be	; 0x50be <TFT_write>
  TFT_write(0x36, 0x0078);
    52c8:	86 e3       	ldi	r24, 0x36	; 54
    52ca:	68 e7       	ldi	r22, 0x78	; 120
    52cc:	70 e0       	ldi	r23, 0x00	; 0
    52ce:	0e 94 5f 28 	call	0x50be	; 0x50be <TFT_write>
  TFT_write(0x3E, 0x0038);
    52d2:	8e e3       	ldi	r24, 0x3E	; 62
    52d4:	68 e3       	ldi	r22, 0x38	; 56
    52d6:	70 e0       	ldi	r23, 0x00	; 0
    52d8:	0e 94 5f 28 	call	0x50be	; 0x50be <TFT_write>
  TFT_write(0x40, 0x000F);
    52dc:	80 e4       	ldi	r24, 0x40	; 64
    52de:	6f e0       	ldi	r22, 0x0F	; 15
    52e0:	70 e0       	ldi	r23, 0x00	; 0
    52e2:	0e 94 5f 28 	call	0x50be	; 0x50be <TFT_write>
  TFT_write(0x41, 0x00F0); 
    52e6:	81 e4       	ldi	r24, 0x41	; 65
    52e8:	60 ef       	ldi	r22, 0xF0	; 240
    52ea:	70 e0       	ldi	r23, 0x00	; 0
    52ec:	0e 94 5f 28 	call	0x50be	; 0x50be <TFT_write>

  TFT_write(0x19, 0x0049);			// power setting
    52f0:	89 e1       	ldi	r24, 0x19	; 25
    52f2:	69 e4       	ldi	r22, 0x49	; 73
    52f4:	70 e0       	ldi	r23, 0x00	; 0
    52f6:	0e 94 5f 28 	call	0x50be	; 0x50be <TFT_write>
  TFT_write(0x93, 0x000F);
    52fa:	83 e9       	ldi	r24, 0x93	; 147
    52fc:	6f e0       	ldi	r22, 0x0F	; 15
    52fe:	70 e0       	ldi	r23, 0x00	; 0
    5300:	0e 94 5f 28 	call	0x50be	; 0x50be <TFT_write>
  Delay_ms(10);
    5304:	8a e0       	ldi	r24, 0x0A	; 10
    5306:	90 e0       	ldi	r25, 0x00	; 0
    5308:	0e 94 14 25 	call	0x4a28	; 0x4a28 <Delay_ms>
  TFT_write(0x20, 0x0040);
    530c:	80 e2       	ldi	r24, 0x20	; 32
    530e:	60 e4       	ldi	r22, 0x40	; 64
    5310:	70 e0       	ldi	r23, 0x00	; 0
    5312:	0e 94 5f 28 	call	0x50be	; 0x50be <TFT_write>
  TFT_write(0x1D, 0x0007);
    5316:	8d e1       	ldi	r24, 0x1D	; 29
    5318:	67 e0       	ldi	r22, 0x07	; 7
    531a:	70 e0       	ldi	r23, 0x00	; 0
    531c:	0e 94 5f 28 	call	0x50be	; 0x50be <TFT_write>
  Delay_ms(10); 
    5320:	8a e0       	ldi	r24, 0x0A	; 10
    5322:	90 e0       	ldi	r25, 0x00	; 0
    5324:	0e 94 14 25 	call	0x4a28	; 0x4a28 <Delay_ms>
  TFT_write(0x1E, 0x0000);
    5328:	8e e1       	ldi	r24, 0x1E	; 30
    532a:	60 e0       	ldi	r22, 0x00	; 0
    532c:	70 e0       	ldi	r23, 0x00	; 0
    532e:	0e 94 5f 28 	call	0x50be	; 0x50be <TFT_write>
  TFT_write(0x1F, 0x0004);
    5332:	8f e1       	ldi	r24, 0x1F	; 31
    5334:	64 e0       	ldi	r22, 0x04	; 4
    5336:	70 e0       	ldi	r23, 0x00	; 0
    5338:	0e 94 5f 28 	call	0x50be	; 0x50be <TFT_write>
  TFT_write(0x44, 0x0040);			// VCom control for 3.3V
    533c:	84 e4       	ldi	r24, 0x44	; 68
    533e:	60 e4       	ldi	r22, 0x40	; 64
    5340:	70 e0       	ldi	r23, 0x00	; 0
    5342:	0e 94 5f 28 	call	0x50be	; 0x50be <TFT_write>
  TFT_write(0x45, 0x0012);
    5346:	85 e4       	ldi	r24, 0x45	; 69
    5348:	62 e1       	ldi	r22, 0x12	; 18
    534a:	70 e0       	ldi	r23, 0x00	; 0
    534c:	0e 94 5f 28 	call	0x50be	; 0x50be <TFT_write>
  Delay_ms(10); 
    5350:	8a e0       	ldi	r24, 0x0A	; 10
    5352:	90 e0       	ldi	r25, 0x00	; 0
    5354:	0e 94 14 25 	call	0x4a28	; 0x4a28 <Delay_ms>
  TFT_write(0x1C, 0x0004);
    5358:	8c e1       	ldi	r24, 0x1C	; 28
    535a:	64 e0       	ldi	r22, 0x04	; 4
    535c:	70 e0       	ldi	r23, 0x00	; 0
    535e:	0e 94 5f 28 	call	0x50be	; 0x50be <TFT_write>
  Delay_ms(20);
    5362:	84 e1       	ldi	r24, 0x14	; 20
    5364:	90 e0       	ldi	r25, 0x00	; 0
    5366:	0e 94 14 25 	call	0x4a28	; 0x4a28 <Delay_ms>
  TFT_write(0x43, 0x0080);  
    536a:	83 e4       	ldi	r24, 0x43	; 67
    536c:	60 e8       	ldi	r22, 0x80	; 128
    536e:	70 e0       	ldi	r23, 0x00	; 0
    5370:	0e 94 5f 28 	call	0x50be	; 0x50be <TFT_write>
  Delay_ms(5);
    5374:	85 e0       	ldi	r24, 0x05	; 5
    5376:	90 e0       	ldi	r25, 0x00	; 0
    5378:	0e 94 14 25 	call	0x4a28	; 0x4a28 <Delay_ms>
  TFT_write(0x1B, 0x0018);    
    537c:	8b e1       	ldi	r24, 0x1B	; 27
    537e:	68 e1       	ldi	r22, 0x18	; 24
    5380:	70 e0       	ldi	r23, 0x00	; 0
    5382:	0e 94 5f 28 	call	0x50be	; 0x50be <TFT_write>
  Delay_ms(40); 
    5386:	88 e2       	ldi	r24, 0x28	; 40
    5388:	90 e0       	ldi	r25, 0x00	; 0
    538a:	0e 94 14 25 	call	0x4a28	; 0x4a28 <Delay_ms>
  TFT_write(0x1B, 0x0010);      
    538e:	8b e1       	ldi	r24, 0x1B	; 27
    5390:	60 e1       	ldi	r22, 0x10	; 16
    5392:	70 e0       	ldi	r23, 0x00	; 0
    5394:	0e 94 5f 28 	call	0x50be	; 0x50be <TFT_write>
  Delay_ms(40);
    5398:	88 e2       	ldi	r24, 0x28	; 40
    539a:	90 e0       	ldi	r25, 0x00	; 0
    539c:	0e 94 14 25 	call	0x4a28	; 0x4a28 <Delay_ms>

  TFT_write(0x46, 0x00A4);			// gamma setting 
    53a0:	86 e4       	ldi	r24, 0x46	; 70
    53a2:	64 ea       	ldi	r22, 0xA4	; 164
    53a4:	70 e0       	ldi	r23, 0x00	; 0
    53a6:	0e 94 5f 28 	call	0x50be	; 0x50be <TFT_write>
  TFT_write(0x47, 0x0053);
    53aa:	87 e4       	ldi	r24, 0x47	; 71
    53ac:	63 e5       	ldi	r22, 0x53	; 83
    53ae:	70 e0       	ldi	r23, 0x00	; 0
    53b0:	0e 94 5f 28 	call	0x50be	; 0x50be <TFT_write>
  TFT_write(0x48, 0x0010);
    53b4:	88 e4       	ldi	r24, 0x48	; 72
    53b6:	60 e1       	ldi	r22, 0x10	; 16
    53b8:	70 e0       	ldi	r23, 0x00	; 0
    53ba:	0e 94 5f 28 	call	0x50be	; 0x50be <TFT_write>
  TFT_write(0x49, 0x005F);
    53be:	89 e4       	ldi	r24, 0x49	; 73
    53c0:	6f e5       	ldi	r22, 0x5F	; 95
    53c2:	70 e0       	ldi	r23, 0x00	; 0
    53c4:	0e 94 5f 28 	call	0x50be	; 0x50be <TFT_write>
  TFT_write(0x4A, 0x0004);
    53c8:	8a e4       	ldi	r24, 0x4A	; 74
    53ca:	64 e0       	ldi	r22, 0x04	; 4
    53cc:	70 e0       	ldi	r23, 0x00	; 0
    53ce:	0e 94 5f 28 	call	0x50be	; 0x50be <TFT_write>
  TFT_write(0x4B, 0x003F);
    53d2:	8b e4       	ldi	r24, 0x4B	; 75
    53d4:	6f e3       	ldi	r22, 0x3F	; 63
    53d6:	70 e0       	ldi	r23, 0x00	; 0
    53d8:	0e 94 5f 28 	call	0x50be	; 0x50be <TFT_write>
  TFT_write(0x4C, 0x0002);
    53dc:	8c e4       	ldi	r24, 0x4C	; 76
    53de:	62 e0       	ldi	r22, 0x02	; 2
    53e0:	70 e0       	ldi	r23, 0x00	; 0
    53e2:	0e 94 5f 28 	call	0x50be	; 0x50be <TFT_write>
  TFT_write(0x4D, 0x00F6);
    53e6:	8d e4       	ldi	r24, 0x4D	; 77
    53e8:	66 ef       	ldi	r22, 0xF6	; 246
    53ea:	70 e0       	ldi	r23, 0x00	; 0
    53ec:	0e 94 5f 28 	call	0x50be	; 0x50be <TFT_write>
  TFT_write(0x4E, 0x0012);
    53f0:	8e e4       	ldi	r24, 0x4E	; 78
    53f2:	62 e1       	ldi	r22, 0x12	; 18
    53f4:	70 e0       	ldi	r23, 0x00	; 0
    53f6:	0e 94 5f 28 	call	0x50be	; 0x50be <TFT_write>
  TFT_write(0x4F, 0x004C);
    53fa:	8f e4       	ldi	r24, 0x4F	; 79
    53fc:	6c e4       	ldi	r22, 0x4C	; 76
    53fe:	70 e0       	ldi	r23, 0x00	; 0
    5400:	0e 94 5f 28 	call	0x50be	; 0x50be <TFT_write>
  TFT_write(0x50, 0x0046);
    5404:	80 e5       	ldi	r24, 0x50	; 80
    5406:	66 e4       	ldi	r22, 0x46	; 70
    5408:	70 e0       	ldi	r23, 0x00	; 0
    540a:	0e 94 5f 28 	call	0x50be	; 0x50be <TFT_write>
  TFT_write(0x51, 0x0044);
    540e:	81 e5       	ldi	r24, 0x51	; 81
    5410:	64 e4       	ldi	r22, 0x44	; 68
    5412:	70 e0       	ldi	r23, 0x00	; 0
    5414:	0e 94 5f 28 	call	0x50be	; 0x50be <TFT_write>

  TFT_write(0x90, 0x007F);			// display on setting
    5418:	80 e9       	ldi	r24, 0x90	; 144
    541a:	6f e7       	ldi	r22, 0x7F	; 127
    541c:	70 e0       	ldi	r23, 0x00	; 0
    541e:	0e 94 5f 28 	call	0x50be	; 0x50be <TFT_write>
  TFT_write(0x26, 0x0004);
    5422:	86 e2       	ldi	r24, 0x26	; 38
    5424:	64 e0       	ldi	r22, 0x04	; 4
    5426:	70 e0       	ldi	r23, 0x00	; 0
    5428:	0e 94 5f 28 	call	0x50be	; 0x50be <TFT_write>
  Delay_ms(40);
    542c:	88 e2       	ldi	r24, 0x28	; 40
    542e:	90 e0       	ldi	r25, 0x00	; 0
    5430:	0e 94 14 25 	call	0x4a28	; 0x4a28 <Delay_ms>
  TFT_write(0x26, 0x0024);
    5434:	86 e2       	ldi	r24, 0x26	; 38
    5436:	64 e2       	ldi	r22, 0x24	; 36
    5438:	70 e0       	ldi	r23, 0x00	; 0
    543a:	0e 94 5f 28 	call	0x50be	; 0x50be <TFT_write>
  TFT_write(0x26, 0x002C);
    543e:	86 e2       	ldi	r24, 0x26	; 38
    5440:	6c e2       	ldi	r22, 0x2C	; 44
    5442:	70 e0       	ldi	r23, 0x00	; 0
    5444:	0e 94 5f 28 	call	0x50be	; 0x50be <TFT_write>
  Delay_ms(40); 
    5448:	88 e2       	ldi	r24, 0x28	; 40
    544a:	90 e0       	ldi	r25, 0x00	; 0
    544c:	0e 94 14 25 	call	0x4a28	; 0x4a28 <Delay_ms>
  TFT_write(0x26, 0x003C);
    5450:	86 e2       	ldi	r24, 0x26	; 38
    5452:	6c e3       	ldi	r22, 0x3C	; 60
    5454:	70 e0       	ldi	r23, 0x00	; 0
    5456:	0e 94 5f 28 	call	0x50be	; 0x50be <TFT_write>

  TFT_write(0x57, 0x0002);			// internal VDDD setting
    545a:	87 e5       	ldi	r24, 0x57	; 87
    545c:	62 e0       	ldi	r22, 0x02	; 2
    545e:	70 e0       	ldi	r23, 0x00	; 0
    5460:	0e 94 5f 28 	call	0x50be	; 0x50be <TFT_write>
  TFT_write(0x55, 0x0000);
    5464:	85 e5       	ldi	r24, 0x55	; 85
    5466:	60 e0       	ldi	r22, 0x00	; 0
    5468:	70 e0       	ldi	r23, 0x00	; 0
    546a:	0e 94 5f 28 	call	0x50be	; 0x50be <TFT_write>
  TFT_write(0xFE, 0x005A);
    546e:	8e ef       	ldi	r24, 0xFE	; 254
    5470:	6a e5       	ldi	r22, 0x5A	; 90
    5472:	70 e0       	ldi	r23, 0x00	; 0
    5474:	0e 94 5f 28 	call	0x50be	; 0x50be <TFT_write>
  TFT_write(0x57, 0x0000);
    5478:	87 e5       	ldi	r24, 0x57	; 87
    547a:	60 e0       	ldi	r22, 0x00	; 0
    547c:	70 e0       	ldi	r23, 0x00	; 0
    547e:	0e 94 5f 28 	call	0x50be	; 0x50be <TFT_write>

  TFT_clear_screen();				// clear screen
    5482:	0e 94 cf 28 	call	0x519e	; 0x519e <TFT_clear_screen>
}
    5486:	08 95       	ret

00005488 <TFT_xy>:
  TFT_command(0x22);
}

void TFT_xy(U08 xChar, U08 yChar)		/* set character position (x,y) */
{
  Xcharacter = xChar;
    5488:	80 93 3c 0c 	sts	0x0C3C, r24
  Ycharacter = yChar;
    548c:	60 93 45 0b 	sts	0x0B45, r22
}
    5490:	08 95       	ret

00005492 <TFT_color>:

void TFT_color(U16 colorfore, U16 colorback)	/* set foreground and background color */
{
  foreground = colorfore;
    5492:	90 93 50 0b 	sts	0x0B50, r25
    5496:	80 93 4f 0b 	sts	0x0B4F, r24
  background = colorback;
    549a:	70 93 56 0b 	sts	0x0B56, r23
    549e:	60 93 55 0b 	sts	0x0B55, r22
}
    54a2:	08 95       	ret

000054a4 <TFT_pixel>:

void TFT_pixel(U16 xPos, U16 yPos, U16 color)	/* write a pixel */
{
    54a4:	ef 92       	push	r14
    54a6:	ff 92       	push	r15
    54a8:	0f 93       	push	r16
    54aa:	1f 93       	push	r17
    54ac:	cf 93       	push	r28
    54ae:	df 93       	push	r29
    54b0:	ec 01       	movw	r28, r24
    54b2:	8b 01       	movw	r16, r22
    54b4:	7a 01       	movw	r14, r20
  if(ScreenMode == 'P')
    54b6:	80 91 26 0b 	lds	r24, 0x0B26
    54ba:	80 35       	cpi	r24, 0x50	; 80
    54bc:	b9 f4       	brne	.+46     	; 0x54ec <TFT_pixel+0x48>
    { if((xPos > 239) || (yPos > 319))
    54be:	c0 3f       	cpi	r28, 0xF0	; 240
    54c0:	d1 05       	cpc	r29, r1
    54c2:	b8 f5       	brcc	.+110    	; 0x5532 <TFT_pixel+0x8e>
    54c4:	81 e0       	ldi	r24, 0x01	; 1
    54c6:	60 34       	cpi	r22, 0x40	; 64
    54c8:	78 07       	cpc	r23, r24
    54ca:	98 f5       	brcc	.+102    	; 0x5532 <TFT_pixel+0x8e>
        return;
      TFT_write(0x02, 0x0000);			// xPos = 0~239
    54cc:	82 e0       	ldi	r24, 0x02	; 2
    54ce:	60 e0       	ldi	r22, 0x00	; 0
    54d0:	70 e0       	ldi	r23, 0x00	; 0
    54d2:	0e 94 5f 28 	call	0x50be	; 0x50be <TFT_write>
      TFT_write(0x03, xPos);
    54d6:	83 e0       	ldi	r24, 0x03	; 3
    54d8:	be 01       	movw	r22, r28
    54da:	0e 94 5f 28 	call	0x50be	; 0x50be <TFT_write>
      TFT_write(0x06, yPos >> 8);		// yPos = 0~319
    54de:	86 e0       	ldi	r24, 0x06	; 6
    54e0:	61 2f       	mov	r22, r17
    54e2:	70 e0       	ldi	r23, 0x00	; 0
    54e4:	0e 94 5f 28 	call	0x50be	; 0x50be <TFT_write>
      TFT_write(0x07, yPos & 0x00FF);
    54e8:	10 70       	andi	r17, 0x00	; 0
    54ea:	16 c0       	rjmp	.+44     	; 0x5518 <TFT_pixel+0x74>
    }
  else
    { if((xPos > 319) || (yPos > 239))
    54ec:	81 e0       	ldi	r24, 0x01	; 1
    54ee:	c0 34       	cpi	r28, 0x40	; 64
    54f0:	d8 07       	cpc	r29, r24
    54f2:	f8 f4       	brcc	.+62     	; 0x5532 <TFT_pixel+0x8e>
    54f4:	60 3f       	cpi	r22, 0xF0	; 240
    54f6:	71 05       	cpc	r23, r1
    54f8:	e0 f4       	brcc	.+56     	; 0x5532 <TFT_pixel+0x8e>
        return;
      TFT_write(0x02, xPos >> 8);		// xPos = 0~319
    54fa:	82 e0       	ldi	r24, 0x02	; 2
    54fc:	6d 2f       	mov	r22, r29
    54fe:	70 e0       	ldi	r23, 0x00	; 0
    5500:	0e 94 5f 28 	call	0x50be	; 0x50be <TFT_write>
      TFT_write(0x03, xPos & 0x00FF);
    5504:	d0 70       	andi	r29, 0x00	; 0
    5506:	83 e0       	ldi	r24, 0x03	; 3
    5508:	be 01       	movw	r22, r28
    550a:	0e 94 5f 28 	call	0x50be	; 0x50be <TFT_write>
      TFT_write(0x06, 0x0000);			// yPos = 0~239
    550e:	86 e0       	ldi	r24, 0x06	; 6
    5510:	60 e0       	ldi	r22, 0x00	; 0
    5512:	70 e0       	ldi	r23, 0x00	; 0
    5514:	0e 94 5f 28 	call	0x50be	; 0x50be <TFT_write>
      TFT_write(0x07, yPos);
    5518:	87 e0       	ldi	r24, 0x07	; 7
    551a:	b8 01       	movw	r22, r16
    551c:	0e 94 5f 28 	call	0x50be	; 0x50be <TFT_write>
    }

  if(color != Transparent)			// transparent mode ?
    5520:	81 e2       	ldi	r24, 0x21	; 33
    5522:	e8 16       	cp	r14, r24
    5524:	88 e0       	ldi	r24, 0x08	; 8
    5526:	f8 06       	cpc	r15, r24
    5528:	21 f0       	breq	.+8      	; 0x5532 <TFT_pixel+0x8e>
    TFT_write(0x22, color);
    552a:	82 e2       	ldi	r24, 0x22	; 34
    552c:	b7 01       	movw	r22, r14
    552e:	0e 94 5f 28 	call	0x50be	; 0x50be <TFT_write>
}
    5532:	df 91       	pop	r29
    5534:	cf 91       	pop	r28
    5536:	1f 91       	pop	r17
    5538:	0f 91       	pop	r16
    553a:	ff 90       	pop	r15
    553c:	ef 90       	pop	r14
    553e:	08 95       	ret

00005540 <TFT_portrait>:
/*		TFT-LCD    					*/
/* ---------------------------------------------------------------------------- */

void TFT_portrait(void)				/* set portrait mode */
{
  TFT_write(0x16, 0x0008);			// MV=0, MX=0, MY=0, BGR=1
    5540:	86 e1       	ldi	r24, 0x16	; 22
    5542:	68 e0       	ldi	r22, 0x08	; 8
    5544:	70 e0       	ldi	r23, 0x00	; 0
    5546:	0e 94 5f 28 	call	0x50be	; 0x50be <TFT_write>

  TFT_write(0x02, 0x0000);			// x = 0~239
    554a:	82 e0       	ldi	r24, 0x02	; 2
    554c:	60 e0       	ldi	r22, 0x00	; 0
    554e:	70 e0       	ldi	r23, 0x00	; 0
    5550:	0e 94 5f 28 	call	0x50be	; 0x50be <TFT_write>
  TFT_write(0x03, 0x0000);
    5554:	83 e0       	ldi	r24, 0x03	; 3
    5556:	60 e0       	ldi	r22, 0x00	; 0
    5558:	70 e0       	ldi	r23, 0x00	; 0
    555a:	0e 94 5f 28 	call	0x50be	; 0x50be <TFT_write>
  TFT_write(0x04, 0x0000);
    555e:	84 e0       	ldi	r24, 0x04	; 4
    5560:	60 e0       	ldi	r22, 0x00	; 0
    5562:	70 e0       	ldi	r23, 0x00	; 0
    5564:	0e 94 5f 28 	call	0x50be	; 0x50be <TFT_write>
  TFT_write(0x05, 0x00EF);
    5568:	85 e0       	ldi	r24, 0x05	; 5
    556a:	6f ee       	ldi	r22, 0xEF	; 239
    556c:	70 e0       	ldi	r23, 0x00	; 0
    556e:	0e 94 5f 28 	call	0x50be	; 0x50be <TFT_write>
  TFT_write(0x06, 0x0000);			// y = 0~319
    5572:	86 e0       	ldi	r24, 0x06	; 6
    5574:	60 e0       	ldi	r22, 0x00	; 0
    5576:	70 e0       	ldi	r23, 0x00	; 0
    5578:	0e 94 5f 28 	call	0x50be	; 0x50be <TFT_write>
  TFT_write(0x07, 0x0000);
    557c:	87 e0       	ldi	r24, 0x07	; 7
    557e:	60 e0       	ldi	r22, 0x00	; 0
    5580:	70 e0       	ldi	r23, 0x00	; 0
    5582:	0e 94 5f 28 	call	0x50be	; 0x50be <TFT_write>
  TFT_write(0x08, 0x0001);
    5586:	88 e0       	ldi	r24, 0x08	; 8
    5588:	61 e0       	ldi	r22, 0x01	; 1
    558a:	70 e0       	ldi	r23, 0x00	; 0
    558c:	0e 94 5f 28 	call	0x50be	; 0x50be <TFT_write>
  TFT_write(0x09, 0x003F);
    5590:	89 e0       	ldi	r24, 0x09	; 9
    5592:	6f e3       	ldi	r22, 0x3F	; 63
    5594:	70 e0       	ldi	r23, 0x00	; 0
    5596:	0e 94 5f 28 	call	0x50be	; 0x50be <TFT_write>

  XcharacterLimit = 30;				// 30x40 character unit
    559a:	8e e1       	ldi	r24, 0x1E	; 30
    559c:	80 93 27 0b 	sts	0x0B27, r24
  YcharacterLimit = 40;
    55a0:	88 e2       	ldi	r24, 0x28	; 40
    55a2:	80 93 28 0b 	sts	0x0B28, r24
  ScreenMode = 'P';
    55a6:	80 e5       	ldi	r24, 0x50	; 80
    55a8:	80 93 26 0b 	sts	0x0B26, r24
}
    55ac:	08 95       	ret

000055ae <TFT_landscape>:

void TFT_landscape(void)			/* set landscape mode */
{
  TFT_write(0x16, 0x0068);			// MV=1, MX=1, MY=0, BGR=1
    55ae:	86 e1       	ldi	r24, 0x16	; 22
    55b0:	68 e6       	ldi	r22, 0x68	; 104
    55b2:	70 e0       	ldi	r23, 0x00	; 0
    55b4:	0e 94 5f 28 	call	0x50be	; 0x50be <TFT_write>

  TFT_write(0x02, 0x0000);			// x = 0~319
    55b8:	82 e0       	ldi	r24, 0x02	; 2
    55ba:	60 e0       	ldi	r22, 0x00	; 0
    55bc:	70 e0       	ldi	r23, 0x00	; 0
    55be:	0e 94 5f 28 	call	0x50be	; 0x50be <TFT_write>
  TFT_write(0x03, 0x0000);
    55c2:	83 e0       	ldi	r24, 0x03	; 3
    55c4:	60 e0       	ldi	r22, 0x00	; 0
    55c6:	70 e0       	ldi	r23, 0x00	; 0
    55c8:	0e 94 5f 28 	call	0x50be	; 0x50be <TFT_write>
  TFT_write(0x04, 0x0001);
    55cc:	84 e0       	ldi	r24, 0x04	; 4
    55ce:	61 e0       	ldi	r22, 0x01	; 1
    55d0:	70 e0       	ldi	r23, 0x00	; 0
    55d2:	0e 94 5f 28 	call	0x50be	; 0x50be <TFT_write>
  TFT_write(0x05, 0x003F);
    55d6:	85 e0       	ldi	r24, 0x05	; 5
    55d8:	6f e3       	ldi	r22, 0x3F	; 63
    55da:	70 e0       	ldi	r23, 0x00	; 0
    55dc:	0e 94 5f 28 	call	0x50be	; 0x50be <TFT_write>
  TFT_write(0x06, 0x0000);			// y = 0~239
    55e0:	86 e0       	ldi	r24, 0x06	; 6
    55e2:	60 e0       	ldi	r22, 0x00	; 0
    55e4:	70 e0       	ldi	r23, 0x00	; 0
    55e6:	0e 94 5f 28 	call	0x50be	; 0x50be <TFT_write>
  TFT_write(0x07, 0x0000);
    55ea:	87 e0       	ldi	r24, 0x07	; 7
    55ec:	60 e0       	ldi	r22, 0x00	; 0
    55ee:	70 e0       	ldi	r23, 0x00	; 0
    55f0:	0e 94 5f 28 	call	0x50be	; 0x50be <TFT_write>
  TFT_write(0x08, 0x0000);
    55f4:	88 e0       	ldi	r24, 0x08	; 8
    55f6:	60 e0       	ldi	r22, 0x00	; 0
    55f8:	70 e0       	ldi	r23, 0x00	; 0
    55fa:	0e 94 5f 28 	call	0x50be	; 0x50be <TFT_write>
  TFT_write(0x09, 0x00EF);
    55fe:	89 e0       	ldi	r24, 0x09	; 9
    5600:	6f ee       	ldi	r22, 0xEF	; 239
    5602:	70 e0       	ldi	r23, 0x00	; 0
    5604:	0e 94 5f 28 	call	0x50be	; 0x50be <TFT_write>

  XcharacterLimit = 40;				// 40x30 character unit
    5608:	88 e2       	ldi	r24, 0x28	; 40
    560a:	80 93 27 0b 	sts	0x0B27, r24
  YcharacterLimit = 30;
    560e:	8e e1       	ldi	r24, 0x1E	; 30
    5610:	80 93 28 0b 	sts	0x0B28, r24
  ScreenMode = 'L';
    5614:	8c e4       	ldi	r24, 0x4C	; 76
    5616:	80 93 26 0b 	sts	0x0B26, r24
}
    561a:	08 95       	ret

0000561c <TFT_cursor>:

void TFT_cursor(U16 cursor_color)		/* set cursor and color */
{
    561c:	9c 01       	movw	r18, r24
  if(cursor_color == Transparent)		// disable cursor
    561e:	88 e0       	ldi	r24, 0x08	; 8
    5620:	21 32       	cpi	r18, 0x21	; 33
    5622:	38 07       	cpc	r19, r24
    5624:	19 f4       	brne	.+6      	; 0x562c <TFT_cursor+0x10>
    cursor_flag = 0;
    5626:	10 92 3f 0b 	sts	0x0B3F, r1
    562a:	08 95       	ret
  else						// enable cursor
    { cursor_flag = 1;
    562c:	81 e0       	ldi	r24, 0x01	; 1
    562e:	80 93 3f 0b 	sts	0x0B3F, r24
      cursor = cursor_color;
    5632:	30 93 30 0c 	sts	0x0C30, r19
    5636:	20 93 2f 0c 	sts	0x0C2F, r18
    563a:	08 95       	ret

0000563c <TFT_underscore>:
    }
}

void TFT_underscore(U16 underscore_color)	/* set underscore and color */
{
    563c:	9c 01       	movw	r18, r24
  if(underscore_color == Transparent)		// disable underscore
    563e:	88 e0       	ldi	r24, 0x08	; 8
    5640:	21 32       	cpi	r18, 0x21	; 33
    5642:	38 07       	cpc	r19, r24
    5644:	19 f4       	brne	.+6      	; 0x564c <TFT_underscore+0x10>
    underscore_flag = 0;
    5646:	10 92 40 0b 	sts	0x0B40, r1
    564a:	08 95       	ret
  else						// enable underscore
    { underscore_flag = 1;
    564c:	81 e0       	ldi	r24, 0x01	; 1
    564e:	80 93 40 0b 	sts	0x0B40, r24
      underscore = underscore_color;
    5652:	30 93 52 0c 	sts	0x0C52, r19
    5656:	20 93 51 0c 	sts	0x0C51, r18
    565a:	08 95       	ret

0000565c <TFT_outline>:
    }
}

void TFT_outline(U16 outline_color)		/* set outline and color */
{
    565c:	9c 01       	movw	r18, r24
  if(outline_color == Transparent)		// disable outline
    565e:	88 e0       	ldi	r24, 0x08	; 8
    5660:	21 32       	cpi	r18, 0x21	; 33
    5662:	38 07       	cpc	r19, r24
    5664:	19 f4       	brne	.+6      	; 0x566c <TFT_outline+0x10>
    outline_flag = 0;
    5666:	10 92 41 0b 	sts	0x0B41, r1
    566a:	08 95       	ret
  else						// enable outline
    { outline_flag = 1;
    566c:	81 e0       	ldi	r24, 0x01	; 1
    566e:	80 93 41 0b 	sts	0x0B41, r24
      outline = outline_color;
    5672:	30 93 37 0c 	sts	0x0C37, r19
    5676:	20 93 36 0c 	sts	0x0C36, r18
    567a:	08 95       	ret

0000567c <TFT_English>:
	}
   }
}

void TFT_English(U08 code)			/* write a English ASCII character */
{
    567c:	2f 92       	push	r2
    567e:	3f 92       	push	r3
    5680:	5f 92       	push	r5
    5682:	6f 92       	push	r6
    5684:	7f 92       	push	r7
    5686:	8f 92       	push	r8
    5688:	9f 92       	push	r9
    568a:	af 92       	push	r10
    568c:	bf 92       	push	r11
    568e:	cf 92       	push	r12
    5690:	df 92       	push	r13
    5692:	ef 92       	push	r14
    5694:	ff 92       	push	r15
    5696:	0f 93       	push	r16
    5698:	1f 93       	push	r17
    569a:	df 93       	push	r29
    569c:	cf 93       	push	r28
    569e:	cd b7       	in	r28, 0x3d	; 61
    56a0:	de b7       	in	r29, 0x3e	; 62
    56a2:	c2 50       	subi	r28, 0x02	; 2
    56a4:	d1 40       	sbci	r29, 0x01	; 1
    56a6:	0f b6       	in	r0, 0x3f	; 63
    56a8:	f8 94       	cli
    56aa:	de bf       	out	0x3e, r29	; 62
    56ac:	0f be       	out	0x3f, r0	; 63
    56ae:	cd bf       	out	0x3d, r28	; 61
  unsigned char data, x, y;
  unsigned int pixel[8][16];
  unsigned int dot0, dot1, dot2, dot3, dot4;

  for(x = 0; x < 8; x++)			// read English ASCII font
    { data = pgm_read_byte(&E_font[code][x]);
    56b0:	08 2f       	mov	r16, r24
    56b2:	10 e0       	ldi	r17, 0x00	; 0
      for(y = 0; y < 8; y++)
        { if(data & 0x01) pixel[x][y] = foreground;
    56b4:	c0 90 4f 0b 	lds	r12, 0x0B4F
    56b8:	d0 90 50 0b 	lds	r13, 0x0B50
	  else            pixel[x][y] = background;
    56bc:	e0 90 55 0b 	lds	r14, 0x0B55
    56c0:	f0 90 56 0b 	lds	r15, 0x0B56
	}
   }
}

void TFT_English(U08 code)			/* write a English ASCII character */
{
    56c4:	98 01       	movw	r18, r16
    56c6:	44 e0       	ldi	r20, 0x04	; 4
    56c8:	22 0f       	add	r18, r18
    56ca:	33 1f       	adc	r19, r19
    56cc:	4a 95       	dec	r20
    56ce:	e1 f7       	brne	.-8      	; 0x56c8 <TFT_English+0x4c>
    56d0:	27 56       	subi	r18, 0x67	; 103
    56d2:	3f 4b       	sbci	r19, 0xBF	; 191
    56d4:	de 01       	movw	r26, r28
    56d6:	51 96       	adiw	r26, 0x11	; 17
    56d8:	b9 01       	movw	r22, r18
    56da:	40 e0       	ldi	r20, 0x00	; 0
    56dc:	50 e0       	ldi	r21, 0x00	; 0
  unsigned char data, x, y;
  unsigned int pixel[8][16];
  unsigned int dot0, dot1, dot2, dot3, dot4;

  for(x = 0; x < 8; x++)			// read English ASCII font
    { data = pgm_read_byte(&E_font[code][x]);
    56de:	5e 01       	movw	r10, r28
    56e0:	08 94       	sec
    56e2:	a1 1c       	adc	r10, r1
    56e4:	b1 1c       	adc	r11, r1
    56e6:	fb 01       	movw	r30, r22
    56e8:	84 91       	lpm	r24, Z+
    56ea:	fa 01       	movw	r30, r20
    56ec:	95 e0       	ldi	r25, 0x05	; 5
    56ee:	ee 0f       	add	r30, r30
    56f0:	ff 1f       	adc	r31, r31
    56f2:	9a 95       	dec	r25
    56f4:	e1 f7       	brne	.-8      	; 0x56ee <TFT_English+0x72>
    56f6:	ea 0d       	add	r30, r10
    56f8:	fb 1d       	adc	r31, r11
      for(y = 0; y < 8; y++)
        { if(data & 0x01) pixel[x][y] = foreground;
    56fa:	80 ff       	sbrs	r24, 0
    56fc:	03 c0       	rjmp	.+6      	; 0x5704 <TFT_English+0x88>
    56fe:	d1 82       	std	Z+1, r13	; 0x01
    5700:	c0 82       	st	Z, r12
    5702:	02 c0       	rjmp	.+4      	; 0x5708 <TFT_English+0x8c>
	  else            pixel[x][y] = background;
    5704:	f1 82       	std	Z+1, r15	; 0x01
    5706:	e0 82       	st	Z, r14
    5708:	32 96       	adiw	r30, 0x02	; 2
  unsigned int pixel[8][16];
  unsigned int dot0, dot1, dot2, dot3, dot4;

  for(x = 0; x < 8; x++)			// read English ASCII font
    { data = pgm_read_byte(&E_font[code][x]);
      for(y = 0; y < 8; y++)
    570a:	ea 17       	cp	r30, r26
    570c:	fb 07       	cpc	r31, r27
    570e:	11 f0       	breq	.+4      	; 0x5714 <TFT_English+0x98>
        { if(data & 0x01) pixel[x][y] = foreground;
	  else            pixel[x][y] = background;
	  data = data >> 1;
    5710:	86 95       	lsr	r24
    5712:	f3 cf       	rjmp	.-26     	; 0x56fa <TFT_English+0x7e>
    5714:	4f 5f       	subi	r20, 0xFF	; 255
    5716:	5f 4f       	sbci	r21, 0xFF	; 255
    5718:	6f 5f       	subi	r22, 0xFF	; 255
    571a:	7f 4f       	sbci	r23, 0xFF	; 255
    571c:	df 01       	movw	r26, r30
    571e:	90 96       	adiw	r26, 0x20	; 32
{
  unsigned char data, x, y;
  unsigned int pixel[8][16];
  unsigned int dot0, dot1, dot2, dot3, dot4;

  for(x = 0; x < 8; x++)			// read English ASCII font
    5720:	48 30       	cpi	r20, 0x08	; 8
    5722:	51 05       	cpc	r21, r1
    5724:	01 f7       	brne	.-64     	; 0x56e6 <TFT_English+0x6a>
    5726:	38 01       	movw	r6, r16
    5728:	54 e0       	ldi	r21, 0x04	; 4
    572a:	66 0c       	add	r6, r6
    572c:	77 1c       	adc	r7, r7
    572e:	5a 95       	dec	r21
    5730:	e1 f7       	brne	.-8      	; 0x572a <TFT_English+0xae>
    5732:	81 ea       	ldi	r24, 0xA1	; 161
    5734:	90 e4       	ldi	r25, 0x40	; 64
    5736:	68 0e       	add	r6, r24
    5738:	79 1e       	adc	r7, r25
    573a:	41 e2       	ldi	r20, 0x21	; 33
    573c:	24 2e       	mov	r2, r20
    573e:	31 2c       	mov	r3, r1
    5740:	2c 0e       	add	r2, r28
    5742:	3d 1e       	adc	r3, r29
    5744:	b3 01       	movw	r22, r6
    5746:	d1 01       	movw	r26, r2
    5748:	40 e0       	ldi	r20, 0x00	; 0
    574a:	50 e0       	ldi	r21, 0x00	; 0
	  data = data >> 1;
	}
    }

  for(x = 0; x < 8; x++)
    { data = pgm_read_byte(&E_font[code][x+8]);
    574c:	8e 01       	movw	r16, r28
    574e:	0f 5f       	subi	r16, 0xFF	; 255
    5750:	1f 4f       	sbci	r17, 0xFF	; 255
    5752:	fb 01       	movw	r30, r22
    5754:	84 91       	lpm	r24, Z+
    5756:	fa 01       	movw	r30, r20
    5758:	95 e0       	ldi	r25, 0x05	; 5
    575a:	ee 0f       	add	r30, r30
    575c:	ff 1f       	adc	r31, r31
    575e:	9a 95       	dec	r25
    5760:	e1 f7       	brne	.-8      	; 0x575a <TFT_English+0xde>
    5762:	70 96       	adiw	r30, 0x10	; 16
    5764:	e0 0f       	add	r30, r16
    5766:	f1 1f       	adc	r31, r17
      for(y = 0; y < 8; y++)
	{ if(data & 0x01) pixel[x][y+8] = foreground;
    5768:	80 ff       	sbrs	r24, 0
    576a:	03 c0       	rjmp	.+6      	; 0x5772 <TFT_English+0xf6>
    576c:	d1 82       	std	Z+1, r13	; 0x01
    576e:	c0 82       	st	Z, r12
    5770:	02 c0       	rjmp	.+4      	; 0x5776 <TFT_English+0xfa>
	  else            pixel[x][y+8] = background;
    5772:	f1 82       	std	Z+1, r15	; 0x01
    5774:	e0 82       	st	Z, r14
    5776:	32 96       	adiw	r30, 0x02	; 2
	}
    }

  for(x = 0; x < 8; x++)
    { data = pgm_read_byte(&E_font[code][x+8]);
      for(y = 0; y < 8; y++)
    5778:	ea 17       	cp	r30, r26
    577a:	fb 07       	cpc	r31, r27
    577c:	11 f0       	breq	.+4      	; 0x5782 <TFT_English+0x106>
	{ if(data & 0x01) pixel[x][y+8] = foreground;
	  else            pixel[x][y+8] = background;
	  data = data >> 1;
    577e:	86 95       	lsr	r24
    5780:	f3 cf       	rjmp	.-26     	; 0x5768 <TFT_English+0xec>
    5782:	4f 5f       	subi	r20, 0xFF	; 255
    5784:	5f 4f       	sbci	r21, 0xFF	; 255
    5786:	6f 5f       	subi	r22, 0xFF	; 255
    5788:	7f 4f       	sbci	r23, 0xFF	; 255
    578a:	df 01       	movw	r26, r30
    578c:	90 96       	adiw	r26, 0x20	; 32
	  else            pixel[x][y] = background;
	  data = data >> 1;
	}
    }

  for(x = 0; x < 8; x++)
    578e:	48 30       	cpi	r20, 0x08	; 8
    5790:	51 05       	cpc	r21, r1
    5792:	f9 f6       	brne	.-66     	; 0x5752 <TFT_English+0xd6>
	  else            pixel[x][y+8] = background;
	  data = data >> 1;
	}
    }

  if(outline_flag == 1)				// display outline
    5794:	80 91 41 0b 	lds	r24, 0x0B41
    5798:	81 30       	cpi	r24, 0x01	; 1
    579a:	09 f0       	breq	.+2      	; 0x579e <TFT_English+0x122>
    579c:	75 c0       	rjmp	.+234    	; 0x5888 <TFT_English+0x20c>
        dot3 = pgm_read_byte(&E_font[code][x+1]) + pgm_read_byte(&E_font[code][x+9])*256;// left side
        dot4 = pgm_read_byte(&E_font[code][x-1]) + pgm_read_byte(&E_font[code][x+7])*256;// right side

        for(y = 0; y < 16; y++)
	  { if(!(dot0 & 0x0001))
	      { if(dot1 & 0x0001) pixel[x][y] = outline;
    579e:	80 90 36 0c 	lds	r8, 0x0C36
    57a2:	90 90 37 0c 	lds	r9, 0x0C37
    57a6:	a0 e0       	ldi	r26, 0x00	; 0
    57a8:	b0 e0       	ldi	r27, 0x00	; 0
	}
    }

  if(outline_flag == 1)				// display outline
    for(x = 0; x < 8; x++)
      { dot0 = pgm_read_byte(&E_font[code][x]) + pgm_read_byte(&E_font[code][x+8])*256;
    57aa:	f9 01       	movw	r30, r18
    57ac:	94 91       	lpm	r25, Z+
    57ae:	f3 01       	movw	r30, r6
    57b0:	84 91       	lpm	r24, Z+
    57b2:	d8 2e       	mov	r13, r24
    57b4:	cc 24       	eor	r12, r12
    57b6:	a6 01       	movw	r20, r12
    57b8:	49 0f       	add	r20, r25
    57ba:	51 1d       	adc	r21, r1
        dot1 = dot0 >> 1;								 // up side
    57bc:	5a 01       	movw	r10, r20
    57be:	b6 94       	lsr	r11
    57c0:	a7 94       	ror	r10
    57c2:	c9 01       	movw	r24, r18
    57c4:	01 96       	adiw	r24, 0x01	; 1
    57c6:	cf 5f       	subi	r28, 0xFF	; 255
    57c8:	de 4f       	sbci	r29, 0xFE	; 254
    57ca:	99 83       	std	Y+1, r25	; 0x01
    57cc:	88 83       	st	Y, r24
    57ce:	c1 50       	subi	r28, 0x01	; 1
    57d0:	d1 40       	sbci	r29, 0x01	; 1
        dot2 = dot0;									 // down side
        dot3 = pgm_read_byte(&E_font[code][x+1]) + pgm_read_byte(&E_font[code][x+9])*256;// left side
    57d2:	fc 01       	movw	r30, r24
    57d4:	94 91       	lpm	r25, Z+
    57d6:	27 5f       	subi	r18, 0xF7	; 247
    57d8:	3f 4f       	sbci	r19, 0xFF	; 255
    57da:	f9 01       	movw	r30, r18
    57dc:	84 91       	lpm	r24, Z+
    57de:	18 2f       	mov	r17, r24
    57e0:	00 e0       	ldi	r16, 0x00	; 0
    57e2:	78 01       	movw	r14, r16
    57e4:	e9 0e       	add	r14, r25
    57e6:	f1 1c       	adc	r15, r1
        dot4 = pgm_read_byte(&E_font[code][x-1]) + pgm_read_byte(&E_font[code][x+7])*256;// right side
    57e8:	2a 50       	subi	r18, 0x0A	; 10
    57ea:	30 40       	sbci	r19, 0x00	; 0
    57ec:	f9 01       	movw	r30, r18
    57ee:	94 91       	lpm	r25, Z+
    57f0:	28 5f       	subi	r18, 0xF8	; 248
    57f2:	3f 4f       	sbci	r19, 0xFF	; 255
    57f4:	f9 01       	movw	r30, r18
    57f6:	84 91       	lpm	r24, Z+
    57f8:	78 2f       	mov	r23, r24
    57fa:	60 e0       	ldi	r22, 0x00	; 0
    57fc:	9b 01       	movw	r18, r22
    57fe:	29 0f       	add	r18, r25
    5800:	31 1d       	adc	r19, r1
    5802:	fd 01       	movw	r30, r26
    5804:	65 e0       	ldi	r22, 0x05	; 5
    5806:	ee 0f       	add	r30, r30
    5808:	ff 1f       	adc	r31, r31
    580a:	6a 95       	dec	r22
    580c:	e1 f7       	brne	.-8      	; 0x5806 <TFT_English+0x18a>
    580e:	81 e0       	ldi	r24, 0x01	; 1
    5810:	90 e0       	ldi	r25, 0x00	; 0
    5812:	8c 0f       	add	r24, r28
    5814:	9d 1f       	adc	r25, r29
    5816:	e8 0f       	add	r30, r24
    5818:	f9 1f       	adc	r31, r25
    581a:	54 2e       	mov	r5, r20

        for(y = 0; y < 16; y++)
	  { if(!(dot0 & 0x0001))
    581c:	40 fd       	sbrc	r20, 0
    581e:	14 c0       	rjmp	.+40     	; 0x5848 <TFT_English+0x1cc>
	      { if(dot1 & 0x0001) pixel[x][y] = outline;
    5820:	a0 fe       	sbrs	r10, 0
    5822:	02 c0       	rjmp	.+4      	; 0x5828 <TFT_English+0x1ac>
    5824:	91 82       	std	Z+1, r9	; 0x01
    5826:	80 82       	st	Z, r8
	        if(dot2 & 0x0001) pixel[x][y] = outline;
    5828:	50 fe       	sbrs	r5, 0
    582a:	02 c0       	rjmp	.+4      	; 0x5830 <TFT_English+0x1b4>
    582c:	91 82       	std	Z+1, r9	; 0x01
    582e:	80 82       	st	Z, r8
	        if((dot3 & 0x0001) && (x < 7 )) pixel[x][y] = outline;
    5830:	e0 fe       	sbrs	r14, 0
    5832:	04 c0       	rjmp	.+8      	; 0x583c <TFT_English+0x1c0>
    5834:	a7 30       	cpi	r26, 0x07	; 7
    5836:	11 f0       	breq	.+4      	; 0x583c <TFT_English+0x1c0>
    5838:	91 82       	std	Z+1, r9	; 0x01
    583a:	80 82       	st	Z, r8
	        if((dot4 & 0x0001) && (x > 0 )) pixel[x][y] = outline;
    583c:	20 ff       	sbrs	r18, 0
    583e:	04 c0       	rjmp	.+8      	; 0x5848 <TFT_English+0x1cc>
    5840:	aa 23       	and	r26, r26
    5842:	11 f0       	breq	.+4      	; 0x5848 <TFT_English+0x1cc>
    5844:	91 82       	std	Z+1, r9	; 0x01
    5846:	80 82       	st	Z, r8
    5848:	32 96       	adiw	r30, 0x02	; 2
        dot1 = dot0 >> 1;								 // up side
        dot2 = dot0;									 // down side
        dot3 = pgm_read_byte(&E_font[code][x+1]) + pgm_read_byte(&E_font[code][x+9])*256;// left side
        dot4 = pgm_read_byte(&E_font[code][x-1]) + pgm_read_byte(&E_font[code][x+7])*256;// right side

        for(y = 0; y < 16; y++)
    584a:	e2 15       	cp	r30, r2
    584c:	f3 05       	cpc	r31, r3
    584e:	51 f0       	breq	.+20     	; 0x5864 <TFT_English+0x1e8>
	        if(dot2 & 0x0001) pixel[x][y] = outline;
	        if((dot3 & 0x0001) && (x < 7 )) pixel[x][y] = outline;
	        if((dot4 & 0x0001) && (x > 0 )) pixel[x][y] = outline;
	      }

            dot1 >>= 1;
    5850:	b6 94       	lsr	r11
    5852:	a7 94       	ror	r10
            dot2 = dot0;
	    dot0 >>= 1;
	    dot3 >>= 1;
    5854:	f6 94       	lsr	r15
    5856:	e7 94       	ror	r14
	    dot4 >>= 1;
    5858:	36 95       	lsr	r19
    585a:	27 95       	ror	r18
    585c:	54 2e       	mov	r5, r20
    585e:	56 95       	lsr	r21
    5860:	47 95       	ror	r20
    5862:	dc cf       	rjmp	.-72     	; 0x581c <TFT_English+0x1a0>
    5864:	11 96       	adiw	r26, 0x01	; 1
    5866:	08 94       	sec
    5868:	61 1c       	adc	r6, r1
    586a:	71 1c       	adc	r7, r1
    586c:	e0 e2       	ldi	r30, 0x20	; 32
    586e:	f0 e0       	ldi	r31, 0x00	; 0
    5870:	2e 0e       	add	r2, r30
    5872:	3f 1e       	adc	r3, r31
	  data = data >> 1;
	}
    }

  if(outline_flag == 1)				// display outline
    for(x = 0; x < 8; x++)
    5874:	a8 30       	cpi	r26, 0x08	; 8
    5876:	b1 05       	cpc	r27, r1
    5878:	39 f0       	breq	.+14     	; 0x5888 <TFT_English+0x20c>
    587a:	cf 5f       	subi	r28, 0xFF	; 255
    587c:	de 4f       	sbci	r29, 0xFE	; 254
    587e:	28 81       	ld	r18, Y
    5880:	39 81       	ldd	r19, Y+1	; 0x01
    5882:	c1 50       	subi	r28, 0x01	; 1
    5884:	d1 40       	sbci	r29, 0x01	; 1
    5886:	91 cf       	rjmp	.-222    	; 0x57aa <TFT_English+0x12e>
	    dot3 >>= 1;
	    dot4 >>= 1;
          }
      }

  if(Xcharacter >= XcharacterLimit)		// end of line ?
    5888:	90 91 3c 0c 	lds	r25, 0x0C3C
    588c:	80 91 27 0b 	lds	r24, 0x0B27
    5890:	98 17       	cp	r25, r24
    5892:	88 f0       	brcs	.+34     	; 0x58b6 <TFT_English+0x23a>
    { Xcharacter = 0;
    5894:	10 92 3c 0c 	sts	0x0C3C, r1
      Ycharacter += 2;
    5898:	20 91 45 0b 	lds	r18, 0x0B45
    589c:	2e 5f       	subi	r18, 0xFE	; 254
    589e:	20 93 45 0b 	sts	0x0B45, r18
      if(Ycharacter >= (YcharacterLimit-1))	// end of screen ?
    58a2:	30 e0       	ldi	r19, 0x00	; 0
    58a4:	80 91 28 0b 	lds	r24, 0x0B28
    58a8:	90 e0       	ldi	r25, 0x00	; 0
    58aa:	01 97       	sbiw	r24, 0x01	; 1
    58ac:	28 17       	cp	r18, r24
    58ae:	39 07       	cpc	r19, r25
    58b0:	14 f0       	brlt	.+4      	; 0x58b6 <TFT_English+0x23a>
        Ycharacter = 0;
    58b2:	10 92 45 0b 	sts	0x0B45, r1
    }

  if(underscore_flag == 1)
    58b6:	80 91 40 0b 	lds	r24, 0x0B40
    58ba:	81 30       	cpi	r24, 0x01	; 1
    58bc:	79 f4       	brne	.+30     	; 0x58dc <TFT_English+0x260>
    { for(x = 0; x < 8; x++)			// display underscore
          pixel[x][15] = underscore;
    58be:	80 91 51 0c 	lds	r24, 0x0C51
    58c2:	90 91 52 0c 	lds	r25, 0x0C52
    58c6:	fe 01       	movw	r30, r28
    58c8:	7f 96       	adiw	r30, 0x1f	; 31
      if(Ycharacter >= (YcharacterLimit-1))	// end of screen ?
        Ycharacter = 0;
    }

  if(underscore_flag == 1)
    { for(x = 0; x < 8; x++)			// display underscore
    58ca:	9e 01       	movw	r18, r28
    58cc:	21 5e       	subi	r18, 0xE1	; 225
    58ce:	3e 4f       	sbci	r19, 0xFE	; 254
          pixel[x][15] = underscore;
    58d0:	91 83       	std	Z+1, r25	; 0x01
    58d2:	80 83       	st	Z, r24
    58d4:	b0 96       	adiw	r30, 0x20	; 32
      if(Ycharacter >= (YcharacterLimit-1))	// end of screen ?
        Ycharacter = 0;
    }

  if(underscore_flag == 1)
    { for(x = 0; x < 8; x++)			// display underscore
    58d6:	e2 17       	cp	r30, r18
    58d8:	f3 07       	cpc	r31, r19
    58da:	d1 f7       	brne	.-12     	; 0x58d0 <TFT_English+0x254>
          pixel[x][15] = underscore;
    }

  if((cursor_flag == 1) && (Xcharacter == Xcursor) &&(Ycharacter == Ycursor))
    58dc:	80 91 3f 0b 	lds	r24, 0x0B3F
    58e0:	81 30       	cpi	r24, 0x01	; 1
    58e2:	31 f4       	brne	.+12     	; 0x58f0 <TFT_English+0x274>
    58e4:	90 91 3c 0c 	lds	r25, 0x0C3C
    58e8:	80 91 4a 0c 	lds	r24, 0x0C4A
    58ec:	98 17       	cp	r25, r24
    58ee:	39 f0       	breq	.+14     	; 0x58fe <TFT_English+0x282>
    58f0:	cc 24       	eor	r12, r12
    58f2:	dd 24       	eor	r13, r13
        { pixel[x][14] = cursor;
          pixel[x][15] = cursor;
        }
    }

  for(y = 0; y < 16; y++)			// write a character
    58f4:	5e 01       	movw	r10, r28
    58f6:	08 94       	sec
    58f8:	a1 1c       	adc	r10, r1
    58fa:	b1 1c       	adc	r11, r1
    58fc:	41 c0       	rjmp	.+130    	; 0x5980 <TFT_English+0x304>
  if(underscore_flag == 1)
    { for(x = 0; x < 8; x++)			// display underscore
          pixel[x][15] = underscore;
    }

  if((cursor_flag == 1) && (Xcharacter == Xcursor) &&(Ycharacter == Ycursor))
    58fe:	90 91 45 0b 	lds	r25, 0x0B45
    5902:	80 91 48 0b 	lds	r24, 0x0B48
    5906:	98 17       	cp	r25, r24
    5908:	99 f7       	brne	.-26     	; 0x58f0 <TFT_English+0x274>
    { for(x = 0; x < 8; x++)			// display cursor
        { pixel[x][14] = cursor;
    590a:	80 91 2f 0c 	lds	r24, 0x0C2F
    590e:	90 91 30 0c 	lds	r25, 0x0C30
    5912:	fe 01       	movw	r30, r28
    5914:	7d 96       	adiw	r30, 0x1d	; 29
    { for(x = 0; x < 8; x++)			// display underscore
          pixel[x][15] = underscore;
    }

  if((cursor_flag == 1) && (Xcharacter == Xcursor) &&(Ycharacter == Ycursor))
    { for(x = 0; x < 8; x++)			// display cursor
    5916:	9e 01       	movw	r18, r28
    5918:	23 5e       	subi	r18, 0xE3	; 227
    591a:	3e 4f       	sbci	r19, 0xFE	; 254
        { pixel[x][14] = cursor;
    591c:	91 83       	std	Z+1, r25	; 0x01
    591e:	80 83       	st	Z, r24
          pixel[x][15] = cursor;
    5920:	93 83       	std	Z+3, r25	; 0x03
    5922:	82 83       	std	Z+2, r24	; 0x02
    5924:	b0 96       	adiw	r30, 0x20	; 32
    { for(x = 0; x < 8; x++)			// display underscore
          pixel[x][15] = underscore;
    }

  if((cursor_flag == 1) && (Xcharacter == Xcursor) &&(Ycharacter == Ycursor))
    { for(x = 0; x < 8; x++)			// display cursor
    5926:	e2 17       	cp	r30, r18
    5928:	f3 07       	cpc	r31, r19
    592a:	c1 f7       	brne	.-16     	; 0x591c <TFT_English+0x2a0>
    592c:	e1 cf       	rjmp	.-62     	; 0x58f0 <TFT_English+0x274>
        }
    }

  for(y = 0; y < 16; y++)			// write a character
    for(x = 0; x < 8; x++)
      TFT_pixel(Xcharacter*8 + x, Ycharacter*8 + y, pixel[x][y]);
    592e:	80 91 3c 0c 	lds	r24, 0x0C3C
    5932:	90 e0       	ldi	r25, 0x00	; 0
    5934:	f3 e0       	ldi	r31, 0x03	; 3
    5936:	88 0f       	add	r24, r24
    5938:	99 1f       	adc	r25, r25
    593a:	fa 95       	dec	r31
    593c:	e1 f7       	brne	.-8      	; 0x5936 <TFT_English+0x2ba>
    593e:	60 91 45 0b 	lds	r22, 0x0B45
    5942:	70 e0       	ldi	r23, 0x00	; 0
    5944:	e3 e0       	ldi	r30, 0x03	; 3
    5946:	66 0f       	add	r22, r22
    5948:	77 1f       	adc	r23, r23
    594a:	ea 95       	dec	r30
    594c:	e1 f7       	brne	.-8      	; 0x5946 <TFT_English+0x2ca>
    594e:	6c 0d       	add	r22, r12
    5950:	7d 1d       	adc	r23, r13
    5952:	f8 01       	movw	r30, r16
    5954:	40 81       	ld	r20, Z
    5956:	51 81       	ldd	r21, Z+1	; 0x01
    5958:	8e 0d       	add	r24, r14
    595a:	9f 1d       	adc	r25, r15
    595c:	0e 94 52 2a 	call	0x54a4	; 0x54a4 <TFT_pixel>
    5960:	08 94       	sec
    5962:	e1 1c       	adc	r14, r1
    5964:	f1 1c       	adc	r15, r1
    5966:	00 5e       	subi	r16, 0xE0	; 224
    5968:	1f 4f       	sbci	r17, 0xFF	; 255
          pixel[x][15] = cursor;
        }
    }

  for(y = 0; y < 16; y++)			// write a character
    for(x = 0; x < 8; x++)
    596a:	f8 e0       	ldi	r31, 0x08	; 8
    596c:	ef 16       	cp	r14, r31
    596e:	f1 04       	cpc	r15, r1
    5970:	f1 f6       	brne	.-68     	; 0x592e <TFT_English+0x2b2>
    5972:	08 94       	sec
    5974:	c1 1c       	adc	r12, r1
    5976:	d1 1c       	adc	r13, r1
        { pixel[x][14] = cursor;
          pixel[x][15] = cursor;
        }
    }

  for(y = 0; y < 16; y++)			// write a character
    5978:	80 e1       	ldi	r24, 0x10	; 16
    597a:	c8 16       	cp	r12, r24
    597c:	d1 04       	cpc	r13, r1
    597e:	41 f0       	breq	.+16     	; 0x5990 <TFT_English+0x314>
    5980:	86 01       	movw	r16, r12
    5982:	00 0f       	add	r16, r16
    5984:	11 1f       	adc	r17, r17
    5986:	0a 0d       	add	r16, r10
    5988:	1b 1d       	adc	r17, r11
    598a:	ee 24       	eor	r14, r14
    598c:	ff 24       	eor	r15, r15
    598e:	cf cf       	rjmp	.-98     	; 0x592e <TFT_English+0x2b2>
    for(x = 0; x < 8; x++)
      TFT_pixel(Xcharacter*8 + x, Ycharacter*8 + y, pixel[x][y]);

  Xcharacter += 1;				// go to next position
    5990:	80 91 3c 0c 	lds	r24, 0x0C3C
    5994:	8f 5f       	subi	r24, 0xFF	; 255
    5996:	80 93 3c 0c 	sts	0x0C3C, r24
}
    599a:	ce 5f       	subi	r28, 0xFE	; 254
    599c:	de 4f       	sbci	r29, 0xFE	; 254
    599e:	0f b6       	in	r0, 0x3f	; 63
    59a0:	f8 94       	cli
    59a2:	de bf       	out	0x3e, r29	; 62
    59a4:	0f be       	out	0x3f, r0	; 63
    59a6:	cd bf       	out	0x3d, r28	; 61
    59a8:	cf 91       	pop	r28
    59aa:	df 91       	pop	r29
    59ac:	1f 91       	pop	r17
    59ae:	0f 91       	pop	r16
    59b0:	ff 90       	pop	r15
    59b2:	ef 90       	pop	r14
    59b4:	df 90       	pop	r13
    59b6:	cf 90       	pop	r12
    59b8:	bf 90       	pop	r11
    59ba:	af 90       	pop	r10
    59bc:	9f 90       	pop	r9
    59be:	8f 90       	pop	r8
    59c0:	7f 90       	pop	r7
    59c2:	6f 90       	pop	r6
    59c4:	5f 90       	pop	r5
    59c6:	3f 90       	pop	r3
    59c8:	2f 90       	pop	r2
    59ca:	08 95       	ret

000059cc <KS_code_conversion>:

unsigned int KS_code_conversion(U16 KSSM)	/* convert KSSM() to KS() */
{
    59cc:	9c 01       	movw	r18, r24
  unsigned int index, KS;

  HB = KSSM >> 8;
  LB = KSSM & 0x00FF;

  if(KSSM >= 0xB0A1 && KSSM <= 0xC8FE)
    59ce:	81 5a       	subi	r24, 0xA1	; 161
    59d0:	90 4b       	sbci	r25, 0xB0	; 176
    59d2:	8e 55       	subi	r24, 0x5E	; 94
    59d4:	98 41       	sbci	r25, 0x18	; 24
    59d6:	18 f0       	brcs	.+6      	; 0x59de <KS_code_conversion+0x12>
    59d8:	ef ef       	ldi	r30, 0xFF	; 255
    59da:	ff ef       	ldi	r31, 0xFF	; 255
    59dc:	1b c0       	rjmp	.+54     	; 0x5a14 <KS_code_conversion+0x48>
    { index = (HB - 0xB0)*94 + LB - 0xA1;
      KS  =  pgm_read_byte(&KS_Table[index][0]) * 256;
    59de:	42 2f       	mov	r20, r18
    59e0:	50 e0       	ldi	r21, 0x00	; 0
    59e2:	41 54       	subi	r20, 0x41	; 65
    59e4:	51 44       	sbci	r21, 0x41	; 65
    59e6:	8e e5       	ldi	r24, 0x5E	; 94
    59e8:	38 9f       	mul	r19, r24
    59ea:	c0 01       	movw	r24, r0
    59ec:	11 24       	eor	r1, r1
    59ee:	48 0f       	add	r20, r24
    59f0:	59 1f       	adc	r21, r25
    59f2:	44 0f       	add	r20, r20
    59f4:	55 1f       	adc	r21, r21
    59f6:	ca 01       	movw	r24, r20
    59f8:	83 5c       	subi	r24, 0xC3	; 195
    59fa:	91 4d       	sbci	r25, 0xD1	; 209
    59fc:	fc 01       	movw	r30, r24
    59fe:	24 91       	lpm	r18, Z+
    5a00:	92 2f       	mov	r25, r18
    5a02:	80 e0       	ldi	r24, 0x00	; 0
      KS |=  pgm_read_byte(&KS_Table[index][1]);
    5a04:	42 5c       	subi	r20, 0xC2	; 194
    5a06:	51 4d       	sbci	r21, 0xD1	; 209
    5a08:	fa 01       	movw	r30, r20
    5a0a:	24 91       	lpm	r18, Z+
    5a0c:	e2 2f       	mov	r30, r18
    5a0e:	f0 e0       	ldi	r31, 0x00	; 0
    5a10:	e8 2b       	or	r30, r24
    5a12:	f9 2b       	or	r31, r25

      return KS;
    }
  else
    return -1;
}
    5a14:	cf 01       	movw	r24, r30
    5a16:	08 95       	ret

00005a18 <TFT_Korean>:

void TFT_Korean(U16 code)			/* write a Korean character */
{
    5a18:	2f 92       	push	r2
    5a1a:	3f 92       	push	r3
    5a1c:	4f 92       	push	r4
    5a1e:	5f 92       	push	r5
    5a20:	6f 92       	push	r6
    5a22:	7f 92       	push	r7
    5a24:	8f 92       	push	r8
    5a26:	9f 92       	push	r9
    5a28:	af 92       	push	r10
    5a2a:	bf 92       	push	r11
    5a2c:	cf 92       	push	r12
    5a2e:	df 92       	push	r13
    5a30:	ef 92       	push	r14
    5a32:	ff 92       	push	r15
    5a34:	0f 93       	push	r16
    5a36:	1f 93       	push	r17
    5a38:	df 93       	push	r29
    5a3a:	cf 93       	push	r28
    5a3c:	cd b7       	in	r28, 0x3d	; 61
    5a3e:	de b7       	in	r29, 0x3e	; 62
    5a40:	c0 52       	subi	r28, 0x20	; 32
    5a42:	d2 40       	sbci	r29, 0x02	; 2
    5a44:	0f b6       	in	r0, 0x3f	; 63
    5a46:	f8 94       	cli
    5a48:	de bf       	out	0x3e, r29	; 62
    5a4a:	0f be       	out	0x3f, r0	; 63
    5a4c:	cd bf       	out	0x3d, r28	; 61
    5a4e:	ac 01       	movw	r20, r24
  unsigned char cho_5bit, joong_5bit, jong_5bit;
  unsigned char cho_bul, joong_bul, jong_bul = 0, i, jong_flag;
  unsigned int ch;
  unsigned char Kbuffer[32] = {0};		// 32 byte Korean font buffer

  cho_5bit   = pgm_read_byte(&table_cho[(code >> 10) & 0x001F]);  // get 5bit(14-10) of chosung
    5a50:	89 2f       	mov	r24, r25
    5a52:	99 27       	eor	r25, r25
    5a54:	86 95       	lsr	r24
    5a56:	86 95       	lsr	r24
    5a58:	8f 71       	andi	r24, 0x1F	; 31
    5a5a:	90 70       	andi	r25, 0x00	; 0
    5a5c:	86 55       	subi	r24, 0x56	; 86
    5a5e:	9f 4f       	sbci	r25, 0xFF	; 255
    5a60:	fc 01       	movw	r30, r24
    5a62:	24 91       	lpm	r18, Z+
  joong_5bit = pgm_read_byte(&table_joong[(code >> 5) & 0x001F]); // get 5bit(09-05) of joongsung
    5a64:	ca 01       	movw	r24, r20
    5a66:	b5 e0       	ldi	r27, 0x05	; 5
    5a68:	96 95       	lsr	r25
    5a6a:	87 95       	ror	r24
    5a6c:	ba 95       	dec	r27
    5a6e:	e1 f7       	brne	.-8      	; 0x5a68 <TFT_Korean+0x50>
    5a70:	8f 71       	andi	r24, 0x1F	; 31
    5a72:	90 70       	andi	r25, 0x00	; 0
    5a74:	81 54       	subi	r24, 0x41	; 65
    5a76:	9f 4f       	sbci	r25, 0xFF	; 255
    5a78:	fc 01       	movw	r30, r24
    5a7a:	e4 90       	lpm	r14, Z+
  jong_5bit  = pgm_read_byte(&table_jong[code & 0x001F]);	  // get 5bit(04-00) of jongsung
    5a7c:	4f 71       	andi	r20, 0x1F	; 31
    5a7e:	50 70       	andi	r21, 0x00	; 0
    5a80:	43 52       	subi	r20, 0x23	; 35
    5a82:	5f 4f       	sbci	r21, 0xFF	; 255
    5a84:	fa 01       	movw	r30, r20
    5a86:	d4 90       	lpm	r13, Z+
    5a88:	8e 2d       	mov	r24, r14
    5a8a:	90 e0       	ldi	r25, 0x00	; 0

  if(jong_5bit == 0)				// if jongsung not exist
    5a8c:	dd 20       	and	r13, r13
    5a8e:	61 f4       	brne	.+24     	; 0x5aa8 <TFT_Korean+0x90>
    { jong_flag = 0;
      cho_bul = pgm_read_byte(&bul_cho1[joong_5bit]);
    5a90:	85 50       	subi	r24, 0x05	; 5
    5a92:	9f 4f       	sbci	r25, 0xFF	; 255
    5a94:	fc 01       	movw	r30, r24
    5a96:	84 91       	lpm	r24, Z+
      if((cho_5bit == 1) || (cho_5bit == 16))
    5a98:	21 30       	cpi	r18, 0x01	; 1
    5a9a:	c9 f0       	breq	.+50     	; 0x5ace <TFT_Korean+0xb6>
    5a9c:	20 31       	cpi	r18, 0x10	; 16
    5a9e:	b9 f0       	breq	.+46     	; 0x5ace <TFT_Korean+0xb6>
    5aa0:	98 2f       	mov	r25, r24
    5aa2:	00 e0       	ldi	r16, 0x00	; 0
    5aa4:	11 e0       	ldi	r17, 0x01	; 1
    5aa6:	16 c0       	rjmp	.+44     	; 0x5ad4 <TFT_Korean+0xbc>
      else
	joong_bul = 1;
    }
  else						// if jongsung exist
    { jong_flag = 1;
      cho_bul = pgm_read_byte(&bul_cho2[joong_5bit]);
    5aa8:	fc 01       	movw	r30, r24
    5aaa:	ef 5e       	subi	r30, 0xEF	; 239
    5aac:	fe 4f       	sbci	r31, 0xFE	; 254
    5aae:	34 91       	lpm	r19, Z+
      if((cho_5bit == 1) || (cho_5bit == 16))
    5ab0:	21 30       	cpi	r18, 0x01	; 1
    5ab2:	21 f0       	breq	.+8      	; 0x5abc <TFT_Korean+0xa4>
    5ab4:	20 31       	cpi	r18, 0x10	; 16
    5ab6:	11 f0       	breq	.+4      	; 0x5abc <TFT_Korean+0xa4>
    5ab8:	13 e0       	ldi	r17, 0x03	; 3
    5aba:	01 c0       	rjmp	.+2      	; 0x5abe <TFT_Korean+0xa6>
    5abc:	12 e0       	ldi	r17, 0x02	; 2
	joong_bul = 2;
      else
	joong_bul = 3;
      jong_bul = pgm_read_byte(&bul_jong[joong_5bit]);
    5abe:	89 5d       	subi	r24, 0xD9	; 217
    5ac0:	9e 4f       	sbci	r25, 0xFE	; 254
    5ac2:	fc 01       	movw	r30, r24
    5ac4:	84 91       	lpm	r24, Z+
    5ac6:	93 2f       	mov	r25, r19
    5ac8:	f8 2e       	mov	r15, r24
    5aca:	01 e0       	ldi	r16, 0x01	; 1
    5acc:	04 c0       	rjmp	.+8      	; 0x5ad6 <TFT_Korean+0xbe>
    5ace:	98 2f       	mov	r25, r24
    5ad0:	00 e0       	ldi	r16, 0x00	; 0
    5ad2:	10 e0       	ldi	r17, 0x00	; 0
    5ad4:	ff 24       	eor	r15, r15
void TFT_Korean(U16 code)			/* write a Korean character */
{
  unsigned char cho_5bit, joong_5bit, jong_5bit;
  unsigned char cho_bul, joong_bul, jong_bul = 0, i, jong_flag;
  unsigned int ch;
  unsigned char Kbuffer[32] = {0};		// 32 byte Korean font buffer
    5ad6:	5e 01       	movw	r10, r28
    5ad8:	08 94       	sec
    5ada:	a1 1c       	adc	r10, r1
    5adc:	b1 1c       	adc	r11, r1
    5ade:	80 e2       	ldi	r24, 0x20	; 32
    5ae0:	d5 01       	movw	r26, r10
    5ae2:	1d 92       	st	X+, r1
    5ae4:	8a 95       	dec	r24
    5ae6:	e9 f7       	brne	.-6      	; 0x5ae2 <TFT_Korean+0xca>
  else
    return -1;
}

void TFT_Korean(U16 code)			/* write a Korean character */
{
    5ae8:	84 e1       	ldi	r24, 0x14	; 20
    5aea:	98 9f       	mul	r25, r24
    5aec:	f0 01       	movw	r30, r0
    5aee:	11 24       	eor	r1, r1
    5af0:	e2 0f       	add	r30, r18
    5af2:	f1 1d       	adc	r31, r1
    5af4:	a5 e0       	ldi	r26, 0x05	; 5
    5af6:	ee 0f       	add	r30, r30
    5af8:	ff 1f       	adc	r31, r31
    5afa:	aa 95       	dec	r26
    5afc:	e1 f7       	brne	.-8      	; 0x5af6 <TFT_Korean+0xde>
    5afe:	e3 5c       	subi	r30, 0xC3	; 195
    5b00:	fe 4f       	sbci	r31, 0xFE	; 254
    5b02:	a5 01       	movw	r20, r10
    5b04:	95 01       	movw	r18, r10
	joong_bul = 3;
      jong_bul = pgm_read_byte(&bul_jong[joong_5bit]);
    }

  ch = cho_bul*20 + cho_5bit;			// get chosung font 
  for(i = 0; i < 32; i++)
    5b06:	be 01       	movw	r22, r28
    5b08:	6f 5d       	subi	r22, 0xDF	; 223
    5b0a:	7f 4f       	sbci	r23, 0xFF	; 255
    Kbuffer[i] = pgm_read_byte(&K_font[ch][i]);
    5b0c:	84 91       	lpm	r24, Z+
    5b0e:	d9 01       	movw	r26, r18
    5b10:	8d 93       	st	X+, r24
    5b12:	9d 01       	movw	r18, r26
    5b14:	31 96       	adiw	r30, 0x01	; 1
	joong_bul = 3;
      jong_bul = pgm_read_byte(&bul_jong[joong_5bit]);
    }

  ch = cho_bul*20 + cho_5bit;			// get chosung font 
  for(i = 0; i < 32; i++)
    5b16:	a6 17       	cp	r26, r22
    5b18:	b7 07       	cpc	r27, r23
    5b1a:	c1 f7       	brne	.-16     	; 0x5b0c <TFT_Korean+0xf4>
    5b1c:	ee 2d       	mov	r30, r14
    5b1e:	f0 e0       	ldi	r31, 0x00	; 0
    5b20:	e0 56       	subi	r30, 0x60	; 96
    5b22:	ff 4f       	sbci	r31, 0xFF	; 255
    5b24:	86 e1       	ldi	r24, 0x16	; 22
    5b26:	18 9f       	mul	r17, r24
    5b28:	c0 01       	movw	r24, r0
    5b2a:	11 24       	eor	r1, r1
    5b2c:	e8 0f       	add	r30, r24
    5b2e:	f9 1f       	adc	r31, r25
    5b30:	75 e0       	ldi	r23, 0x05	; 5
    5b32:	ee 0f       	add	r30, r30
    5b34:	ff 1f       	adc	r31, r31
    5b36:	7a 95       	dec	r23
    5b38:	e1 f7       	brne	.-8      	; 0x5b32 <TFT_Korean+0x11a>
    5b3a:	e3 5c       	subi	r30, 0xC3	; 195
    5b3c:	fe 4f       	sbci	r31, 0xFE	; 254
    5b3e:	d5 01       	movw	r26, r10
    Kbuffer[i] = pgm_read_byte(&K_font[ch][i]);
  ch = 8*20 + joong_bul*22 + joong_5bit;	// OR joongsung font
  for(i = 0; i < 32; i++)
    Kbuffer[i] |= pgm_read_byte(&K_font[ch][i]);
    5b40:	94 91       	lpm	r25, Z+
    5b42:	8c 91       	ld	r24, X
    5b44:	89 2b       	or	r24, r25
    5b46:	8d 93       	st	X+, r24
    5b48:	31 96       	adiw	r30, 0x01	; 1

  ch = cho_bul*20 + cho_5bit;			// get chosung font 
  for(i = 0; i < 32; i++)
    Kbuffer[i] = pgm_read_byte(&K_font[ch][i]);
  ch = 8*20 + joong_bul*22 + joong_5bit;	// OR joongsung font
  for(i = 0; i < 32; i++)
    5b4a:	a2 17       	cp	r26, r18
    5b4c:	b3 07       	cpc	r27, r19
    5b4e:	c1 f7       	brne	.-16     	; 0x5b40 <TFT_Korean+0x128>
    Kbuffer[i] |= pgm_read_byte(&K_font[ch][i]);
  if(jong_flag)					// OR jongsung font
    5b50:	00 23       	and	r16, r16
    5b52:	d9 f0       	breq	.+54     	; 0x5b8a <TFT_Korean+0x172>
    5b54:	ed 2d       	mov	r30, r13
    5b56:	f0 e0       	ldi	r31, 0x00	; 0
    5b58:	e8 50       	subi	r30, 0x08	; 8
    5b5a:	ff 4f       	sbci	r31, 0xFF	; 255
    5b5c:	8c e1       	ldi	r24, 0x1C	; 28
    5b5e:	f8 9e       	mul	r15, r24
    5b60:	c0 01       	movw	r24, r0
    5b62:	11 24       	eor	r1, r1
    5b64:	e8 0f       	add	r30, r24
    5b66:	f9 1f       	adc	r31, r25
    5b68:	65 e0       	ldi	r22, 0x05	; 5
    5b6a:	ee 0f       	add	r30, r30
    5b6c:	ff 1f       	adc	r31, r31
    5b6e:	6a 95       	dec	r22
    5b70:	e1 f7       	brne	.-8      	; 0x5b6a <TFT_Korean+0x152>
    5b72:	e3 5c       	subi	r30, 0xC3	; 195
    5b74:	fe 4f       	sbci	r31, 0xFE	; 254
    { ch = 8*20 + 4*22 + jong_bul*28 + jong_5bit;
      for(i = 0; i < 32; i++)
	Kbuffer[i] |= pgm_read_byte(&K_font[ch][i]);
    5b76:	94 91       	lpm	r25, Z+
    5b78:	da 01       	movw	r26, r20
    5b7a:	8c 91       	ld	r24, X
    5b7c:	89 2b       	or	r24, r25
    5b7e:	8d 93       	st	X+, r24
    5b80:	ad 01       	movw	r20, r26
    5b82:	31 96       	adiw	r30, 0x01	; 1
  ch = 8*20 + joong_bul*22 + joong_5bit;	// OR joongsung font
  for(i = 0; i < 32; i++)
    Kbuffer[i] |= pgm_read_byte(&K_font[ch][i]);
  if(jong_flag)					// OR jongsung font
    { ch = 8*20 + 4*22 + jong_bul*28 + jong_5bit;
      for(i = 0; i < 32; i++)
    5b84:	a2 17       	cp	r26, r18
    5b86:	b3 07       	cpc	r27, r19
    5b88:	b1 f7       	brne	.-20     	; 0x5b76 <TFT_Korean+0x15e>
  unsigned int dot0, dot1, dot2, dot3, dot4;

  for(x = 0; x < 16; x++)			// read Korean font
    { data = Kbuffer[x];
      for(y = 0; y < 8; y++)
	{ if(data & 0x01) pixel[x][y] = foreground;
    5b8a:	60 91 4f 0b 	lds	r22, 0x0B4F
    5b8e:	70 91 50 0b 	lds	r23, 0x0B50
	  else            pixel[x][y] = background;
    5b92:	40 91 55 0b 	lds	r20, 0x0B55
    5b96:	50 91 56 0b 	lds	r21, 0x0B56
    5b9a:	80 e0       	ldi	r24, 0x00	; 0
    5b9c:	90 e0       	ldi	r25, 0x00	; 0
  unsigned char data, x, y;
  unsigned int pixel[16][16];
  unsigned int dot0, dot1, dot2, dot3, dot4;

  for(x = 0; x < 16; x++)			// read Korean font
    { data = Kbuffer[x];
    5b9e:	7e 01       	movw	r14, r28
    5ba0:	08 94       	sec
    5ba2:	e1 1c       	adc	r14, r1
    5ba4:	f1 1c       	adc	r15, r1
    5ba6:	8e 01       	movw	r16, r28
    5ba8:	0f 5d       	subi	r16, 0xDF	; 223
    5baa:	1f 4f       	sbci	r17, 0xFF	; 255
    5bac:	f7 01       	movw	r30, r14
    5bae:	e8 0f       	add	r30, r24
    5bb0:	f9 1f       	adc	r31, r25
    5bb2:	e0 81       	ld	r30, Z
    5bb4:	dc 01       	movw	r26, r24
    5bb6:	35 e0       	ldi	r19, 0x05	; 5
    5bb8:	aa 0f       	add	r26, r26
    5bba:	bb 1f       	adc	r27, r27
    5bbc:	3a 95       	dec	r19
    5bbe:	e1 f7       	brne	.-8      	; 0x5bb8 <TFT_Korean+0x1a0>
    5bc0:	a0 0f       	add	r26, r16
    5bc2:	b1 1f       	adc	r27, r17
    5bc4:	20 e0       	ldi	r18, 0x00	; 0
      for(y = 0; y < 8; y++)
	{ if(data & 0x01) pixel[x][y] = foreground;
    5bc6:	e0 ff       	sbrs	r30, 0
    5bc8:	04 c0       	rjmp	.+8      	; 0x5bd2 <TFT_Korean+0x1ba>
    5bca:	11 96       	adiw	r26, 0x01	; 1
    5bcc:	7c 93       	st	X, r23
    5bce:	6e 93       	st	-X, r22
    5bd0:	03 c0       	rjmp	.+6      	; 0x5bd8 <TFT_Korean+0x1c0>
	  else            pixel[x][y] = background;
    5bd2:	11 96       	adiw	r26, 0x01	; 1
    5bd4:	5c 93       	st	X, r21
    5bd6:	4e 93       	st	-X, r20
  unsigned int pixel[16][16];
  unsigned int dot0, dot1, dot2, dot3, dot4;

  for(x = 0; x < 16; x++)			// read Korean font
    { data = Kbuffer[x];
      for(y = 0; y < 8; y++)
    5bd8:	2f 5f       	subi	r18, 0xFF	; 255
    5bda:	12 96       	adiw	r26, 0x02	; 2
    5bdc:	28 30       	cpi	r18, 0x08	; 8
    5bde:	11 f0       	breq	.+4      	; 0x5be4 <TFT_Korean+0x1cc>
	{ if(data & 0x01) pixel[x][y] = foreground;
	  else            pixel[x][y] = background;
	  data = data >> 1;
    5be0:	e6 95       	lsr	r30
    5be2:	f1 cf       	rjmp	.-30     	; 0x5bc6 <TFT_Korean+0x1ae>
    5be4:	01 96       	adiw	r24, 0x01	; 1

  unsigned char data, x, y;
  unsigned int pixel[16][16];
  unsigned int dot0, dot1, dot2, dot3, dot4;

  for(x = 0; x < 16; x++)			// read Korean font
    5be6:	80 31       	cpi	r24, 0x10	; 16
    5be8:	91 05       	cpc	r25, r1
    5bea:	01 f7       	brne	.-64     	; 0x5bac <TFT_Korean+0x194>
    5bec:	de 01       	movw	r26, r28
    5bee:	51 96       	adiw	r26, 0x11	; 17
    5bf0:	80 e0       	ldi	r24, 0x00	; 0
    5bf2:	90 e0       	ldi	r25, 0x00	; 0
	  data = data >> 1;
	}
    }

  for(x = 0; x < 16; x++)
    { data = Kbuffer[x+16];
    5bf4:	8e 01       	movw	r16, r28
    5bf6:	0f 5d       	subi	r16, 0xDF	; 223
    5bf8:	1f 4f       	sbci	r17, 0xFF	; 255
    5bfa:	3c 91       	ld	r19, X
    5bfc:	fc 01       	movw	r30, r24
    5bfe:	25 e0       	ldi	r18, 0x05	; 5
    5c00:	ee 0f       	add	r30, r30
    5c02:	ff 1f       	adc	r31, r31
    5c04:	2a 95       	dec	r18
    5c06:	e1 f7       	brne	.-8      	; 0x5c00 <TFT_Korean+0x1e8>
    5c08:	70 96       	adiw	r30, 0x10	; 16
    5c0a:	e0 0f       	add	r30, r16
    5c0c:	f1 1f       	adc	r31, r17
    5c0e:	20 e0       	ldi	r18, 0x00	; 0
      for(y = 0; y < 8; y++)
	{ if(data & 0x01) pixel[x][y+8] = foreground;
    5c10:	30 ff       	sbrs	r19, 0
    5c12:	03 c0       	rjmp	.+6      	; 0x5c1a <TFT_Korean+0x202>
    5c14:	71 83       	std	Z+1, r23	; 0x01
    5c16:	60 83       	st	Z, r22
    5c18:	02 c0       	rjmp	.+4      	; 0x5c1e <TFT_Korean+0x206>
	  else            pixel[x][y+8] = background;
    5c1a:	51 83       	std	Z+1, r21	; 0x01
    5c1c:	40 83       	st	Z, r20
	}
    }

  for(x = 0; x < 16; x++)
    { data = Kbuffer[x+16];
      for(y = 0; y < 8; y++)
    5c1e:	2f 5f       	subi	r18, 0xFF	; 255
    5c20:	32 96       	adiw	r30, 0x02	; 2
    5c22:	28 30       	cpi	r18, 0x08	; 8
    5c24:	11 f0       	breq	.+4      	; 0x5c2a <TFT_Korean+0x212>
	{ if(data & 0x01) pixel[x][y+8] = foreground;
	  else            pixel[x][y+8] = background;
	  data = data >> 1;
    5c26:	36 95       	lsr	r19
    5c28:	f3 cf       	rjmp	.-26     	; 0x5c10 <TFT_Korean+0x1f8>
    5c2a:	01 96       	adiw	r24, 0x01	; 1
    5c2c:	11 96       	adiw	r26, 0x01	; 1
	  else            pixel[x][y] = background;
	  data = data >> 1;
	}
    }

  for(x = 0; x < 16; x++)
    5c2e:	80 31       	cpi	r24, 0x10	; 16
    5c30:	91 05       	cpc	r25, r1
    5c32:	19 f7       	brne	.-58     	; 0x5bfa <TFT_Korean+0x1e2>
	  else            pixel[x][y+8] = background;
	  data = data >> 1;
	}
    }

  if(outline_flag == 1)				// display outline
    5c34:	80 91 41 0b 	lds	r24, 0x0B41
    5c38:	81 30       	cpi	r24, 0x01	; 1
    5c3a:	09 f0       	breq	.+2      	; 0x5c3e <TFT_Korean+0x226>
    5c3c:	61 c0       	rjmp	.+194    	; 0x5d00 <TFT_Korean+0x2e8>
        dot3 = Kbuffer[x+1] + Kbuffer[x+17]*256; // left side
        dot4 = Kbuffer[x-1] + Kbuffer[x+15]*256; // right side

        for(y = 0; y < 16; y++)
	  { if(!(dot0 & 0x0001))
	      { if(dot1 & 0x0001) pixel[x][y] = outline;
    5c3e:	60 90 36 0c 	lds	r6, 0x0C36
    5c42:	70 90 37 0c 	lds	r7, 0x0C37
    5c46:	de 01       	movw	r26, r28
    5c48:	40 e0       	ldi	r20, 0x00	; 0
    5c4a:	50 e0       	ldi	r21, 0x00	; 0
    for(x = 0; x < 16; x++)
      { dot0 = Kbuffer[x] + Kbuffer[x+16]*256;
        dot1 = dot0 >> 1;			// up side
        dot2 = dot0;				// down side
        dot3 = Kbuffer[x+1] + Kbuffer[x+17]*256; // left side
        dot4 = Kbuffer[x-1] + Kbuffer[x+15]*256; // right side
    5c4c:	21 e2       	ldi	r18, 0x21	; 33
    5c4e:	22 2e       	mov	r2, r18
    5c50:	31 2c       	mov	r3, r1
    5c52:	2c 0e       	add	r2, r28
    5c54:	3d 1e       	adc	r3, r29
	}
    }

  if(outline_flag == 1)				// display outline
    for(x = 0; x < 16; x++)
      { dot0 = Kbuffer[x] + Kbuffer[x+16]*256;
    5c56:	51 96       	adiw	r26, 0x11	; 17
    5c58:	bc 90       	ld	r11, X
    5c5a:	51 97       	sbiw	r26, 0x11	; 17
    5c5c:	aa 24       	eor	r10, r10
    5c5e:	11 96       	adiw	r26, 0x01	; 1
    5c60:	8c 91       	ld	r24, X
    5c62:	11 97       	sbiw	r26, 0x01	; 1
    5c64:	95 01       	movw	r18, r10
    5c66:	28 0f       	add	r18, r24
    5c68:	31 1d       	adc	r19, r1
        dot1 = dot0 >> 1;			// up side
    5c6a:	49 01       	movw	r8, r18
    5c6c:	96 94       	lsr	r9
    5c6e:	87 94       	ror	r8
        dot2 = dot0;				// down side
        dot3 = Kbuffer[x+1] + Kbuffer[x+17]*256; // left side
    5c70:	52 96       	adiw	r26, 0x12	; 18
    5c72:	fc 90       	ld	r15, X
    5c74:	52 97       	sbiw	r26, 0x12	; 18
    5c76:	ee 24       	eor	r14, r14
    5c78:	12 96       	adiw	r26, 0x02	; 2
    5c7a:	8c 91       	ld	r24, X
    5c7c:	12 97       	sbiw	r26, 0x02	; 2
    5c7e:	67 01       	movw	r12, r14
    5c80:	c8 0e       	add	r12, r24
    5c82:	d1 1c       	adc	r13, r1
        dot4 = Kbuffer[x-1] + Kbuffer[x+15]*256; // right side
    5c84:	50 96       	adiw	r26, 0x10	; 16
    5c86:	7c 91       	ld	r23, X
    5c88:	50 97       	sbiw	r26, 0x10	; 16
    5c8a:	60 e0       	ldi	r22, 0x00	; 0
    5c8c:	8c 91       	ld	r24, X
    5c8e:	8b 01       	movw	r16, r22
    5c90:	08 0f       	add	r16, r24
    5c92:	11 1d       	adc	r17, r1
    5c94:	fa 01       	movw	r30, r20
    5c96:	85 e0       	ldi	r24, 0x05	; 5
    5c98:	ee 0f       	add	r30, r30
    5c9a:	ff 1f       	adc	r31, r31
    5c9c:	8a 95       	dec	r24
    5c9e:	e1 f7       	brne	.-8      	; 0x5c98 <TFT_Korean+0x280>
    5ca0:	e2 0d       	add	r30, r2
    5ca2:	f3 1d       	adc	r31, r3
    5ca4:	42 2e       	mov	r4, r18
    5ca6:	55 24       	eor	r5, r5

        for(y = 0; y < 16; y++)
	  { if(!(dot0 & 0x0001))
    5ca8:	20 fd       	sbrc	r18, 0
    5caa:	14 c0       	rjmp	.+40     	; 0x5cd4 <TFT_Korean+0x2bc>
	      { if(dot1 & 0x0001) pixel[x][y] = outline;
    5cac:	80 fe       	sbrs	r8, 0
    5cae:	02 c0       	rjmp	.+4      	; 0x5cb4 <TFT_Korean+0x29c>
    5cb0:	71 82       	std	Z+1, r7	; 0x01
    5cb2:	60 82       	st	Z, r6
	        if(dot2 & 0x0001) pixel[x][y] = outline;
    5cb4:	40 fe       	sbrs	r4, 0
    5cb6:	02 c0       	rjmp	.+4      	; 0x5cbc <TFT_Korean+0x2a4>
    5cb8:	71 82       	std	Z+1, r7	; 0x01
    5cba:	60 82       	st	Z, r6
 	        if((dot3 & 0x0001) && (x < 15 )) pixel[x][y] = outline;
    5cbc:	c0 fe       	sbrs	r12, 0
    5cbe:	04 c0       	rjmp	.+8      	; 0x5cc8 <TFT_Korean+0x2b0>
    5cc0:	4f 30       	cpi	r20, 0x0F	; 15
    5cc2:	11 f0       	breq	.+4      	; 0x5cc8 <TFT_Korean+0x2b0>
    5cc4:	71 82       	std	Z+1, r7	; 0x01
    5cc6:	60 82       	st	Z, r6
	        if((dot4 & 0x0001) && (x > 0 ))  pixel[x][y] = outline;
    5cc8:	00 ff       	sbrs	r16, 0
    5cca:	04 c0       	rjmp	.+8      	; 0x5cd4 <TFT_Korean+0x2bc>
    5ccc:	44 23       	and	r20, r20
    5cce:	11 f0       	breq	.+4      	; 0x5cd4 <TFT_Korean+0x2bc>
    5cd0:	71 82       	std	Z+1, r7	; 0x01
    5cd2:	60 82       	st	Z, r6
        dot1 = dot0 >> 1;			// up side
        dot2 = dot0;				// down side
        dot3 = Kbuffer[x+1] + Kbuffer[x+17]*256; // left side
        dot4 = Kbuffer[x-1] + Kbuffer[x+15]*256; // right side

        for(y = 0; y < 16; y++)
    5cd4:	53 94       	inc	r5
    5cd6:	32 96       	adiw	r30, 0x02	; 2
    5cd8:	80 e1       	ldi	r24, 0x10	; 16
    5cda:	58 16       	cp	r5, r24
    5cdc:	51 f0       	breq	.+20     	; 0x5cf2 <TFT_Korean+0x2da>
	        if(dot2 & 0x0001) pixel[x][y] = outline;
 	        if((dot3 & 0x0001) && (x < 15 )) pixel[x][y] = outline;
	        if((dot4 & 0x0001) && (x > 0 ))  pixel[x][y] = outline;
	      }

	    dot1 >>= 1;
    5cde:	96 94       	lsr	r9
    5ce0:	87 94       	ror	r8
	    dot2 = dot0;
	    dot0 >>= 1;
	    dot3 >>= 1;
    5ce2:	d6 94       	lsr	r13
    5ce4:	c7 94       	ror	r12
	    dot4 >>= 1;
    5ce6:	16 95       	lsr	r17
    5ce8:	07 95       	ror	r16
    5cea:	42 2e       	mov	r4, r18
    5cec:	36 95       	lsr	r19
    5cee:	27 95       	ror	r18
    5cf0:	db cf       	rjmp	.-74     	; 0x5ca8 <TFT_Korean+0x290>
    5cf2:	4f 5f       	subi	r20, 0xFF	; 255
    5cf4:	5f 4f       	sbci	r21, 0xFF	; 255
    5cf6:	11 96       	adiw	r26, 0x01	; 1
	  data = data >> 1;
	}
    }

  if(outline_flag == 1)				// display outline
    for(x = 0; x < 16; x++)
    5cf8:	40 31       	cpi	r20, 0x10	; 16
    5cfa:	51 05       	cpc	r21, r1
    5cfc:	09 f0       	breq	.+2      	; 0x5d00 <TFT_Korean+0x2e8>
    5cfe:	ab cf       	rjmp	.-170    	; 0x5c56 <TFT_Korean+0x23e>
	    dot3 >>= 1;
	    dot4 >>= 1;
          }
      }

  if(Xcharacter >= (XcharacterLimit-1))		// end of line ?
    5d00:	20 91 3c 0c 	lds	r18, 0x0C3C
    5d04:	30 e0       	ldi	r19, 0x00	; 0
    5d06:	80 91 27 0b 	lds	r24, 0x0B27
    5d0a:	90 e0       	ldi	r25, 0x00	; 0
    5d0c:	01 97       	sbiw	r24, 0x01	; 1
    5d0e:	28 17       	cp	r18, r24
    5d10:	39 07       	cpc	r19, r25
    5d12:	8c f0       	brlt	.+34     	; 0x5d36 <TFT_Korean+0x31e>
    { Xcharacter = 0;
    5d14:	10 92 3c 0c 	sts	0x0C3C, r1
      Ycharacter += 2;
    5d18:	20 91 45 0b 	lds	r18, 0x0B45
    5d1c:	2e 5f       	subi	r18, 0xFE	; 254
    5d1e:	20 93 45 0b 	sts	0x0B45, r18
      if(Ycharacter >= (YcharacterLimit-1))	// end of screen ?
    5d22:	30 e0       	ldi	r19, 0x00	; 0
    5d24:	80 91 28 0b 	lds	r24, 0x0B28
    5d28:	90 e0       	ldi	r25, 0x00	; 0
    5d2a:	01 97       	sbiw	r24, 0x01	; 1
    5d2c:	28 17       	cp	r18, r24
    5d2e:	39 07       	cpc	r19, r25
    5d30:	14 f0       	brlt	.+4      	; 0x5d36 <TFT_Korean+0x31e>
        Ycharacter = 0;
    5d32:	10 92 45 0b 	sts	0x0B45, r1
    }
  
  if(underscore_flag == 1)
    5d36:	80 91 40 0b 	lds	r24, 0x0B40
    5d3a:	81 30       	cpi	r24, 0x01	; 1
    5d3c:	79 f4       	brne	.+30     	; 0x5d5c <TFT_Korean+0x344>
    { for(x = 0; x < 16; x++)			// display underscore
          pixel[x][15] = underscore;
    5d3e:	80 91 51 0c 	lds	r24, 0x0C51
    5d42:	90 91 52 0c 	lds	r25, 0x0C52
    5d46:	fe 01       	movw	r30, r28
    5d48:	ff 96       	adiw	r30, 0x3f	; 63
      if(Ycharacter >= (YcharacterLimit-1))	// end of screen ?
        Ycharacter = 0;
    }
  
  if(underscore_flag == 1)
    { for(x = 0; x < 16; x++)			// display underscore
    5d4a:	9e 01       	movw	r18, r28
    5d4c:	21 5c       	subi	r18, 0xC1	; 193
    5d4e:	3d 4f       	sbci	r19, 0xFD	; 253
          pixel[x][15] = underscore;
    5d50:	91 83       	std	Z+1, r25	; 0x01
    5d52:	80 83       	st	Z, r24
    5d54:	b0 96       	adiw	r30, 0x20	; 32
      if(Ycharacter >= (YcharacterLimit-1))	// end of screen ?
        Ycharacter = 0;
    }
  
  if(underscore_flag == 1)
    { for(x = 0; x < 16; x++)			// display underscore
    5d56:	e2 17       	cp	r30, r18
    5d58:	f3 07       	cpc	r31, r19
    5d5a:	d1 f7       	brne	.-12     	; 0x5d50 <TFT_Korean+0x338>
          pixel[x][15] = underscore;
    }

  if((cursor_flag == 1) && (Xcharacter == Xcursor) &&(Ycharacter == Ycursor))
    5d5c:	80 91 3f 0b 	lds	r24, 0x0B3F
    5d60:	81 30       	cpi	r24, 0x01	; 1
    5d62:	31 f4       	brne	.+12     	; 0x5d70 <TFT_Korean+0x358>
    5d64:	90 91 3c 0c 	lds	r25, 0x0C3C
    5d68:	80 91 4a 0c 	lds	r24, 0x0C4A
    5d6c:	98 17       	cp	r25, r24
    5d6e:	41 f0       	breq	.+16     	; 0x5d80 <TFT_Korean+0x368>
    5d70:	cc 24       	eor	r12, r12
    5d72:	dd 24       	eor	r13, r13
        { pixel[x][14] = cursor;
          pixel[x][15] = cursor;
        }
    }

  for(y = 0; y < 16; y++)			// write a character
    5d74:	a1 e2       	ldi	r26, 0x21	; 33
    5d76:	aa 2e       	mov	r10, r26
    5d78:	b1 2c       	mov	r11, r1
    5d7a:	ac 0e       	add	r10, r28
    5d7c:	bd 1e       	adc	r11, r29
    5d7e:	41 c0       	rjmp	.+130    	; 0x5e02 <TFT_Korean+0x3ea>
  if(underscore_flag == 1)
    { for(x = 0; x < 16; x++)			// display underscore
          pixel[x][15] = underscore;
    }

  if((cursor_flag == 1) && (Xcharacter == Xcursor) &&(Ycharacter == Ycursor))
    5d80:	90 91 45 0b 	lds	r25, 0x0B45
    5d84:	80 91 48 0b 	lds	r24, 0x0B48
    5d88:	98 17       	cp	r25, r24
    5d8a:	91 f7       	brne	.-28     	; 0x5d70 <TFT_Korean+0x358>
    { for(x = 0; x < 16; x++)			// display cursor
        { pixel[x][14] = cursor;
    5d8c:	80 91 2f 0c 	lds	r24, 0x0C2F
    5d90:	90 91 30 0c 	lds	r25, 0x0C30
    5d94:	fe 01       	movw	r30, r28
    5d96:	fd 96       	adiw	r30, 0x3d	; 61
    { for(x = 0; x < 16; x++)			// display underscore
          pixel[x][15] = underscore;
    }

  if((cursor_flag == 1) && (Xcharacter == Xcursor) &&(Ycharacter == Ycursor))
    { for(x = 0; x < 16; x++)			// display cursor
    5d98:	9e 01       	movw	r18, r28
    5d9a:	23 5c       	subi	r18, 0xC3	; 195
    5d9c:	3d 4f       	sbci	r19, 0xFD	; 253
        { pixel[x][14] = cursor;
    5d9e:	91 83       	std	Z+1, r25	; 0x01
    5da0:	80 83       	st	Z, r24
          pixel[x][15] = cursor;
    5da2:	93 83       	std	Z+3, r25	; 0x03
    5da4:	82 83       	std	Z+2, r24	; 0x02
    5da6:	b0 96       	adiw	r30, 0x20	; 32
    { for(x = 0; x < 16; x++)			// display underscore
          pixel[x][15] = underscore;
    }

  if((cursor_flag == 1) && (Xcharacter == Xcursor) &&(Ycharacter == Ycursor))
    { for(x = 0; x < 16; x++)			// display cursor
    5da8:	e2 17       	cp	r30, r18
    5daa:	f3 07       	cpc	r31, r19
    5dac:	c1 f7       	brne	.-16     	; 0x5d9e <TFT_Korean+0x386>
    5dae:	e0 cf       	rjmp	.-64     	; 0x5d70 <TFT_Korean+0x358>
        }
    }

  for(y = 0; y < 16; y++)			// write a character
    for(x = 0; x < 16; x++)
      TFT_pixel(Xcharacter*8 + x, Ycharacter*8 + y, pixel[x][y]);
    5db0:	80 91 3c 0c 	lds	r24, 0x0C3C
    5db4:	90 e0       	ldi	r25, 0x00	; 0
    5db6:	f3 e0       	ldi	r31, 0x03	; 3
    5db8:	88 0f       	add	r24, r24
    5dba:	99 1f       	adc	r25, r25
    5dbc:	fa 95       	dec	r31
    5dbe:	e1 f7       	brne	.-8      	; 0x5db8 <TFT_Korean+0x3a0>
    5dc0:	60 91 45 0b 	lds	r22, 0x0B45
    5dc4:	70 e0       	ldi	r23, 0x00	; 0
    5dc6:	e3 e0       	ldi	r30, 0x03	; 3
    5dc8:	66 0f       	add	r22, r22
    5dca:	77 1f       	adc	r23, r23
    5dcc:	ea 95       	dec	r30
    5dce:	e1 f7       	brne	.-8      	; 0x5dc8 <TFT_Korean+0x3b0>
    5dd0:	6c 0d       	add	r22, r12
    5dd2:	7d 1d       	adc	r23, r13
    5dd4:	d8 01       	movw	r26, r16
    5dd6:	4d 91       	ld	r20, X+
    5dd8:	5c 91       	ld	r21, X
    5dda:	8e 0d       	add	r24, r14
    5ddc:	9f 1d       	adc	r25, r15
    5dde:	0e 94 52 2a 	call	0x54a4	; 0x54a4 <TFT_pixel>
    5de2:	08 94       	sec
    5de4:	e1 1c       	adc	r14, r1
    5de6:	f1 1c       	adc	r15, r1
    5de8:	00 5e       	subi	r16, 0xE0	; 224
    5dea:	1f 4f       	sbci	r17, 0xFF	; 255
          pixel[x][15] = cursor;
        }
    }

  for(y = 0; y < 16; y++)			// write a character
    for(x = 0; x < 16; x++)
    5dec:	b0 e1       	ldi	r27, 0x10	; 16
    5dee:	eb 16       	cp	r14, r27
    5df0:	f1 04       	cpc	r15, r1
    5df2:	f1 f6       	brne	.-68     	; 0x5db0 <TFT_Korean+0x398>
    5df4:	08 94       	sec
    5df6:	c1 1c       	adc	r12, r1
    5df8:	d1 1c       	adc	r13, r1
        { pixel[x][14] = cursor;
          pixel[x][15] = cursor;
        }
    }

  for(y = 0; y < 16; y++)			// write a character
    5dfa:	e0 e1       	ldi	r30, 0x10	; 16
    5dfc:	ce 16       	cp	r12, r30
    5dfe:	d1 04       	cpc	r13, r1
    5e00:	41 f0       	breq	.+16     	; 0x5e12 <TFT_Korean+0x3fa>
    5e02:	86 01       	movw	r16, r12
    5e04:	00 0f       	add	r16, r16
    5e06:	11 1f       	adc	r17, r17
    5e08:	0a 0d       	add	r16, r10
    5e0a:	1b 1d       	adc	r17, r11
    5e0c:	ee 24       	eor	r14, r14
    5e0e:	ff 24       	eor	r15, r15
    5e10:	cf cf       	rjmp	.-98     	; 0x5db0 <TFT_Korean+0x398>
    for(x = 0; x < 16; x++)
      TFT_pixel(Xcharacter*8 + x, Ycharacter*8 + y, pixel[x][y]);

  Xcharacter += 2;				// go to next position
    5e12:	80 91 3c 0c 	lds	r24, 0x0C3C
    5e16:	8e 5f       	subi	r24, 0xFE	; 254
    5e18:	80 93 3c 0c 	sts	0x0C3C, r24
}
    5e1c:	c0 5e       	subi	r28, 0xE0	; 224
    5e1e:	dd 4f       	sbci	r29, 0xFD	; 253
    5e20:	0f b6       	in	r0, 0x3f	; 63
    5e22:	f8 94       	cli
    5e24:	de bf       	out	0x3e, r29	; 62
    5e26:	0f be       	out	0x3f, r0	; 63
    5e28:	cd bf       	out	0x3d, r28	; 61
    5e2a:	cf 91       	pop	r28
    5e2c:	df 91       	pop	r29
    5e2e:	1f 91       	pop	r17
    5e30:	0f 91       	pop	r16
    5e32:	ff 90       	pop	r15
    5e34:	ef 90       	pop	r14
    5e36:	df 90       	pop	r13
    5e38:	cf 90       	pop	r12
    5e3a:	bf 90       	pop	r11
    5e3c:	af 90       	pop	r10
    5e3e:	9f 90       	pop	r9
    5e40:	8f 90       	pop	r8
    5e42:	7f 90       	pop	r7
    5e44:	6f 90       	pop	r6
    5e46:	5f 90       	pop	r5
    5e48:	4f 90       	pop	r4
    5e4a:	3f 90       	pop	r3
    5e4c:	2f 90       	pop	r2
    5e4e:	08 95       	ret

00005e50 <TFT_string>:
      outline = outline_color;
    }
}

void TFT_string(U08 xChar, U08 yChar, U16 colorfore, U16 colorback, char *str)	/* write TFT-LCD string */
{
    5e50:	0f 93       	push	r16
    5e52:	1f 93       	push	r17
    5e54:	cf 93       	push	r28
    5e56:	df 93       	push	r29
    5e58:	e8 01       	movw	r28, r16
  unsigned char ch1;
  unsigned int ch2;

  Xcharacter = xChar;
    5e5a:	80 93 3c 0c 	sts	0x0C3C, r24
  Ycharacter = yChar;
    5e5e:	60 93 45 0b 	sts	0x0B45, r22

  foreground = colorfore;
    5e62:	50 93 50 0b 	sts	0x0B50, r21
    5e66:	40 93 4f 0b 	sts	0x0B4F, r20
  background = colorback;
    5e6a:	30 93 56 0b 	sts	0x0B56, r19
    5e6e:	20 93 55 0b 	sts	0x0B55, r18
    5e72:	12 c0       	rjmp	.+36     	; 0x5e98 <TFT_string+0x48>

  while(*str)
    { ch1 = *str;
      str++;
    5e74:	21 96       	adiw	r28, 0x01	; 1

      if(ch1 < 0x80)				// English ASCII character
    5e76:	97 fd       	sbrc	r25, 7
    5e78:	04 c0       	rjmp	.+8      	; 0x5e82 <TFT_string+0x32>
	TFT_English(ch1);
    5e7a:	89 2f       	mov	r24, r25
    5e7c:	0e 94 3e 2b 	call	0x567c	; 0x567c <TFT_English>
    5e80:	0b c0       	rjmp	.+22     	; 0x5e98 <TFT_string+0x48>
      else					// Korean
	{ ch2 = (ch1 << 8) + (*str);
    5e82:	89 91       	ld	r24, Y+
    5e84:	19 2f       	mov	r17, r25
    5e86:	00 e0       	ldi	r16, 0x00	; 0
          str++;
	  ch2 = KS_code_conversion(ch2);	// convert KSSM() to KS()
    5e88:	98 01       	movw	r18, r16
    5e8a:	28 0f       	add	r18, r24
    5e8c:	31 1d       	adc	r19, r1
    5e8e:	c9 01       	movw	r24, r18
    5e90:	0e 94 e6 2c 	call	0x59cc	; 0x59cc <KS_code_conversion>
	  TFT_Korean(ch2);
    5e94:	0e 94 0c 2d 	call	0x5a18	; 0x5a18 <TFT_Korean>
  Ycharacter = yChar;

  foreground = colorfore;
  background = colorback;

  while(*str)
    5e98:	98 81       	ld	r25, Y
    5e9a:	99 23       	and	r25, r25
    5e9c:	59 f7       	brne	.-42     	; 0x5e74 <TFT_string+0x24>
          str++;
	  ch2 = KS_code_conversion(ch2);	// convert KSSM() to KS()
	  TFT_Korean(ch2);
	}
   }
}
    5e9e:	df 91       	pop	r29
    5ea0:	cf 91       	pop	r28
    5ea2:	1f 91       	pop	r17
    5ea4:	0f 91       	pop	r16
    5ea6:	08 95       	ret

00005ea8 <TFT_binary>:
/* ---------------------------------------------------------------------------- */
/*		TFT-LCD     				*/
/* ---------------------------------------------------------------------------- */

void TFT_binary(U16 number, U08 digit)		/* display 8 or 16 bit binary number */
{
    5ea8:	1f 93       	push	r17
    5eaa:	cf 93       	push	r28
    5eac:	df 93       	push	r29
    5eae:	ec 01       	movw	r28, r24
    5eb0:	16 2f       	mov	r17, r22
  unsigned char i, shift;

  if((digit == 0) || (digit > 16)) return;
    5eb2:	11 50       	subi	r17, 0x01	; 1
    5eb4:	10 31       	cpi	r17, 0x10	; 16
    5eb6:	68 f4       	brcc	.+26     	; 0x5ed2 <TFT_binary+0x2a>

  shift = digit - 1;
  for(i = 0; i < digit; i++ )
    { TFT_English(((number >> shift) & 0x01) + '0');
    5eb8:	ce 01       	movw	r24, r28
    5eba:	01 2e       	mov	r0, r17
    5ebc:	02 c0       	rjmp	.+4      	; 0x5ec2 <TFT_binary+0x1a>
    5ebe:	96 95       	lsr	r25
    5ec0:	87 95       	ror	r24
    5ec2:	0a 94       	dec	r0
    5ec4:	e2 f7       	brpl	.-8      	; 0x5ebe <TFT_binary+0x16>
    5ec6:	81 70       	andi	r24, 0x01	; 1
    5ec8:	80 5d       	subi	r24, 0xD0	; 208
    5eca:	0e 94 3e 2b 	call	0x567c	; 0x567c <TFT_English>
      shift--;
    5ece:	11 50       	subi	r17, 0x01	; 1
    5ed0:	98 f7       	brcc	.-26     	; 0x5eb8 <TFT_binary+0x10>
    }
}
    5ed2:	df 91       	pop	r29
    5ed4:	cf 91       	pop	r28
    5ed6:	1f 91       	pop	r17
    5ed8:	08 95       	ret

00005eda <TFT_unsigned_decimal>:

void TFT_unsigned_decimal(U32 number, U08 zerofill, U08 digit) /* display unsigned decimal number */
{
    5eda:	8f 92       	push	r8
    5edc:	9f 92       	push	r9
    5ede:	af 92       	push	r10
    5ee0:	bf 92       	push	r11
    5ee2:	cf 92       	push	r12
    5ee4:	df 92       	push	r13
    5ee6:	ef 92       	push	r14
    5ee8:	ff 92       	push	r15
    5eea:	0f 93       	push	r16
    5eec:	1f 93       	push	r17
    5eee:	4b 01       	movw	r8, r22
    5ef0:	5c 01       	movw	r10, r24
    5ef2:	c4 2e       	mov	r12, r20
    5ef4:	d2 2e       	mov	r13, r18
  unsigned char zero_flag, character;
  unsigned long div;

  if((digit == 0) || (digit > 9)) return;
    5ef6:	82 2f       	mov	r24, r18
    5ef8:	81 50       	subi	r24, 0x01	; 1
    5efa:	89 30       	cpi	r24, 0x09	; 9
    5efc:	08 f0       	brcs	.+2      	; 0x5f00 <TFT_unsigned_decimal+0x26>
    5efe:	47 c0       	rjmp	.+142    	; 0x5f8e <TFT_unsigned_decimal+0xb4>
    5f00:	81 e0       	ldi	r24, 0x01	; 1
    5f02:	e8 2e       	mov	r14, r24
    5f04:	f1 2c       	mov	r15, r1
    5f06:	01 2d       	mov	r16, r1
    5f08:	11 2d       	mov	r17, r1
    5f0a:	0a c0       	rjmp	.+20     	; 0x5f20 <TFT_unsigned_decimal+0x46>

  div = 1;
  while(--digit) div *= 10;
    5f0c:	c8 01       	movw	r24, r16
    5f0e:	b7 01       	movw	r22, r14
    5f10:	2a e0       	ldi	r18, 0x0A	; 10
    5f12:	30 e0       	ldi	r19, 0x00	; 0
    5f14:	40 e0       	ldi	r20, 0x00	; 0
    5f16:	50 e0       	ldi	r21, 0x00	; 0
    5f18:	0e 94 e8 60 	call	0xc1d0	; 0xc1d0 <__mulsi3>
    5f1c:	7b 01       	movw	r14, r22
    5f1e:	8c 01       	movw	r16, r24
    5f20:	da 94       	dec	r13
    5f22:	a1 f7       	brne	.-24     	; 0x5f0c <TFT_unsigned_decimal+0x32>
    5f24:	dc 2c       	mov	r13, r12
    5f26:	2e c0       	rjmp	.+92     	; 0x5f84 <TFT_unsigned_decimal+0xaa>

  zero_flag = zerofill;
  while(div > 0)				// display number
    { character = number / div;
    5f28:	b4 01       	movw	r22, r8
    5f2a:	c5 01       	movw	r24, r10
    5f2c:	a8 01       	movw	r20, r16
    5f2e:	97 01       	movw	r18, r14
    5f30:	0e 94 3a 61 	call	0xc274	; 0xc274 <__udivmodsi4>
      if((character == 0) && (zero_flag == 0) && (div != 1))
    5f34:	22 23       	and	r18, r18
    5f36:	61 f4       	brne	.+24     	; 0x5f50 <TFT_unsigned_decimal+0x76>
    5f38:	dd 20       	and	r13, r13
    5f3a:	51 f4       	brne	.+20     	; 0x5f50 <TFT_unsigned_decimal+0x76>
    5f3c:	81 e0       	ldi	r24, 0x01	; 1
    5f3e:	e8 16       	cp	r14, r24
    5f40:	f1 04       	cpc	r15, r1
    5f42:	01 05       	cpc	r16, r1
    5f44:	11 05       	cpc	r17, r1
    5f46:	21 f0       	breq	.+8      	; 0x5f50 <TFT_unsigned_decimal+0x76>
        TFT_English(character + ' ');
    5f48:	80 e2       	ldi	r24, 0x20	; 32
    5f4a:	0e 94 3e 2b 	call	0x567c	; 0x567c <TFT_English>
    5f4e:	06 c0       	rjmp	.+12     	; 0x5f5c <TFT_unsigned_decimal+0x82>
      else
        { zero_flag = 1;
          TFT_English(character + '0');
    5f50:	82 2f       	mov	r24, r18
    5f52:	80 5d       	subi	r24, 0xD0	; 208
    5f54:	0e 94 3e 2b 	call	0x567c	; 0x567c <TFT_English>
    5f58:	dd 24       	eor	r13, r13
    5f5a:	d3 94       	inc	r13
        }
      number %= div;
    5f5c:	b4 01       	movw	r22, r8
    5f5e:	c5 01       	movw	r24, r10
    5f60:	a8 01       	movw	r20, r16
    5f62:	97 01       	movw	r18, r14
    5f64:	0e 94 3a 61 	call	0xc274	; 0xc274 <__udivmodsi4>
    5f68:	4b 01       	movw	r8, r22
    5f6a:	5c 01       	movw	r10, r24
      div /= 10;
    5f6c:	c8 01       	movw	r24, r16
    5f6e:	b7 01       	movw	r22, r14
    5f70:	2a e0       	ldi	r18, 0x0A	; 10
    5f72:	30 e0       	ldi	r19, 0x00	; 0
    5f74:	40 e0       	ldi	r20, 0x00	; 0
    5f76:	50 e0       	ldi	r21, 0x00	; 0
    5f78:	0e 94 3a 61 	call	0xc274	; 0xc274 <__udivmodsi4>
    5f7c:	c9 01       	movw	r24, r18
    5f7e:	da 01       	movw	r26, r20
    5f80:	7c 01       	movw	r14, r24
    5f82:	8d 01       	movw	r16, r26

  div = 1;
  while(--digit) div *= 10;

  zero_flag = zerofill;
  while(div > 0)				// display number
    5f84:	e1 14       	cp	r14, r1
    5f86:	f1 04       	cpc	r15, r1
    5f88:	01 05       	cpc	r16, r1
    5f8a:	11 05       	cpc	r17, r1
    5f8c:	69 f6       	brne	.-102    	; 0x5f28 <TFT_unsigned_decimal+0x4e>
          TFT_English(character + '0');
        }
      number %= div;
      div /= 10;
    }
}
    5f8e:	1f 91       	pop	r17
    5f90:	0f 91       	pop	r16
    5f92:	ff 90       	pop	r15
    5f94:	ef 90       	pop	r14
    5f96:	df 90       	pop	r13
    5f98:	cf 90       	pop	r12
    5f9a:	bf 90       	pop	r11
    5f9c:	af 90       	pop	r10
    5f9e:	9f 90       	pop	r9
    5fa0:	8f 90       	pop	r8
    5fa2:	08 95       	ret

00005fa4 <TFT_signed_decimal>:

void TFT_signed_decimal(S32 number, U08 zerofill, U08 digit)	/* display signed decimal number */
{
    5fa4:	5f 92       	push	r5
    5fa6:	6f 92       	push	r6
    5fa8:	7f 92       	push	r7
    5faa:	8f 92       	push	r8
    5fac:	9f 92       	push	r9
    5fae:	af 92       	push	r10
    5fb0:	bf 92       	push	r11
    5fb2:	cf 92       	push	r12
    5fb4:	df 92       	push	r13
    5fb6:	ef 92       	push	r14
    5fb8:	ff 92       	push	r15
    5fba:	0f 93       	push	r16
    5fbc:	1f 93       	push	r17
    5fbe:	7b 01       	movw	r14, r22
    5fc0:	8c 01       	movw	r16, r24
    5fc2:	84 2e       	mov	r8, r20
    5fc4:	92 2e       	mov	r9, r18
  unsigned char zero_flag, character;
  unsigned long div;

  if((digit == 0) || (digit > 9)) return;
    5fc6:	82 2f       	mov	r24, r18
    5fc8:	81 50       	subi	r24, 0x01	; 1
    5fca:	89 30       	cpi	r24, 0x09	; 9
    5fcc:	08 f0       	brcs	.+2      	; 0x5fd0 <TFT_signed_decimal+0x2c>
    5fce:	61 c0       	rjmp	.+194    	; 0x6092 <TFT_signed_decimal+0xee>

  if(number >= 0)				// display sign
    5fd0:	17 fd       	sbrc	r17, 7
    5fd2:	04 c0       	rjmp	.+8      	; 0x5fdc <TFT_signed_decimal+0x38>
    TFT_English('+');
    5fd4:	8b e2       	ldi	r24, 0x2B	; 43
    5fd6:	0e 94 3e 2b 	call	0x567c	; 0x567c <TFT_English>
    5fda:	0b c0       	rjmp	.+22     	; 0x5ff2 <TFT_signed_decimal+0x4e>
  else
    { TFT_English('-');
    5fdc:	8d e2       	ldi	r24, 0x2D	; 45
    5fde:	0e 94 3e 2b 	call	0x567c	; 0x567c <TFT_English>
      number = -number;
    5fe2:	10 95       	com	r17
    5fe4:	00 95       	com	r16
    5fe6:	f0 94       	com	r15
    5fe8:	e0 94       	com	r14
    5fea:	e1 1c       	adc	r14, r1
    5fec:	f1 1c       	adc	r15, r1
    5fee:	01 1d       	adc	r16, r1
    5ff0:	11 1d       	adc	r17, r1
    5ff2:	91 e0       	ldi	r25, 0x01	; 1
    5ff4:	a9 2e       	mov	r10, r25
    5ff6:	b1 2c       	mov	r11, r1
    5ff8:	c1 2c       	mov	r12, r1
    5ffa:	d1 2c       	mov	r13, r1
    5ffc:	0a c0       	rjmp	.+20     	; 0x6012 <TFT_signed_decimal+0x6e>
    }

  div = 1;
  while(--digit) div *= 10;
    5ffe:	c6 01       	movw	r24, r12
    6000:	b5 01       	movw	r22, r10
    6002:	2a e0       	ldi	r18, 0x0A	; 10
    6004:	30 e0       	ldi	r19, 0x00	; 0
    6006:	40 e0       	ldi	r20, 0x00	; 0
    6008:	50 e0       	ldi	r21, 0x00	; 0
    600a:	0e 94 e8 60 	call	0xc1d0	; 0xc1d0 <__mulsi3>
    600e:	5b 01       	movw	r10, r22
    6010:	6c 01       	movw	r12, r24
    6012:	9a 94       	dec	r9
    6014:	a1 f7       	brne	.-24     	; 0x5ffe <TFT_signed_decimal+0x5a>
    6016:	58 2c       	mov	r5, r8
    6018:	37 c0       	rjmp	.+110    	; 0x6088 <TFT_signed_decimal+0xe4>

  zero_flag = zerofill;
  while(div > 0)				// display number
    { character = number / div;
    601a:	9e 2c       	mov	r9, r14
    601c:	8f 2c       	mov	r8, r15
    601e:	70 2e       	mov	r7, r16
    6020:	61 2e       	mov	r6, r17
    6022:	b7 01       	movw	r22, r14
    6024:	c8 01       	movw	r24, r16
    6026:	a6 01       	movw	r20, r12
    6028:	95 01       	movw	r18, r10
    602a:	0e 94 3a 61 	call	0xc274	; 0xc274 <__udivmodsi4>
      if((character == 0) && (zero_flag == 0) && (div != 1))
    602e:	22 23       	and	r18, r18
    6030:	61 f4       	brne	.+24     	; 0x604a <TFT_signed_decimal+0xa6>
    6032:	55 20       	and	r5, r5
    6034:	51 f4       	brne	.+20     	; 0x604a <TFT_signed_decimal+0xa6>
    6036:	81 e0       	ldi	r24, 0x01	; 1
    6038:	a8 16       	cp	r10, r24
    603a:	b1 04       	cpc	r11, r1
    603c:	c1 04       	cpc	r12, r1
    603e:	d1 04       	cpc	r13, r1
    6040:	21 f0       	breq	.+8      	; 0x604a <TFT_signed_decimal+0xa6>
        TFT_English(character + ' ');
    6042:	80 e2       	ldi	r24, 0x20	; 32
    6044:	0e 94 3e 2b 	call	0x567c	; 0x567c <TFT_English>
    6048:	06 c0       	rjmp	.+12     	; 0x6056 <TFT_signed_decimal+0xb2>
      else
        { zero_flag = 1;
          TFT_English(character + '0');
    604a:	82 2f       	mov	r24, r18
    604c:	80 5d       	subi	r24, 0xD0	; 208
    604e:	0e 94 3e 2b 	call	0x567c	; 0x567c <TFT_English>
    6052:	55 24       	eor	r5, r5
    6054:	53 94       	inc	r5
        }
      number %= div;
    6056:	69 2d       	mov	r22, r9
    6058:	78 2d       	mov	r23, r8
    605a:	87 2d       	mov	r24, r7
    605c:	96 2d       	mov	r25, r6
    605e:	a6 01       	movw	r20, r12
    6060:	95 01       	movw	r18, r10
    6062:	0e 94 3a 61 	call	0xc274	; 0xc274 <__udivmodsi4>
    6066:	ac 01       	movw	r20, r24
    6068:	cb 01       	movw	r24, r22
    606a:	da 01       	movw	r26, r20
    606c:	7c 01       	movw	r14, r24
    606e:	8d 01       	movw	r16, r26
      div /= 10;
    6070:	c6 01       	movw	r24, r12
    6072:	b5 01       	movw	r22, r10
    6074:	2a e0       	ldi	r18, 0x0A	; 10
    6076:	30 e0       	ldi	r19, 0x00	; 0
    6078:	40 e0       	ldi	r20, 0x00	; 0
    607a:	50 e0       	ldi	r21, 0x00	; 0
    607c:	0e 94 3a 61 	call	0xc274	; 0xc274 <__udivmodsi4>
    6080:	c9 01       	movw	r24, r18
    6082:	da 01       	movw	r26, r20
    6084:	5c 01       	movw	r10, r24
    6086:	6d 01       	movw	r12, r26

  div = 1;
  while(--digit) div *= 10;

  zero_flag = zerofill;
  while(div > 0)				// display number
    6088:	a1 14       	cp	r10, r1
    608a:	b1 04       	cpc	r11, r1
    608c:	c1 04       	cpc	r12, r1
    608e:	d1 04       	cpc	r13, r1
    6090:	21 f6       	brne	.-120    	; 0x601a <TFT_signed_decimal+0x76>
          TFT_English(character + '0');
        }
      number %= div;
      div /= 10;
    }
}
    6092:	1f 91       	pop	r17
    6094:	0f 91       	pop	r16
    6096:	ff 90       	pop	r15
    6098:	ef 90       	pop	r14
    609a:	df 90       	pop	r13
    609c:	cf 90       	pop	r12
    609e:	bf 90       	pop	r11
    60a0:	af 90       	pop	r10
    60a2:	9f 90       	pop	r9
    60a4:	8f 90       	pop	r8
    60a6:	7f 90       	pop	r7
    60a8:	6f 90       	pop	r6
    60aa:	5f 90       	pop	r5
    60ac:	08 95       	ret

000060ae <TFT_hexadecimal>:

void TFT_hexadecimal(U32 number, U08 digit)	/* display hexadecimal number */
{
    60ae:	cf 92       	push	r12
    60b0:	df 92       	push	r13
    60b2:	ef 92       	push	r14
    60b4:	ff 92       	push	r15
    60b6:	1f 93       	push	r17
    60b8:	6b 01       	movw	r12, r22
    60ba:	7c 01       	movw	r14, r24
  unsigned char i, character;

  if((digit == 0) || (digit > 8)) return;
    60bc:	84 2f       	mov	r24, r20
    60be:	81 50       	subi	r24, 0x01	; 1
    60c0:	88 30       	cpi	r24, 0x08	; 8
    60c2:	f8 f4       	brcc	.+62     	; 0x6102 <TFT_hexadecimal+0x54>
    60c4:	14 2f       	mov	r17, r20
    60c6:	1b c0       	rjmp	.+54     	; 0x60fe <TFT_hexadecimal+0x50>

  for(i = digit; i > 0; i--)
    { character = (number >> 4*(i-1)) & 0x0F;
    60c8:	81 2f       	mov	r24, r17
    60ca:	90 e0       	ldi	r25, 0x00	; 0
    60cc:	01 97       	sbiw	r24, 0x01	; 1
    60ce:	88 0f       	add	r24, r24
    60d0:	99 1f       	adc	r25, r25
    60d2:	88 0f       	add	r24, r24
    60d4:	99 1f       	adc	r25, r25
    60d6:	a7 01       	movw	r20, r14
    60d8:	96 01       	movw	r18, r12
    60da:	04 c0       	rjmp	.+8      	; 0x60e4 <TFT_hexadecimal+0x36>
    60dc:	56 95       	lsr	r21
    60de:	47 95       	ror	r20
    60e0:	37 95       	ror	r19
    60e2:	27 95       	ror	r18
    60e4:	8a 95       	dec	r24
    60e6:	d2 f7       	brpl	.-12     	; 0x60dc <TFT_hexadecimal+0x2e>
    60e8:	da 01       	movw	r26, r20
    60ea:	c9 01       	movw	r24, r18
    60ec:	8f 70       	andi	r24, 0x0F	; 15
      if(character < 10) TFT_English(character + '0');
    60ee:	8a 30       	cpi	r24, 0x0A	; 10
    60f0:	10 f4       	brcc	.+4      	; 0x60f6 <TFT_hexadecimal+0x48>
    60f2:	80 5d       	subi	r24, 0xD0	; 208
    60f4:	01 c0       	rjmp	.+2      	; 0x60f8 <TFT_hexadecimal+0x4a>
      else               TFT_English(character - 10 + 'A');
    60f6:	89 5c       	subi	r24, 0xC9	; 201
    60f8:	0e 94 3e 2b 	call	0x567c	; 0x567c <TFT_English>
{
  unsigned char i, character;

  if((digit == 0) || (digit > 8)) return;

  for(i = digit; i > 0; i--)
    60fc:	11 50       	subi	r17, 0x01	; 1
    60fe:	11 23       	and	r17, r17
    6100:	19 f7       	brne	.-58     	; 0x60c8 <TFT_hexadecimal+0x1a>
    { character = (number >> 4*(i-1)) & 0x0F;
      if(character < 10) TFT_English(character + '0');
      else               TFT_English(character - 10 + 'A');
    }
}
    6102:	1f 91       	pop	r17
    6104:	ff 90       	pop	r15
    6106:	ef 90       	pop	r14
    6108:	df 90       	pop	r13
    610a:	cf 90       	pop	r12
    610c:	08 95       	ret

0000610e <TFT_0x_hexadecimal>:

void TFT_0x_hexadecimal(U32 number, U08 digit)	/* display hexadecimal number with 0x */
{
    610e:	cf 92       	push	r12
    6110:	df 92       	push	r13
    6112:	ef 92       	push	r14
    6114:	ff 92       	push	r15
    6116:	1f 93       	push	r17
    6118:	6b 01       	movw	r12, r22
    611a:	7c 01       	movw	r14, r24
    611c:	14 2f       	mov	r17, r20
  unsigned char i, character;

  if((digit == 0) || (digit > 8)) return;
    611e:	84 2f       	mov	r24, r20
    6120:	81 50       	subi	r24, 0x01	; 1
    6122:	88 30       	cpi	r24, 0x08	; 8
    6124:	20 f5       	brcc	.+72     	; 0x616e <TFT_0x_hexadecimal+0x60>

  TFT_English('0');
    6126:	80 e3       	ldi	r24, 0x30	; 48
    6128:	0e 94 3e 2b 	call	0x567c	; 0x567c <TFT_English>
  TFT_English('x');
    612c:	88 e7       	ldi	r24, 0x78	; 120
    612e:	0e 94 3e 2b 	call	0x567c	; 0x567c <TFT_English>
    6132:	1b c0       	rjmp	.+54     	; 0x616a <TFT_0x_hexadecimal+0x5c>

  for(i = digit; i > 0; i--)
    { character = (number >> 4*(i-1)) & 0x0F;
    6134:	81 2f       	mov	r24, r17
    6136:	90 e0       	ldi	r25, 0x00	; 0
    6138:	01 97       	sbiw	r24, 0x01	; 1
    613a:	88 0f       	add	r24, r24
    613c:	99 1f       	adc	r25, r25
    613e:	88 0f       	add	r24, r24
    6140:	99 1f       	adc	r25, r25
    6142:	a7 01       	movw	r20, r14
    6144:	96 01       	movw	r18, r12
    6146:	04 c0       	rjmp	.+8      	; 0x6150 <TFT_0x_hexadecimal+0x42>
    6148:	56 95       	lsr	r21
    614a:	47 95       	ror	r20
    614c:	37 95       	ror	r19
    614e:	27 95       	ror	r18
    6150:	8a 95       	dec	r24
    6152:	d2 f7       	brpl	.-12     	; 0x6148 <TFT_0x_hexadecimal+0x3a>
    6154:	da 01       	movw	r26, r20
    6156:	c9 01       	movw	r24, r18
    6158:	8f 70       	andi	r24, 0x0F	; 15
      if(character < 10) TFT_English(character + '0');
    615a:	8a 30       	cpi	r24, 0x0A	; 10
    615c:	10 f4       	brcc	.+4      	; 0x6162 <TFT_0x_hexadecimal+0x54>
    615e:	80 5d       	subi	r24, 0xD0	; 208
    6160:	01 c0       	rjmp	.+2      	; 0x6164 <TFT_0x_hexadecimal+0x56>
      else               TFT_English(character - 10 + 'A');
    6162:	89 5c       	subi	r24, 0xC9	; 201
    6164:	0e 94 3e 2b 	call	0x567c	; 0x567c <TFT_English>
  if((digit == 0) || (digit > 8)) return;

  TFT_English('0');
  TFT_English('x');

  for(i = digit; i > 0; i--)
    6168:	11 50       	subi	r17, 0x01	; 1
    616a:	11 23       	and	r17, r17
    616c:	19 f7       	brne	.-58     	; 0x6134 <TFT_0x_hexadecimal+0x26>
    { character = (number >> 4*(i-1)) & 0x0F;
      if(character < 10) TFT_English(character + '0');
      else               TFT_English(character - 10 + 'A');
    }
}
    616e:	1f 91       	pop	r17
    6170:	ff 90       	pop	r15
    6172:	ef 90       	pop	r14
    6174:	df 90       	pop	r13
    6176:	cf 90       	pop	r12
    6178:	08 95       	ret

0000617a <TFT_unsigned_float>:

void TFT_unsigned_float(float number, U08 integral, U08 fractional) /* display unsigned floating-point number */
{
    617a:	7f 92       	push	r7
    617c:	8f 92       	push	r8
    617e:	9f 92       	push	r9
    6180:	af 92       	push	r10
    6182:	bf 92       	push	r11
    6184:	cf 92       	push	r12
    6186:	df 92       	push	r13
    6188:	ef 92       	push	r14
    618a:	ff 92       	push	r15
    618c:	0f 93       	push	r16
    618e:	1f 93       	push	r17
    6190:	5b 01       	movw	r10, r22
    6192:	6c 01       	movw	r12, r24
    6194:	74 2e       	mov	r7, r20
    6196:	82 2e       	mov	r8, r18
  unsigned char zero_flag, digit, character;	// integral = digits of integral part
  unsigned long div, integer;			// fractional = digits of fractional part

  digit = integral + fractional;
  if((integral == 0) || (fractional == 0) || (digit > 9)) return;
    6198:	44 23       	and	r20, r20
    619a:	09 f4       	brne	.+2      	; 0x619e <TFT_unsigned_float+0x24>
    619c:	6a c0       	rjmp	.+212    	; 0x6272 <TFT_unsigned_float+0xf8>
    619e:	22 23       	and	r18, r18
    61a0:	09 f4       	brne	.+2      	; 0x61a4 <TFT_unsigned_float+0x2a>
    61a2:	67 c0       	rjmp	.+206    	; 0x6272 <TFT_unsigned_float+0xf8>
void TFT_unsigned_float(float number, U08 integral, U08 fractional) /* display unsigned floating-point number */
{
  unsigned char zero_flag, digit, character;	// integral = digits of integral part
  unsigned long div, integer;			// fractional = digits of fractional part

  digit = integral + fractional;
    61a4:	92 2e       	mov	r9, r18
    61a6:	94 0e       	add	r9, r20
  if((integral == 0) || (fractional == 0) || (digit > 9)) return;
    61a8:	89 e0       	ldi	r24, 0x09	; 9
    61aa:	89 15       	cp	r24, r9
    61ac:	08 f4       	brcc	.+2      	; 0x61b0 <TFT_unsigned_float+0x36>
    61ae:	61 c0       	rjmp	.+194    	; 0x6272 <TFT_unsigned_float+0xf8>
    61b0:	41 e0       	ldi	r20, 0x01	; 1
    61b2:	e4 2e       	mov	r14, r20
    61b4:	f1 2c       	mov	r15, r1
    61b6:	01 2d       	mov	r16, r1
    61b8:	11 2d       	mov	r17, r1
    61ba:	0a c0       	rjmp	.+20     	; 0x61d0 <TFT_unsigned_float+0x56>

  div = 1;
  while(--digit) div *= 10;
    61bc:	c8 01       	movw	r24, r16
    61be:	b7 01       	movw	r22, r14
    61c0:	2a e0       	ldi	r18, 0x0A	; 10
    61c2:	30 e0       	ldi	r19, 0x00	; 0
    61c4:	40 e0       	ldi	r20, 0x00	; 0
    61c6:	50 e0       	ldi	r21, 0x00	; 0
    61c8:	0e 94 e8 60 	call	0xc1d0	; 0xc1d0 <__mulsi3>
    61cc:	7b 01       	movw	r14, r22
    61ce:	8c 01       	movw	r16, r24
    61d0:	9a 94       	dec	r9
    61d2:	a1 f7       	brne	.-24     	; 0x61bc <TFT_unsigned_float+0x42>

  while(fractional--) number *= 10.;
    61d4:	c6 01       	movw	r24, r12
    61d6:	b5 01       	movw	r22, r10
    61d8:	20 e0       	ldi	r18, 0x00	; 0
    61da:	30 e0       	ldi	r19, 0x00	; 0
    61dc:	40 e2       	ldi	r20, 0x20	; 32
    61de:	51 e4       	ldi	r21, 0x41	; 65
    61e0:	0e 94 1e 5c 	call	0xb83c	; 0xb83c <__mulsf3>
    61e4:	5b 01       	movw	r10, r22
    61e6:	6c 01       	movw	r12, r24
    61e8:	8a 94       	dec	r8
    61ea:	a1 f7       	brne	.-24     	; 0x61d4 <TFT_unsigned_float+0x5a>
  integer = (U32)(number + 0.5);
    61ec:	20 e0       	ldi	r18, 0x00	; 0
    61ee:	30 e0       	ldi	r19, 0x00	; 0
    61f0:	40 e0       	ldi	r20, 0x00	; 0
    61f2:	5f e3       	ldi	r21, 0x3F	; 63
    61f4:	0e 94 53 5a 	call	0xb4a6	; 0xb4a6 <__addsf3>
    61f8:	0e 94 27 5b 	call	0xb64e	; 0xb64e <__fixunssfsi>
    61fc:	4b 01       	movw	r8, r22
    61fe:	5c 01       	movw	r10, r24
    6200:	cc 24       	eor	r12, r12
    6202:	dd 24       	eor	r13, r13
    6204:	d3 94       	inc	r13
    6206:	30 c0       	rjmp	.+96     	; 0x6268 <TFT_unsigned_float+0xee>

  zero_flag = 0;
  digit = 1;
  while(div > 0)				// display number
    { character = integer / div;
    6208:	b4 01       	movw	r22, r8
    620a:	c5 01       	movw	r24, r10
    620c:	a8 01       	movw	r20, r16
    620e:	97 01       	movw	r18, r14
    6210:	0e 94 3a 61 	call	0xc274	; 0xc274 <__udivmodsi4>
      if((character == 0) && (zero_flag == 0) && (digit != integral))
    6214:	22 23       	and	r18, r18
    6216:	41 f4       	brne	.+16     	; 0x6228 <TFT_unsigned_float+0xae>
    6218:	cc 20       	and	r12, r12
    621a:	31 f4       	brne	.+12     	; 0x6228 <TFT_unsigned_float+0xae>
    621c:	d7 14       	cp	r13, r7
    621e:	21 f0       	breq	.+8      	; 0x6228 <TFT_unsigned_float+0xae>
        TFT_English(character + ' ');
    6220:	80 e2       	ldi	r24, 0x20	; 32
    6222:	0e 94 3e 2b 	call	0x567c	; 0x567c <TFT_English>
    6226:	0b c0       	rjmp	.+22     	; 0x623e <TFT_unsigned_float+0xc4>
      else
        { zero_flag = 1;
          TFT_English(character + '0');
    6228:	82 2f       	mov	r24, r18
    622a:	80 5d       	subi	r24, 0xD0	; 208
    622c:	0e 94 3e 2b 	call	0x567c	; 0x567c <TFT_English>
        }
      integer %= div;
      div /= 10;

      if(digit == integral)
    6230:	d7 14       	cp	r13, r7
    6232:	19 f4       	brne	.+6      	; 0x623a <TFT_unsigned_float+0xc0>
        TFT_English('.');
    6234:	8e e2       	ldi	r24, 0x2E	; 46
    6236:	0e 94 3e 2b 	call	0x567c	; 0x567c <TFT_English>
    623a:	cc 24       	eor	r12, r12
    623c:	c3 94       	inc	r12
        TFT_English(character + ' ');
      else
        { zero_flag = 1;
          TFT_English(character + '0');
        }
      integer %= div;
    623e:	b4 01       	movw	r22, r8
    6240:	c5 01       	movw	r24, r10
    6242:	a8 01       	movw	r20, r16
    6244:	97 01       	movw	r18, r14
    6246:	0e 94 3a 61 	call	0xc274	; 0xc274 <__udivmodsi4>
    624a:	4b 01       	movw	r8, r22
    624c:	5c 01       	movw	r10, r24
      div /= 10;
    624e:	c8 01       	movw	r24, r16
    6250:	b7 01       	movw	r22, r14
    6252:	2a e0       	ldi	r18, 0x0A	; 10
    6254:	30 e0       	ldi	r19, 0x00	; 0
    6256:	40 e0       	ldi	r20, 0x00	; 0
    6258:	50 e0       	ldi	r21, 0x00	; 0
    625a:	0e 94 3a 61 	call	0xc274	; 0xc274 <__udivmodsi4>
    625e:	c9 01       	movw	r24, r18
    6260:	da 01       	movw	r26, r20
    6262:	7c 01       	movw	r14, r24
    6264:	8d 01       	movw	r16, r26

      if(digit == integral)
        TFT_English('.');
      digit++;
    6266:	d3 94       	inc	r13
  while(fractional--) number *= 10.;
  integer = (U32)(number + 0.5);

  zero_flag = 0;
  digit = 1;
  while(div > 0)				// display number
    6268:	e1 14       	cp	r14, r1
    626a:	f1 04       	cpc	r15, r1
    626c:	01 05       	cpc	r16, r1
    626e:	11 05       	cpc	r17, r1
    6270:	59 f6       	brne	.-106    	; 0x6208 <TFT_unsigned_float+0x8e>

      if(digit == integral)
        TFT_English('.');
      digit++;
    }
}
    6272:	1f 91       	pop	r17
    6274:	0f 91       	pop	r16
    6276:	ff 90       	pop	r15
    6278:	ef 90       	pop	r14
    627a:	df 90       	pop	r13
    627c:	cf 90       	pop	r12
    627e:	bf 90       	pop	r11
    6280:	af 90       	pop	r10
    6282:	9f 90       	pop	r9
    6284:	8f 90       	pop	r8
    6286:	7f 90       	pop	r7
    6288:	08 95       	ret

0000628a <TFT_signed_float>:

void TFT_signed_float(float number, U08 integral, U08 fractional) /* display signed floating-point number */
{
    628a:	7f 92       	push	r7
    628c:	8f 92       	push	r8
    628e:	9f 92       	push	r9
    6290:	af 92       	push	r10
    6292:	bf 92       	push	r11
    6294:	cf 92       	push	r12
    6296:	df 92       	push	r13
    6298:	ef 92       	push	r14
    629a:	ff 92       	push	r15
    629c:	0f 93       	push	r16
    629e:	1f 93       	push	r17
    62a0:	7b 01       	movw	r14, r22
    62a2:	8c 01       	movw	r16, r24
    62a4:	74 2e       	mov	r7, r20
    62a6:	82 2e       	mov	r8, r18
  unsigned char zero_flag, digit, character;
  unsigned long div, integer;

  digit = integral + fractional;
  if((integral == 0) || (fractional == 0) || (digit > 9)) return;
    62a8:	44 23       	and	r20, r20
    62aa:	09 f4       	brne	.+2      	; 0x62ae <TFT_signed_float+0x24>
    62ac:	7d c0       	rjmp	.+250    	; 0x63a8 <TFT_signed_float+0x11e>
    62ae:	22 23       	and	r18, r18
    62b0:	09 f4       	brne	.+2      	; 0x62b4 <TFT_signed_float+0x2a>
    62b2:	7a c0       	rjmp	.+244    	; 0x63a8 <TFT_signed_float+0x11e>
void TFT_signed_float(float number, U08 integral, U08 fractional) /* display signed floating-point number */
{
  unsigned char zero_flag, digit, character;
  unsigned long div, integer;

  digit = integral + fractional;
    62b4:	92 2e       	mov	r9, r18
    62b6:	94 0e       	add	r9, r20
  if((integral == 0) || (fractional == 0) || (digit > 9)) return;
    62b8:	89 e0       	ldi	r24, 0x09	; 9
    62ba:	89 15       	cp	r24, r9
    62bc:	08 f4       	brcc	.+2      	; 0x62c0 <TFT_signed_float+0x36>
    62be:	74 c0       	rjmp	.+232    	; 0x63a8 <TFT_signed_float+0x11e>

  if(number >= 0)				// display sign
    62c0:	c8 01       	movw	r24, r16
    62c2:	b7 01       	movw	r22, r14
    62c4:	20 e0       	ldi	r18, 0x00	; 0
    62c6:	30 e0       	ldi	r19, 0x00	; 0
    62c8:	40 e0       	ldi	r20, 0x00	; 0
    62ca:	50 e0       	ldi	r21, 0x00	; 0
    62cc:	0e 94 1a 5c 	call	0xb834	; 0xb834 <__gesf2>
    62d0:	88 23       	and	r24, r24
    62d2:	24 f0       	brlt	.+8      	; 0x62dc <TFT_signed_float+0x52>
    TFT_English('+');
    62d4:	8b e2       	ldi	r24, 0x2B	; 43
    62d6:	0e 94 3e 2b 	call	0x567c	; 0x567c <TFT_English>
    62da:	07 c0       	rjmp	.+14     	; 0x62ea <TFT_signed_float+0x60>
  else
    { TFT_English('-');
    62dc:	8d e2       	ldi	r24, 0x2D	; 45
    62de:	0e 94 3e 2b 	call	0x567c	; 0x567c <TFT_English>
      number = -number;
    62e2:	17 fb       	bst	r17, 7
    62e4:	10 95       	com	r17
    62e6:	17 f9       	bld	r17, 7
    62e8:	10 95       	com	r17
    62ea:	51 e0       	ldi	r21, 0x01	; 1
    62ec:	a5 2e       	mov	r10, r21
    62ee:	b1 2c       	mov	r11, r1
    62f0:	c1 2c       	mov	r12, r1
    62f2:	d1 2c       	mov	r13, r1
    62f4:	0a c0       	rjmp	.+20     	; 0x630a <TFT_signed_float+0x80>
    }

  div = 1;
  while(--digit) div *= 10;
    62f6:	c6 01       	movw	r24, r12
    62f8:	b5 01       	movw	r22, r10
    62fa:	2a e0       	ldi	r18, 0x0A	; 10
    62fc:	30 e0       	ldi	r19, 0x00	; 0
    62fe:	40 e0       	ldi	r20, 0x00	; 0
    6300:	50 e0       	ldi	r21, 0x00	; 0
    6302:	0e 94 e8 60 	call	0xc1d0	; 0xc1d0 <__mulsi3>
    6306:	5b 01       	movw	r10, r22
    6308:	6c 01       	movw	r12, r24
    630a:	9a 94       	dec	r9
    630c:	a1 f7       	brne	.-24     	; 0x62f6 <TFT_signed_float+0x6c>

  while(fractional--) number *= 10.;
    630e:	c8 01       	movw	r24, r16
    6310:	b7 01       	movw	r22, r14
    6312:	20 e0       	ldi	r18, 0x00	; 0
    6314:	30 e0       	ldi	r19, 0x00	; 0
    6316:	40 e2       	ldi	r20, 0x20	; 32
    6318:	51 e4       	ldi	r21, 0x41	; 65
    631a:	0e 94 1e 5c 	call	0xb83c	; 0xb83c <__mulsf3>
    631e:	7b 01       	movw	r14, r22
    6320:	8c 01       	movw	r16, r24
    6322:	8a 94       	dec	r8
    6324:	a1 f7       	brne	.-24     	; 0x630e <TFT_signed_float+0x84>
  integer = (U32)(number + 0.5);
    6326:	20 e0       	ldi	r18, 0x00	; 0
    6328:	30 e0       	ldi	r19, 0x00	; 0
    632a:	40 e0       	ldi	r20, 0x00	; 0
    632c:	5f e3       	ldi	r21, 0x3F	; 63
    632e:	0e 94 53 5a 	call	0xb4a6	; 0xb4a6 <__addsf3>
    6332:	0e 94 27 5b 	call	0xb64e	; 0xb64e <__fixunssfsi>
    6336:	4b 01       	movw	r8, r22
    6338:	7c 01       	movw	r14, r24
    633a:	00 e0       	ldi	r16, 0x00	; 0
    633c:	11 e0       	ldi	r17, 0x01	; 1
    633e:	2f c0       	rjmp	.+94     	; 0x639e <TFT_signed_float+0x114>

  zero_flag = 0;
  digit = 1;
  while(div > 0)				// display number
    { character = integer / div;
    6340:	b4 01       	movw	r22, r8
    6342:	c7 01       	movw	r24, r14
    6344:	a6 01       	movw	r20, r12
    6346:	95 01       	movw	r18, r10
    6348:	0e 94 3a 61 	call	0xc274	; 0xc274 <__udivmodsi4>
      if((character == 0) && (zero_flag == 0) && (digit != integral))
    634c:	22 23       	and	r18, r18
    634e:	41 f4       	brne	.+16     	; 0x6360 <TFT_signed_float+0xd6>
    6350:	00 23       	and	r16, r16
    6352:	31 f4       	brne	.+12     	; 0x6360 <TFT_signed_float+0xd6>
    6354:	17 15       	cp	r17, r7
    6356:	21 f0       	breq	.+8      	; 0x6360 <TFT_signed_float+0xd6>
        TFT_English(character + ' ');
    6358:	80 e2       	ldi	r24, 0x20	; 32
    635a:	0e 94 3e 2b 	call	0x567c	; 0x567c <TFT_English>
    635e:	0a c0       	rjmp	.+20     	; 0x6374 <TFT_signed_float+0xea>
      else
        { zero_flag = 1;
          TFT_English(character + '0');
    6360:	82 2f       	mov	r24, r18
    6362:	80 5d       	subi	r24, 0xD0	; 208
    6364:	0e 94 3e 2b 	call	0x567c	; 0x567c <TFT_English>
        }
      integer %= div;
      div /= 10;

      if(digit == integral)
    6368:	17 15       	cp	r17, r7
    636a:	19 f4       	brne	.+6      	; 0x6372 <TFT_signed_float+0xe8>
        TFT_English('.');
    636c:	8e e2       	ldi	r24, 0x2E	; 46
    636e:	0e 94 3e 2b 	call	0x567c	; 0x567c <TFT_English>
    6372:	01 e0       	ldi	r16, 0x01	; 1
        TFT_English(character + ' ');
      else
        { zero_flag = 1;
          TFT_English(character + '0');
        }
      integer %= div;
    6374:	b4 01       	movw	r22, r8
    6376:	c7 01       	movw	r24, r14
    6378:	a6 01       	movw	r20, r12
    637a:	95 01       	movw	r18, r10
    637c:	0e 94 3a 61 	call	0xc274	; 0xc274 <__udivmodsi4>
    6380:	4b 01       	movw	r8, r22
    6382:	7c 01       	movw	r14, r24
      div /= 10;
    6384:	c6 01       	movw	r24, r12
    6386:	b5 01       	movw	r22, r10
    6388:	2a e0       	ldi	r18, 0x0A	; 10
    638a:	30 e0       	ldi	r19, 0x00	; 0
    638c:	40 e0       	ldi	r20, 0x00	; 0
    638e:	50 e0       	ldi	r21, 0x00	; 0
    6390:	0e 94 3a 61 	call	0xc274	; 0xc274 <__udivmodsi4>
    6394:	c9 01       	movw	r24, r18
    6396:	da 01       	movw	r26, r20
    6398:	5c 01       	movw	r10, r24
    639a:	6d 01       	movw	r12, r26

      if(digit == integral)
        TFT_English('.');
      digit++;
    639c:	1f 5f       	subi	r17, 0xFF	; 255
  while(fractional--) number *= 10.;
  integer = (U32)(number + 0.5);

  zero_flag = 0;
  digit = 1;
  while(div > 0)				// display number
    639e:	a1 14       	cp	r10, r1
    63a0:	b1 04       	cpc	r11, r1
    63a2:	c1 04       	cpc	r12, r1
    63a4:	d1 04       	cpc	r13, r1
    63a6:	61 f6       	brne	.-104    	; 0x6340 <TFT_signed_float+0xb6>

      if(digit == integral)
        TFT_English('.');
      digit++;
    }
}
    63a8:	1f 91       	pop	r17
    63aa:	0f 91       	pop	r16
    63ac:	ff 90       	pop	r15
    63ae:	ef 90       	pop	r14
    63b0:	df 90       	pop	r13
    63b2:	cf 90       	pop	r12
    63b4:	bf 90       	pop	r11
    63b6:	af 90       	pop	r10
    63b8:	9f 90       	pop	r9
    63ba:	8f 90       	pop	r8
    63bc:	7f 90       	pop	r7
    63be:	08 95       	ret

000063c0 <Line>:
/* ---------------------------------------------------------------------------- */
/*		TFT-LCD   					*/
/* ---------------------------------------------------------------------------- */

void Line(S16 x1,S16 y1, S16 x2,S16 y2, U16 color)	/* draw a straight line */
{
    63c0:	2f 92       	push	r2
    63c2:	3f 92       	push	r3
    63c4:	4f 92       	push	r4
    63c6:	5f 92       	push	r5
    63c8:	6f 92       	push	r6
    63ca:	7f 92       	push	r7
    63cc:	8f 92       	push	r8
    63ce:	9f 92       	push	r9
    63d0:	af 92       	push	r10
    63d2:	bf 92       	push	r11
    63d4:	cf 92       	push	r12
    63d6:	df 92       	push	r13
    63d8:	ef 92       	push	r14
    63da:	ff 92       	push	r15
    63dc:	0f 93       	push	r16
    63de:	1f 93       	push	r17
    63e0:	df 93       	push	r29
    63e2:	cf 93       	push	r28
    63e4:	cd b7       	in	r28, 0x3d	; 61
    63e6:	de b7       	in	r29, 0x3e	; 62
    63e8:	2c 97       	sbiw	r28, 0x0c	; 12
    63ea:	0f b6       	in	r0, 0x3f	; 63
    63ec:	f8 94       	cli
    63ee:	de bf       	out	0x3e, r29	; 62
    63f0:	0f be       	out	0x3f, r0	; 63
    63f2:	cd bf       	out	0x3d, r28	; 61
    63f4:	4c 01       	movw	r8, r24
    63f6:	3b 01       	movw	r6, r22
    63f8:	5a 01       	movw	r10, r20
    63fa:	69 01       	movw	r12, r18
    63fc:	1a 87       	std	Y+10, r17	; 0x0a
    63fe:	09 87       	std	Y+9, r16	; 0x09
  int x, y;

  x = abs(x1 - x2);
    6400:	9c 01       	movw	r18, r24
    6402:	24 1b       	sub	r18, r20
    6404:	35 0b       	sbc	r19, r21
    6406:	37 ff       	sbrs	r19, 7
    6408:	03 c0       	rjmp	.+6      	; 0x6410 <Line+0x50>
    640a:	30 95       	com	r19
    640c:	21 95       	neg	r18
    640e:	3f 4f       	sbci	r19, 0xFF	; 255
  y = abs(y1 - y2);
    6410:	c3 01       	movw	r24, r6
    6412:	8c 19       	sub	r24, r12
    6414:	9d 09       	sbc	r25, r13
    6416:	97 ff       	sbrs	r25, 7
    6418:	03 c0       	rjmp	.+6      	; 0x6420 <Line+0x60>
    641a:	90 95       	com	r25
    641c:	81 95       	neg	r24
    641e:	9f 4f       	sbci	r25, 0xFF	; 255

  if((x == 0) && (y == 0))			// if x1 == x2 and y1 == y2, it is a dot
    6420:	21 15       	cp	r18, r1
    6422:	31 05       	cpc	r19, r1
    6424:	49 f4       	brne	.+18     	; 0x6438 <Line+0x78>
    6426:	00 97       	sbiw	r24, 0x00	; 0
    6428:	39 f4       	brne	.+14     	; 0x6438 <Line+0x78>
    TFT_pixel(x1, y1, color);
    642a:	c4 01       	movw	r24, r8
    642c:	b3 01       	movw	r22, r6
    642e:	49 85       	ldd	r20, Y+9	; 0x09
    6430:	5a 85       	ldd	r21, Y+10	; 0x0a
    6432:	0e 94 52 2a 	call	0x54a4	; 0x54a4 <TFT_pixel>
    6436:	df c0       	rjmp	.+446    	; 0x65f6 <Line+0x236>
  else if(x >= y)				// if abs(x1-x2) >= abs(y1-y2), x is variable
    6438:	28 17       	cp	r18, r24
    643a:	39 07       	cpc	r19, r25
    643c:	0c f4       	brge	.+2      	; 0x6440 <Line+0x80>
    643e:	6b c0       	rjmp	.+214    	; 0x6516 <Line+0x156>
    { if(x1 < x2)				//                              y is function
    6440:	8a 14       	cp	r8, r10
    6442:	9b 04       	cpc	r9, r11
    6444:	6c f5       	brge	.+90     	; 0x64a0 <Line+0xe0>
    6446:	84 01       	movw	r16, r8
        for(x = x1; x <= x2; x++)
          { y = y1 + (long)(x - x1)*(long)(y2 - y1)/(x2 - x1);
            TFT_pixel(x, y, color);
    6448:	c6 18       	sub	r12, r6
    644a:	d7 08       	sbc	r13, r7
    644c:	16 01       	movw	r2, r12
    644e:	44 24       	eor	r4, r4
    6450:	37 fc       	sbrc	r3, 7
    6452:	40 94       	com	r4
    6454:	54 2c       	mov	r5, r4
    6456:	c5 01       	movw	r24, r10
    6458:	88 19       	sub	r24, r8
    645a:	99 09       	sbc	r25, r9
    645c:	6c 01       	movw	r12, r24
    645e:	ee 24       	eor	r14, r14
    6460:	d7 fc       	sbrc	r13, 7
    6462:	e0 94       	com	r14
    6464:	fe 2c       	mov	r15, r14
    6466:	b8 01       	movw	r22, r16
    6468:	68 19       	sub	r22, r8
    646a:	79 09       	sbc	r23, r9
    646c:	88 27       	eor	r24, r24
    646e:	77 fd       	sbrc	r23, 7
    6470:	80 95       	com	r24
    6472:	98 2f       	mov	r25, r24
    6474:	a2 01       	movw	r20, r4
    6476:	91 01       	movw	r18, r2
    6478:	0e 94 e8 60 	call	0xc1d0	; 0xc1d0 <__mulsi3>
    647c:	a7 01       	movw	r20, r14
    647e:	96 01       	movw	r18, r12
    6480:	0e 94 5c 61 	call	0xc2b8	; 0xc2b8 <__divmodsi4>
    6484:	b3 01       	movw	r22, r6
    6486:	62 0f       	add	r22, r18
    6488:	73 1f       	adc	r23, r19
    648a:	c8 01       	movw	r24, r16
    648c:	49 85       	ldd	r20, Y+9	; 0x09
    648e:	5a 85       	ldd	r21, Y+10	; 0x0a
    6490:	0e 94 52 2a 	call	0x54a4	; 0x54a4 <TFT_pixel>

  if((x == 0) && (y == 0))			// if x1 == x2 and y1 == y2, it is a dot
    TFT_pixel(x1, y1, color);
  else if(x >= y)				// if abs(x1-x2) >= abs(y1-y2), x is variable
    { if(x1 < x2)				//                              y is function
        for(x = x1; x <= x2; x++)
    6494:	0f 5f       	subi	r16, 0xFF	; 255
    6496:	1f 4f       	sbci	r17, 0xFF	; 255
    6498:	a0 16       	cp	r10, r16
    649a:	b1 06       	cpc	r11, r17
    649c:	24 f7       	brge	.-56     	; 0x6466 <Line+0xa6>
    649e:	ab c0       	rjmp	.+342    	; 0x65f6 <Line+0x236>
    64a0:	c6 18       	sub	r12, r6
    64a2:	d7 08       	sbc	r13, r7
    64a4:	c6 01       	movw	r24, r12
    64a6:	aa 27       	eor	r26, r26
    64a8:	97 fd       	sbrc	r25, 7
    64aa:	a0 95       	com	r26
    64ac:	ba 2f       	mov	r27, r26
    64ae:	22 27       	eor	r18, r18
    64b0:	33 27       	eor	r19, r19
    64b2:	a9 01       	movw	r20, r18
    64b4:	28 1b       	sub	r18, r24
    64b6:	39 0b       	sbc	r19, r25
    64b8:	4a 0b       	sbc	r20, r26
    64ba:	5b 0b       	sbc	r21, r27
    64bc:	2d 83       	std	Y+5, r18	; 0x05
    64be:	3e 83       	std	Y+6, r19	; 0x06
    64c0:	4f 83       	std	Y+7, r20	; 0x07
    64c2:	58 87       	std	Y+8, r21	; 0x08
    64c4:	64 01       	movw	r12, r8
    64c6:	ee 24       	eor	r14, r14
    64c8:	ff 24       	eor	r15, r15
    64ca:	87 01       	movw	r16, r14
            TFT_pixel(x, y, color);
          }
      else
        for(x = x1; x >= x2; x--)
          { y = y1 + (long)(x - x1)*(long)(y2 - y1)/(x2 - x1);
            TFT_pixel(x, y, color);
    64cc:	c5 01       	movw	r24, r10
    64ce:	88 19       	sub	r24, r8
    64d0:	99 09       	sbc	r25, r9
    64d2:	1c 01       	movw	r2, r24
    64d4:	44 24       	eor	r4, r4
    64d6:	37 fc       	sbrc	r3, 7
    64d8:	40 94       	com	r4
    64da:	54 2c       	mov	r5, r4
    64dc:	c8 01       	movw	r24, r16
    64de:	b7 01       	movw	r22, r14
    64e0:	a2 01       	movw	r20, r4
    64e2:	91 01       	movw	r18, r2
    64e4:	0e 94 5c 61 	call	0xc2b8	; 0xc2b8 <__divmodsi4>
    64e8:	b3 01       	movw	r22, r6
    64ea:	62 0f       	add	r22, r18
    64ec:	73 1f       	adc	r23, r19
    64ee:	c6 01       	movw	r24, r12
    64f0:	49 85       	ldd	r20, Y+9	; 0x09
    64f2:	5a 85       	ldd	r21, Y+10	; 0x0a
    64f4:	0e 94 52 2a 	call	0x54a4	; 0x54a4 <TFT_pixel>
        for(x = x1; x <= x2; x++)
          { y = y1 + (long)(x - x1)*(long)(y2 - y1)/(x2 - x1);
            TFT_pixel(x, y, color);
          }
      else
        for(x = x1; x >= x2; x--)
    64f8:	08 94       	sec
    64fa:	c1 08       	sbc	r12, r1
    64fc:	d1 08       	sbc	r13, r1
    64fe:	8d 81       	ldd	r24, Y+5	; 0x05
    6500:	9e 81       	ldd	r25, Y+6	; 0x06
    6502:	af 81       	ldd	r26, Y+7	; 0x07
    6504:	b8 85       	ldd	r27, Y+8	; 0x08
    6506:	e8 0e       	add	r14, r24
    6508:	f9 1e       	adc	r15, r25
    650a:	0a 1f       	adc	r16, r26
    650c:	1b 1f       	adc	r17, r27
    650e:	ca 14       	cp	r12, r10
    6510:	db 04       	cpc	r13, r11
    6512:	24 f7       	brge	.-56     	; 0x64dc <Line+0x11c>
    6514:	70 c0       	rjmp	.+224    	; 0x65f6 <Line+0x236>
          { y = y1 + (long)(x - x1)*(long)(y2 - y1)/(x2 - x1);
            TFT_pixel(x, y, color);
          }
    }
  else						// if abs(x1-x2) < abs(y1-y2), y is variable
    { if(y1 < y2)				//                             x is function
    6516:	6c 14       	cp	r6, r12
    6518:	7d 04       	cpc	r7, r13
    651a:	9c f5       	brge	.+102    	; 0x6582 <Line+0x1c2>
    651c:	7c 86       	std	Y+12, r7	; 0x0c
    651e:	6b 86       	std	Y+11, r6	; 0x0b
        for(y = y1; y <= y2; y++)
          { x = x1 + (long)(y - y1)*(long)(x2 - x1)/(y2 - y1);
            TFT_pixel(x, y, color);
    6520:	a8 18       	sub	r10, r8
    6522:	b9 08       	sbc	r11, r9
    6524:	75 01       	movw	r14, r10
    6526:	00 27       	eor	r16, r16
    6528:	f7 fc       	sbrc	r15, 7
    652a:	00 95       	com	r16
    652c:	10 2f       	mov	r17, r16
    652e:	c6 01       	movw	r24, r12
    6530:	86 19       	sub	r24, r6
    6532:	97 09       	sbc	r25, r7
    6534:	1c 01       	movw	r2, r24
    6536:	44 24       	eor	r4, r4
    6538:	37 fc       	sbrc	r3, 7
    653a:	40 94       	com	r4
    653c:	54 2c       	mov	r5, r4
    653e:	6b 85       	ldd	r22, Y+11	; 0x0b
    6540:	7c 85       	ldd	r23, Y+12	; 0x0c
    6542:	66 19       	sub	r22, r6
    6544:	77 09       	sbc	r23, r7
    6546:	88 27       	eor	r24, r24
    6548:	77 fd       	sbrc	r23, 7
    654a:	80 95       	com	r24
    654c:	98 2f       	mov	r25, r24
    654e:	a8 01       	movw	r20, r16
    6550:	97 01       	movw	r18, r14
    6552:	0e 94 e8 60 	call	0xc1d0	; 0xc1d0 <__mulsi3>
    6556:	a2 01       	movw	r20, r4
    6558:	91 01       	movw	r18, r2
    655a:	0e 94 5c 61 	call	0xc2b8	; 0xc2b8 <__divmodsi4>
    655e:	c4 01       	movw	r24, r8
    6560:	82 0f       	add	r24, r18
    6562:	93 1f       	adc	r25, r19
    6564:	6b 85       	ldd	r22, Y+11	; 0x0b
    6566:	7c 85       	ldd	r23, Y+12	; 0x0c
    6568:	49 85       	ldd	r20, Y+9	; 0x09
    656a:	5a 85       	ldd	r21, Y+10	; 0x0a
    656c:	0e 94 52 2a 	call	0x54a4	; 0x54a4 <TFT_pixel>
            TFT_pixel(x, y, color);
          }
    }
  else						// if abs(x1-x2) < abs(y1-y2), y is variable
    { if(y1 < y2)				//                             x is function
        for(y = y1; y <= y2; y++)
    6570:	ab 85       	ldd	r26, Y+11	; 0x0b
    6572:	bc 85       	ldd	r27, Y+12	; 0x0c
    6574:	11 96       	adiw	r26, 0x01	; 1
    6576:	bc 87       	std	Y+12, r27	; 0x0c
    6578:	ab 87       	std	Y+11, r26	; 0x0b
    657a:	ca 16       	cp	r12, r26
    657c:	db 06       	cpc	r13, r27
    657e:	fc f6       	brge	.-66     	; 0x653e <Line+0x17e>
    6580:	3a c0       	rjmp	.+116    	; 0x65f6 <Line+0x236>
    6582:	a8 18       	sub	r10, r8
    6584:	b9 08       	sbc	r11, r9
    6586:	c5 01       	movw	r24, r10
    6588:	aa 27       	eor	r26, r26
    658a:	97 fd       	sbrc	r25, 7
    658c:	a0 95       	com	r26
    658e:	ba 2f       	mov	r27, r26
    6590:	22 27       	eor	r18, r18
    6592:	33 27       	eor	r19, r19
    6594:	a9 01       	movw	r20, r18
    6596:	28 1b       	sub	r18, r24
    6598:	39 0b       	sbc	r19, r25
    659a:	4a 0b       	sbc	r20, r26
    659c:	5b 0b       	sbc	r21, r27
    659e:	29 83       	std	Y+1, r18	; 0x01
    65a0:	3a 83       	std	Y+2, r19	; 0x02
    65a2:	4b 83       	std	Y+3, r20	; 0x03
    65a4:	5c 83       	std	Y+4, r21	; 0x04
    65a6:	53 01       	movw	r10, r6
    65a8:	ee 24       	eor	r14, r14
    65aa:	ff 24       	eor	r15, r15
    65ac:	87 01       	movw	r16, r14
            TFT_pixel(x, y, color);
          }
      else
        for(y = y1; y >= y2; y--)
          { x = x1 + (long)(y - y1)*(long)(x2 - x1)/(y2 - y1);
            TFT_pixel(x, y, color);
    65ae:	c6 01       	movw	r24, r12
    65b0:	86 19       	sub	r24, r6
    65b2:	97 09       	sbc	r25, r7
    65b4:	2c 01       	movw	r4, r24
    65b6:	66 24       	eor	r6, r6
    65b8:	57 fc       	sbrc	r5, 7
    65ba:	60 94       	com	r6
    65bc:	76 2c       	mov	r7, r6
    65be:	c8 01       	movw	r24, r16
    65c0:	b7 01       	movw	r22, r14
    65c2:	a3 01       	movw	r20, r6
    65c4:	92 01       	movw	r18, r4
    65c6:	0e 94 5c 61 	call	0xc2b8	; 0xc2b8 <__divmodsi4>
    65ca:	c4 01       	movw	r24, r8
    65cc:	82 0f       	add	r24, r18
    65ce:	93 1f       	adc	r25, r19
    65d0:	b5 01       	movw	r22, r10
    65d2:	49 85       	ldd	r20, Y+9	; 0x09
    65d4:	5a 85       	ldd	r21, Y+10	; 0x0a
    65d6:	0e 94 52 2a 	call	0x54a4	; 0x54a4 <TFT_pixel>
        for(y = y1; y <= y2; y++)
          { x = x1 + (long)(y - y1)*(long)(x2 - x1)/(y2 - y1);
            TFT_pixel(x, y, color);
          }
      else
        for(y = y1; y >= y2; y--)
    65da:	08 94       	sec
    65dc:	a1 08       	sbc	r10, r1
    65de:	b1 08       	sbc	r11, r1
    65e0:	89 81       	ldd	r24, Y+1	; 0x01
    65e2:	9a 81       	ldd	r25, Y+2	; 0x02
    65e4:	ab 81       	ldd	r26, Y+3	; 0x03
    65e6:	bc 81       	ldd	r27, Y+4	; 0x04
    65e8:	e8 0e       	add	r14, r24
    65ea:	f9 1e       	adc	r15, r25
    65ec:	0a 1f       	adc	r16, r26
    65ee:	1b 1f       	adc	r17, r27
    65f0:	ac 14       	cp	r10, r12
    65f2:	bd 04       	cpc	r11, r13
    65f4:	24 f7       	brge	.-56     	; 0x65be <Line+0x1fe>
          { x = x1 + (long)(y - y1)*(long)(x2 - x1)/(y2 - y1);
            TFT_pixel(x, y, color);
          }
    }
}
    65f6:	2c 96       	adiw	r28, 0x0c	; 12
    65f8:	0f b6       	in	r0, 0x3f	; 63
    65fa:	f8 94       	cli
    65fc:	de bf       	out	0x3e, r29	; 62
    65fe:	0f be       	out	0x3f, r0	; 63
    6600:	cd bf       	out	0x3d, r28	; 61
    6602:	cf 91       	pop	r28
    6604:	df 91       	pop	r29
    6606:	1f 91       	pop	r17
    6608:	0f 91       	pop	r16
    660a:	ff 90       	pop	r15
    660c:	ef 90       	pop	r14
    660e:	df 90       	pop	r13
    6610:	cf 90       	pop	r12
    6612:	bf 90       	pop	r11
    6614:	af 90       	pop	r10
    6616:	9f 90       	pop	r9
    6618:	8f 90       	pop	r8
    661a:	7f 90       	pop	r7
    661c:	6f 90       	pop	r6
    661e:	5f 90       	pop	r5
    6620:	4f 90       	pop	r4
    6622:	3f 90       	pop	r3
    6624:	2f 90       	pop	r2
    6626:	08 95       	ret

00006628 <Rectangle>:

void Rectangle(S16 x1,S16 y1, S16 x2,S16 y2, U16 color) /* draw a rectangle */
{
    6628:	6f 92       	push	r6
    662a:	7f 92       	push	r7
    662c:	8f 92       	push	r8
    662e:	9f 92       	push	r9
    6630:	af 92       	push	r10
    6632:	bf 92       	push	r11
    6634:	cf 92       	push	r12
    6636:	df 92       	push	r13
    6638:	ef 92       	push	r14
    663a:	ff 92       	push	r15
    663c:	0f 93       	push	r16
    663e:	1f 93       	push	r17
    6640:	6c 01       	movw	r12, r24
    6642:	7b 01       	movw	r14, r22
    6644:	5a 01       	movw	r10, r20
    6646:	49 01       	movw	r8, r18
  Line(x1,y1, x1,y2, color);			// horizontal line
    6648:	a6 01       	movw	r20, r12
    664a:	0e 94 e0 31 	call	0x63c0	; 0x63c0 <Line>
  Line(x2,y1, x2,y2, color);
    664e:	c5 01       	movw	r24, r10
    6650:	b7 01       	movw	r22, r14
    6652:	a5 01       	movw	r20, r10
    6654:	94 01       	movw	r18, r8
    6656:	0e 94 e0 31 	call	0x63c0	; 0x63c0 <Line>
  Line(x1,y1, x2,y1, color);			// vertical line
    665a:	c6 01       	movw	r24, r12
    665c:	b7 01       	movw	r22, r14
    665e:	a5 01       	movw	r20, r10
    6660:	97 01       	movw	r18, r14
    6662:	0e 94 e0 31 	call	0x63c0	; 0x63c0 <Line>
  Line(x1,y2, x2,y2, color);
    6666:	c6 01       	movw	r24, r12
    6668:	b4 01       	movw	r22, r8
    666a:	a5 01       	movw	r20, r10
    666c:	94 01       	movw	r18, r8
    666e:	0e 94 e0 31 	call	0x63c0	; 0x63c0 <Line>
}
    6672:	1f 91       	pop	r17
    6674:	0f 91       	pop	r16
    6676:	ff 90       	pop	r15
    6678:	ef 90       	pop	r14
    667a:	df 90       	pop	r13
    667c:	cf 90       	pop	r12
    667e:	bf 90       	pop	r11
    6680:	af 90       	pop	r10
    6682:	9f 90       	pop	r9
    6684:	8f 90       	pop	r8
    6686:	7f 90       	pop	r7
    6688:	6f 90       	pop	r6
    668a:	08 95       	ret

0000668c <Block>:

void Block(S16 x1,S16 y1, S16 x2,S16 y2, U16 color, U16 fill) /* draw a rectangle with filled color */
{
    668c:	4f 92       	push	r4
    668e:	5f 92       	push	r5
    6690:	6f 92       	push	r6
    6692:	7f 92       	push	r7
    6694:	8f 92       	push	r8
    6696:	9f 92       	push	r9
    6698:	af 92       	push	r10
    669a:	bf 92       	push	r11
    669c:	cf 92       	push	r12
    669e:	df 92       	push	r13
    66a0:	ef 92       	push	r14
    66a2:	ff 92       	push	r15
    66a4:	0f 93       	push	r16
    66a6:	1f 93       	push	r17
    66a8:	cf 93       	push	r28
    66aa:	df 93       	push	r29
    66ac:	5c 01       	movw	r10, r24
    66ae:	2b 01       	movw	r4, r22
    66b0:	4a 01       	movw	r8, r20
    66b2:	39 01       	movw	r6, r18
  int i;

  Line(x1,y1, x1,y2, color);			// horizontal line
    66b4:	a5 01       	movw	r20, r10
    66b6:	0e 94 e0 31 	call	0x63c0	; 0x63c0 <Line>
  Line(x2,y1, x2,y2, color);
    66ba:	c4 01       	movw	r24, r8
    66bc:	b2 01       	movw	r22, r4
    66be:	a4 01       	movw	r20, r8
    66c0:	93 01       	movw	r18, r6
    66c2:	0e 94 e0 31 	call	0x63c0	; 0x63c0 <Line>
  Line(x1,y1, x2,y1, color);			// vertical line
    66c6:	c5 01       	movw	r24, r10
    66c8:	b2 01       	movw	r22, r4
    66ca:	a4 01       	movw	r20, r8
    66cc:	92 01       	movw	r18, r4
    66ce:	0e 94 e0 31 	call	0x63c0	; 0x63c0 <Line>
  Line(x1,y2, x2,y2, color);
    66d2:	c5 01       	movw	r24, r10
    66d4:	b3 01       	movw	r22, r6
    66d6:	a4 01       	movw	r20, r8
    66d8:	93 01       	movw	r18, r6
    66da:	0e 94 e0 31 	call	0x63c0	; 0x63c0 <Line>

  if((y1 < y2) && (x1 != x2))			// fill block
    66de:	46 14       	cp	r4, r6
    66e0:	57 04       	cpc	r5, r7
    66e2:	d4 f4       	brge	.+52     	; 0x6718 <Block+0x8c>
    66e4:	a8 14       	cp	r10, r8
    66e6:	b9 04       	cpc	r11, r9
    66e8:	99 f1       	breq	.+102    	; 0x6750 <Block+0xc4>
    { for(i = y1+1; i <= y2-1; i++)
    66ea:	e2 01       	movw	r28, r4
    66ec:	21 96       	adiw	r28, 0x01	; 1
         Line(x1+1,i, x2-1,i, fill);
    66ee:	25 01       	movw	r4, r10
    66f0:	08 94       	sec
    66f2:	41 1c       	adc	r4, r1
    66f4:	51 1c       	adc	r5, r1
    66f6:	54 01       	movw	r10, r8
    66f8:	08 94       	sec
    66fa:	a1 08       	sbc	r10, r1
    66fc:	b1 08       	sbc	r11, r1
    66fe:	08 c0       	rjmp	.+16     	; 0x6710 <Block+0x84>
    6700:	c2 01       	movw	r24, r4
    6702:	be 01       	movw	r22, r28
    6704:	a5 01       	movw	r20, r10
    6706:	9e 01       	movw	r18, r28
    6708:	87 01       	movw	r16, r14
    670a:	0e 94 e0 31 	call	0x63c0	; 0x63c0 <Line>
  Line(x2,y1, x2,y2, color);
  Line(x1,y1, x2,y1, color);			// vertical line
  Line(x1,y2, x2,y2, color);

  if((y1 < y2) && (x1 != x2))			// fill block
    { for(i = y1+1; i <= y2-1; i++)
    670e:	21 96       	adiw	r28, 0x01	; 1
    6710:	c6 15       	cp	r28, r6
    6712:	d7 05       	cpc	r29, r7
    6714:	ac f3       	brlt	.-22     	; 0x6700 <Block+0x74>
    6716:	1c c0       	rjmp	.+56     	; 0x6750 <Block+0xc4>
         Line(x1+1,i, x2-1,i, fill);
    }
  else if((y1 > y2) && (x1 != x2))
    6718:	64 14       	cp	r6, r4
    671a:	75 04       	cpc	r7, r5
    671c:	cc f4       	brge	.+50     	; 0x6750 <Block+0xc4>
    671e:	a8 14       	cp	r10, r8
    6720:	b9 04       	cpc	r11, r9
    6722:	b1 f0       	breq	.+44     	; 0x6750 <Block+0xc4>
    { for(i = y2+1; i <= y1-1; i++)
    6724:	e3 01       	movw	r28, r6
    6726:	21 96       	adiw	r28, 0x01	; 1
         Line(x1+1,i, x2-1,i, fill);
    6728:	35 01       	movw	r6, r10
    672a:	08 94       	sec
    672c:	61 1c       	adc	r6, r1
    672e:	71 1c       	adc	r7, r1
    6730:	54 01       	movw	r10, r8
    6732:	08 94       	sec
    6734:	a1 08       	sbc	r10, r1
    6736:	b1 08       	sbc	r11, r1
    6738:	08 c0       	rjmp	.+16     	; 0x674a <Block+0xbe>
    673a:	c3 01       	movw	r24, r6
    673c:	be 01       	movw	r22, r28
    673e:	a5 01       	movw	r20, r10
    6740:	9e 01       	movw	r18, r28
    6742:	87 01       	movw	r16, r14
    6744:	0e 94 e0 31 	call	0x63c0	; 0x63c0 <Line>
  if((y1 < y2) && (x1 != x2))			// fill block
    { for(i = y1+1; i <= y2-1; i++)
         Line(x1+1,i, x2-1,i, fill);
    }
  else if((y1 > y2) && (x1 != x2))
    { for(i = y2+1; i <= y1-1; i++)
    6748:	21 96       	adiw	r28, 0x01	; 1
    674a:	c4 15       	cp	r28, r4
    674c:	d5 05       	cpc	r29, r5
    674e:	ac f3       	brlt	.-22     	; 0x673a <Block+0xae>
         Line(x1+1,i, x2-1,i, fill);
    }
}
    6750:	df 91       	pop	r29
    6752:	cf 91       	pop	r28
    6754:	1f 91       	pop	r17
    6756:	0f 91       	pop	r16
    6758:	ff 90       	pop	r15
    675a:	ef 90       	pop	r14
    675c:	df 90       	pop	r13
    675e:	cf 90       	pop	r12
    6760:	bf 90       	pop	r11
    6762:	af 90       	pop	r10
    6764:	9f 90       	pop	r9
    6766:	8f 90       	pop	r8
    6768:	7f 90       	pop	r7
    676a:	6f 90       	pop	r6
    676c:	5f 90       	pop	r5
    676e:	4f 90       	pop	r4
    6770:	08 95       	ret

00006772 <SPI_Mode0_1MHz>:
#define ADS7846_CMD_X	0b11010000		// 12-bit resolution X position measurement command
#define ADS7846_CMD_Y	0b10010000		// 12-bit resolution Y position measurement command

void SPI_Mode0_1MHz(void)			/* SPI mode 0, 1MHz */
{
  SPCR = 0x51;					// 16MHz/16 = 1MHz
    6772:	81 e5       	ldi	r24, 0x51	; 81
    6774:	8d b9       	out	0x0d, r24	; 13
  SPSR = 0x00;
    6776:	1e b8       	out	0x0e, r1	; 14
}
    6778:	08 95       	ret

0000677a <SPI_write>:

unsigned char SPI_write(U08 data)		/* send a byte to SPI and receive */
{
  SPDR = data;
    677a:	8f b9       	out	0x0f, r24	; 15
  while(!(SPSR & 0x80));
    677c:	77 9b       	sbis	0x0e, 7	; 14
    677e:	fe cf       	rjmp	.-4      	; 0x677c <SPI_write+0x2>

  return SPDR;
    6780:	8f b1       	in	r24, 0x0f	; 15
}
    6782:	08 95       	ret

00006784 <Read_ADS7846>:

unsigned int Read_ADS7846(U08 command)		/* read X, Y value from ADS7846 */
{
  unsigned int axis;

  cbi(PORTB,7);					// -TS_CS = 0
    6784:	c7 98       	cbi	0x18, 7	; 24
  SPSR = 0x00;
}

unsigned char SPI_write(U08 data)		/* send a byte to SPI and receive */
{
  SPDR = data;
    6786:	8f b9       	out	0x0f, r24	; 15
  while(!(SPSR & 0x80));
    6788:	77 9b       	sbis	0x0e, 7	; 14
    678a:	fe cf       	rjmp	.-4      	; 0x6788 <Read_ADS7846+0x4>

  return SPDR;
    678c:	8f b1       	in	r24, 0x0f	; 15
  SPSR = 0x00;
}

unsigned char SPI_write(U08 data)		/* send a byte to SPI and receive */
{
  SPDR = data;
    678e:	1f b8       	out	0x0f, r1	; 15
  while(!(SPSR & 0x80));
    6790:	77 9b       	sbis	0x0e, 7	; 14
    6792:	fe cf       	rjmp	.-4      	; 0x6790 <Read_ADS7846+0xc>

  return SPDR;
    6794:	9f b1       	in	r25, 0x0f	; 15
  SPSR = 0x00;
}

unsigned char SPI_write(U08 data)		/* send a byte to SPI and receive */
{
  SPDR = data;
    6796:	1f b8       	out	0x0f, r1	; 15
  while(!(SPSR & 0x80));
    6798:	77 9b       	sbis	0x0e, 7	; 14
    679a:	fe cf       	rjmp	.-4      	; 0x6798 <Read_ADS7846+0x14>

  return SPDR;
    679c:	8f b1       	in	r24, 0x0f	; 15

  cbi(PORTB,7);					// -TS_CS = 0

  SPI_write(command);
  axis = SPI_write(0x00);			// read high 7 bit
  axis <<= 8;
    679e:	39 2f       	mov	r19, r25
    67a0:	20 e0       	ldi	r18, 0x00	; 0
  axis += SPI_write(0x00);			// read low 5 bit
    67a2:	28 0f       	add	r18, r24
    67a4:	31 1d       	adc	r19, r1
  axis >>= 3;

  sbi(PORTB,7);					// -TS_CS = 1
    67a6:	c7 9a       	sbi	0x18, 7	; 24
    67a8:	63 e0       	ldi	r22, 0x03	; 3
    67aa:	36 95       	lsr	r19
    67ac:	27 95       	ror	r18
    67ae:	6a 95       	dec	r22
    67b0:	e1 f7       	brne	.-8      	; 0x67aa <Read_ADS7846+0x26>

  return axis;
}
    67b2:	c9 01       	movw	r24, r18
    67b4:	08 95       	ret

000067b6 <Initialize_ADS7846>:
  return SPDR;
}

void Initialize_ADS7846(void)			/* initialize ADS7846 */
{
  cbi(DDRE,4);					// -TS_INT is input
    67b6:	14 98       	cbi	0x02, 4	; 2
  sbi(DDRB,7);					// -TS_CS is output
    67b8:	bf 9a       	sbi	0x17, 7	; 23
#define ADS7846_CMD_X	0b11010000		// 12-bit resolution X position measurement command
#define ADS7846_CMD_Y	0b10010000		// 12-bit resolution Y position measurement command

void SPI_Mode0_1MHz(void)			/* SPI mode 0, 1MHz */
{
  SPCR = 0x51;					// 16MHz/16 = 1MHz
    67ba:	81 e5       	ldi	r24, 0x51	; 81
    67bc:	8d b9       	out	0x0d, r24	; 13
  SPSR = 0x00;
    67be:	1e b8       	out	0x0e, r1	; 14
  cbi(DDRE,4);					// -TS_INT is input
  sbi(DDRB,7);					// -TS_CS is output

  SPI_Mode0_1MHz();				// initialize SPI

  Read_ADS7846(ADS7846_CMD_X);			// dummy input for -TS_INT signal
    67c0:	80 ed       	ldi	r24, 0xD0	; 208
    67c2:	0e 94 c2 33 	call	0x6784	; 0x6784 <Read_ADS7846>
}
    67c6:	08 95       	ret

000067c8 <Touch_input_ADS7846>:

  return axis;
}

void Touch_input_ADS7846(void)			/* touch input X, Y average value from ADS7846 */
{
    67c8:	ff 92       	push	r15
    67ca:	0f 93       	push	r16
    67cc:	1f 93       	push	r17
    67ce:	cf 93       	push	r28
    67d0:	df 93       	push	r29
  unsigned char i;

  x_12bit = 0;					// initial value
    67d2:	10 92 3e 0c 	sts	0x0C3E, r1
    67d6:	10 92 3d 0c 	sts	0x0C3D, r1
  y_12bit = 0;
    67da:	10 92 59 0b 	sts	0x0B59, r1
    67de:	10 92 58 0b 	sts	0x0B58, r1
    67e2:	ff 24       	eor	r15, r15

  for(i = 0; i < 16; i++)			// read X, Y value by 16 times if -PENIRQ enable
    { if((PINE & 0x04) == 0x00)			// -TS_INT = 0 ?
    67e4:	0a 99       	sbic	0x01, 2	; 1
    67e6:	27 c0       	rjmp	.+78     	; 0x6836 <Touch_input_ADS7846+0x6e>
        x_12bit += Read_ADS7846(ADS7846_CMD_X);	// if yes, measure X position
    67e8:	00 91 3d 0c 	lds	r16, 0x0C3D
    67ec:	10 91 3e 0c 	lds	r17, 0x0C3E
    67f0:	80 ed       	ldi	r24, 0xD0	; 208
    67f2:	0e 94 c2 33 	call	0x6784	; 0x6784 <Read_ADS7846>
    67f6:	08 0f       	add	r16, r24
    67f8:	19 1f       	adc	r17, r25
    67fa:	10 93 3e 0c 	sts	0x0C3E, r17
    67fe:	00 93 3d 0c 	sts	0x0C3D, r16
      else					// if not, return with 0
        { x_12bit = 0;
	  y_12bit = 0;
	  break;
	}
      Delay_us(10);
    6802:	8a e0       	ldi	r24, 0x0A	; 10
    6804:	0e 94 08 25 	call	0x4a10	; 0x4a10 <Delay_us>

      if((PINE & 0x04) == 0x00)			// -TS_INT = 0 ?
    6808:	0a 99       	sbic	0x01, 2	; 1
    680a:	15 c0       	rjmp	.+42     	; 0x6836 <Touch_input_ADS7846+0x6e>
        y_12bit += Read_ADS7846(ADS7846_CMD_Y);	// if yes, measure Y position
    680c:	00 91 58 0b 	lds	r16, 0x0B58
    6810:	10 91 59 0b 	lds	r17, 0x0B59
    6814:	80 e9       	ldi	r24, 0x90	; 144
    6816:	0e 94 c2 33 	call	0x6784	; 0x6784 <Read_ADS7846>
    681a:	08 0f       	add	r16, r24
    681c:	19 1f       	adc	r17, r25
    681e:	10 93 59 0b 	sts	0x0B59, r17
    6822:	00 93 58 0b 	sts	0x0B58, r16
      else					// if not, return with 0
        { x_12bit = 0;
	  y_12bit = 0;
	  break;
	}
      Delay_us(10);
    6826:	8a e0       	ldi	r24, 0x0A	; 10
    6828:	0e 94 08 25 	call	0x4a10	; 0x4a10 <Delay_us>
  unsigned char i;

  x_12bit = 0;					// initial value
  y_12bit = 0;

  for(i = 0; i < 16; i++)			// read X, Y value by 16 times if -PENIRQ enable
    682c:	f3 94       	inc	r15
    682e:	80 e1       	ldi	r24, 0x10	; 16
    6830:	f8 16       	cp	r15, r24
    6832:	c1 f6       	brne	.-80     	; 0x67e4 <Touch_input_ADS7846+0x1c>
    6834:	08 c0       	rjmp	.+16     	; 0x6846 <Touch_input_ADS7846+0x7e>
      Delay_us(10);

      if((PINE & 0x04) == 0x00)			// -TS_INT = 0 ?
        y_12bit += Read_ADS7846(ADS7846_CMD_Y);	// if yes, measure Y position
      else					// if not, return with 0
        { x_12bit = 0;
    6836:	10 92 3e 0c 	sts	0x0C3E, r1
    683a:	10 92 3d 0c 	sts	0x0C3D, r1
	  y_12bit = 0;
    683e:	10 92 59 0b 	sts	0x0B59, r1
    6842:	10 92 58 0b 	sts	0x0B58, r1
	  break;
	}
      Delay_us(10);
    }

  x_12bit >>= 4;				// calculate average for 16 times
    6846:	60 91 3d 0c 	lds	r22, 0x0C3D
    684a:	70 91 3e 0c 	lds	r23, 0x0C3E
    684e:	f4 e0       	ldi	r31, 0x04	; 4
    6850:	76 95       	lsr	r23
    6852:	67 95       	ror	r22
    6854:	fa 95       	dec	r31
    6856:	e1 f7       	brne	.-8      	; 0x6850 <Touch_input_ADS7846+0x88>
    6858:	70 93 3e 0c 	sts	0x0C3E, r23
    685c:	60 93 3d 0c 	sts	0x0C3D, r22
  y_12bit >>= 4;
    6860:	c0 91 58 0b 	lds	r28, 0x0B58
    6864:	d0 91 59 0b 	lds	r29, 0x0B59
    6868:	e4 e0       	ldi	r30, 0x04	; 4
    686a:	d6 95       	lsr	r29
    686c:	c7 95       	ror	r28
    686e:	ea 95       	dec	r30
    6870:	e1 f7       	brne	.-8      	; 0x686a <Touch_input_ADS7846+0xa2>
    6872:	d0 93 59 0b 	sts	0x0B59, r29
    6876:	c0 93 58 0b 	sts	0x0B58, r28

  if((x_12bit == 0) && (y_12bit == 0))
    687a:	61 15       	cp	r22, r1
    687c:	71 05       	cpc	r23, r1
    687e:	39 f4       	brne	.+14     	; 0x688e <Touch_input_ADS7846+0xc6>
    6880:	20 97       	sbiw	r28, 0x00	; 0
    6882:	41 f4       	brne	.+16     	; 0x6894 <Touch_input_ADS7846+0xcc>
    { x_touch = 0;
    6884:	10 92 5e 0b 	sts	0x0B5E, r1
    6888:	10 92 5d 0b 	sts	0x0B5D, r1
    688c:	3a c0       	rjmp	.+116    	; 0x6902 <Touch_input_ADS7846+0x13a>
      y_touch = 0;
      return;
    }

  if(x_12bit <= x_touch_min)			// convert to pixel x-axis value
    688e:	6b 3f       	cpi	r22, 0xFB	; 251
    6890:	71 05       	cpc	r23, r1
    6892:	28 f4       	brcc	.+10     	; 0x689e <Touch_input_ADS7846+0xd6>
    x_touch = 0;
    6894:	10 92 5e 0b 	sts	0x0B5E, r1
    6898:	10 92 5d 0b 	sts	0x0B5D, r1
    689c:	23 c0       	rjmp	.+70     	; 0x68e4 <Touch_input_ADS7846+0x11c>
  else if(x_12bit >= x_touch_max)
    689e:	8e e0       	ldi	r24, 0x0E	; 14
    68a0:	66 3a       	cpi	r22, 0xA6	; 166
    68a2:	78 07       	cpc	r23, r24
    68a4:	38 f0       	brcs	.+14     	; 0x68b4 <Touch_input_ADS7846+0xec>
    x_touch = 239;
    68a6:	8f ee       	ldi	r24, 0xEF	; 239
    68a8:	90 e0       	ldi	r25, 0x00	; 0
    68aa:	90 93 5e 0b 	sts	0x0B5E, r25
    68ae:	80 93 5d 0b 	sts	0x0B5D, r24
    68b2:	18 c0       	rjmp	.+48     	; 0x68e4 <Touch_input_ADS7846+0x11c>
  else
    x_touch = (unsigned int)((float)(x_12bit - x_touch_min) * 239./(float)(x_touch_max - x_touch_min));
    68b4:	6a 5f       	subi	r22, 0xFA	; 250
    68b6:	70 40       	sbci	r23, 0x00	; 0
    68b8:	80 e0       	ldi	r24, 0x00	; 0
    68ba:	90 e0       	ldi	r25, 0x00	; 0
    68bc:	0e 94 53 5b 	call	0xb6a6	; 0xb6a6 <__floatunsisf>
    68c0:	20 e0       	ldi	r18, 0x00	; 0
    68c2:	30 e0       	ldi	r19, 0x00	; 0
    68c4:	4f e6       	ldi	r20, 0x6F	; 111
    68c6:	53 e4       	ldi	r21, 0x43	; 67
    68c8:	0e 94 1e 5c 	call	0xb83c	; 0xb83c <__mulsf3>
    68cc:	20 e0       	ldi	r18, 0x00	; 0
    68ce:	30 ec       	ldi	r19, 0xC0	; 192
    68d0:	4a e5       	ldi	r20, 0x5A	; 90
    68d2:	55 e4       	ldi	r21, 0x45	; 69
    68d4:	0e 94 ba 5a 	call	0xb574	; 0xb574 <__divsf3>
    68d8:	0e 94 27 5b 	call	0xb64e	; 0xb64e <__fixunssfsi>
    68dc:	70 93 5e 0b 	sts	0x0B5E, r23
    68e0:	60 93 5d 0b 	sts	0x0B5D, r22

  if(y_12bit <= y_touch_min)			// convert to pixel y-axis value
    68e4:	81 e0       	ldi	r24, 0x01	; 1
    68e6:	c1 39       	cpi	r28, 0x91	; 145
    68e8:	d8 07       	cpc	r29, r24
    68ea:	38 f4       	brcc	.+14     	; 0x68fa <Touch_input_ADS7846+0x132>
    y_touch = 319;
    68ec:	8f e3       	ldi	r24, 0x3F	; 63
    68ee:	91 e0       	ldi	r25, 0x01	; 1
    68f0:	90 93 39 0c 	sts	0x0C39, r25
    68f4:	80 93 38 0c 	sts	0x0C38, r24
    68f8:	26 c0       	rjmp	.+76     	; 0x6946 <Touch_input_ADS7846+0x17e>
  else if(y_12bit >= y_touch_max)
    68fa:	8e e0       	ldi	r24, 0x0E	; 14
    68fc:	c6 3f       	cpi	r28, 0xF6	; 246
    68fe:	d8 07       	cpc	r29, r24
    6900:	28 f0       	brcs	.+10     	; 0x690c <Touch_input_ADS7846+0x144>
    y_touch = 0;
    6902:	10 92 39 0c 	sts	0x0C39, r1
    6906:	10 92 38 0c 	sts	0x0C38, r1
    690a:	1d c0       	rjmp	.+58     	; 0x6946 <Touch_input_ADS7846+0x17e>
  else
    y_touch = 319 - (unsigned int)((float)(y_12bit - y_touch_min) * 319./(float)(y_touch_max - y_touch_min));
    690c:	c0 59       	subi	r28, 0x90	; 144
    690e:	d1 40       	sbci	r29, 0x01	; 1
    6910:	be 01       	movw	r22, r28
    6912:	80 e0       	ldi	r24, 0x00	; 0
    6914:	90 e0       	ldi	r25, 0x00	; 0
    6916:	0e 94 53 5b 	call	0xb6a6	; 0xb6a6 <__floatunsisf>
    691a:	20 e0       	ldi	r18, 0x00	; 0
    691c:	30 e8       	ldi	r19, 0x80	; 128
    691e:	4f e9       	ldi	r20, 0x9F	; 159
    6920:	53 e4       	ldi	r21, 0x43	; 67
    6922:	0e 94 1e 5c 	call	0xb83c	; 0xb83c <__mulsf3>
    6926:	20 e0       	ldi	r18, 0x00	; 0
    6928:	30 e6       	ldi	r19, 0x60	; 96
    692a:	46 e5       	ldi	r20, 0x56	; 86
    692c:	55 e4       	ldi	r21, 0x45	; 69
    692e:	0e 94 ba 5a 	call	0xb574	; 0xb574 <__divsf3>
    6932:	0e 94 27 5b 	call	0xb64e	; 0xb64e <__fixunssfsi>
    6936:	2f e3       	ldi	r18, 0x3F	; 63
    6938:	31 e0       	ldi	r19, 0x01	; 1
    693a:	26 1b       	sub	r18, r22
    693c:	37 0b       	sbc	r19, r23
    693e:	30 93 39 0c 	sts	0x0C39, r19
    6942:	20 93 38 0c 	sts	0x0C38, r18
}
    6946:	df 91       	pop	r29
    6948:	cf 91       	pop	r28
    694a:	1f 91       	pop	r17
    694c:	0f 91       	pop	r16
    694e:	ff 90       	pop	r15
    6950:	08 95       	ret

00006952 <Read_TSC2003>:

  Read_TSC2003(TSC2003_CMD_X);			// dummy input for -TS_INT signal
}

unsigned int Read_TSC2003(U08 command)		/* read X, Y value from TSC2003 */
{
    6952:	0f 93       	push	r16
    6954:	1f 93       	push	r17
    6956:	98 2f       	mov	r25, r24
  unsigned int axis;

  TWCR = 0xA4;					// START condition
    6958:	84 ea       	ldi	r24, 0xA4	; 164
    695a:	80 93 74 00 	sts	0x0074, r24
  while(((TWCR & 0x80) == 0x00) || ((TWSR & 0xF8) != 0x08)); // START complete ?
    695e:	80 91 74 00 	lds	r24, 0x0074
    6962:	87 ff       	sbrs	r24, 7
    6964:	fc cf       	rjmp	.-8      	; 0x695e <Read_TSC2003+0xc>
    6966:	80 91 71 00 	lds	r24, 0x0071
    696a:	88 7f       	andi	r24, 0xF8	; 248
    696c:	88 30       	cpi	r24, 0x08	; 8
    696e:	b9 f7       	brne	.-18     	; 0x695e <Read_TSC2003+0xc>
  TWDR = 0x90;					// SLA+W
    6970:	80 e9       	ldi	r24, 0x90	; 144
    6972:	80 93 73 00 	sts	0x0073, r24
  TWCR = 0x84;
    6976:	84 e8       	ldi	r24, 0x84	; 132
    6978:	80 93 74 00 	sts	0x0074, r24
  while(((TWCR & 0x80) == 0x00) || ((TWSR & 0xF8) != 0x18)); // SLA+W complete ?
    697c:	80 91 74 00 	lds	r24, 0x0074
    6980:	87 ff       	sbrs	r24, 7
    6982:	fc cf       	rjmp	.-8      	; 0x697c <Read_TSC2003+0x2a>
    6984:	80 91 71 00 	lds	r24, 0x0071
    6988:	88 7f       	andi	r24, 0xF8	; 248
    698a:	88 31       	cpi	r24, 0x18	; 24
    698c:	b9 f7       	brne	.-18     	; 0x697c <Read_TSC2003+0x2a>
  TWDR = command;				// command
    698e:	90 93 73 00 	sts	0x0073, r25
  TWCR = 0x84;
    6992:	84 e8       	ldi	r24, 0x84	; 132
    6994:	80 93 74 00 	sts	0x0074, r24
  while(((TWCR & 0x80) == 0x00) || ((TWSR & 0xF8) != 0x28)); // address complete ?
    6998:	80 91 74 00 	lds	r24, 0x0074
    699c:	87 ff       	sbrs	r24, 7
    699e:	fc cf       	rjmp	.-8      	; 0x6998 <Read_TSC2003+0x46>
    69a0:	80 91 71 00 	lds	r24, 0x0071
    69a4:	88 7f       	andi	r24, 0xF8	; 248
    69a6:	88 32       	cpi	r24, 0x28	; 40
    69a8:	b9 f7       	brne	.-18     	; 0x6998 <Read_TSC2003+0x46>
  TWCR = 0x94;   		                // STOP condition
    69aa:	84 e9       	ldi	r24, 0x94	; 148
    69ac:	80 93 74 00 	sts	0x0074, r24
  Delay_us(10);
    69b0:	8a e0       	ldi	r24, 0x0A	; 10
    69b2:	0e 94 08 25 	call	0x4a10	; 0x4a10 <Delay_us>

  TWCR = 0xA4;					// START condition
    69b6:	84 ea       	ldi	r24, 0xA4	; 164
    69b8:	80 93 74 00 	sts	0x0074, r24
  while(((TWCR & 0x80) == 0x00) || ((TWSR & 0xF8) != 0x08)); // START complete ?
    69bc:	80 91 74 00 	lds	r24, 0x0074
    69c0:	87 ff       	sbrs	r24, 7
    69c2:	fc cf       	rjmp	.-8      	; 0x69bc <Read_TSC2003+0x6a>
    69c4:	80 91 71 00 	lds	r24, 0x0071
    69c8:	88 7f       	andi	r24, 0xF8	; 248
    69ca:	88 30       	cpi	r24, 0x08	; 8
    69cc:	b9 f7       	brne	.-18     	; 0x69bc <Read_TSC2003+0x6a>
  TWDR = 0x91;					// SLA+R
    69ce:	81 e9       	ldi	r24, 0x91	; 145
    69d0:	80 93 73 00 	sts	0x0073, r24
  TWCR = 0x84;
    69d4:	84 e8       	ldi	r24, 0x84	; 132
    69d6:	80 93 74 00 	sts	0x0074, r24
  while(((TWCR & 0x80) == 0x00) || ((TWSR & 0xF8) != 0x40)); // SLA+R complete ?
    69da:	80 91 74 00 	lds	r24, 0x0074
    69de:	87 ff       	sbrs	r24, 7
    69e0:	fc cf       	rjmp	.-8      	; 0x69da <Read_TSC2003+0x88>
    69e2:	80 91 71 00 	lds	r24, 0x0071
    69e6:	88 7f       	andi	r24, 0xF8	; 248
    69e8:	80 34       	cpi	r24, 0x40	; 64
    69ea:	b9 f7       	brne	.-18     	; 0x69da <Read_TSC2003+0x88>
  TWCR = 0xC4;					// read data with acknowledge
    69ec:	84 ec       	ldi	r24, 0xC4	; 196
    69ee:	80 93 74 00 	sts	0x0074, r24
  while(((TWCR & 0x80) == 0x00) || ((TWSR & 0xF8) != 0x50)); // data complete ?
    69f2:	80 91 74 00 	lds	r24, 0x0074
    69f6:	87 ff       	sbrs	r24, 7
    69f8:	fc cf       	rjmp	.-8      	; 0x69f2 <Read_TSC2003+0xa0>
    69fa:	80 91 71 00 	lds	r24, 0x0071
    69fe:	88 7f       	andi	r24, 0xF8	; 248
    6a00:	80 35       	cpi	r24, 0x50	; 80
    6a02:	b9 f7       	brne	.-18     	; 0x69f2 <Read_TSC2003+0xa0>
  axis = TWDR;					// read high 8 bit
    6a04:	90 91 73 00 	lds	r25, 0x0073
  axis <<= 8;
  TWCR = 0x84;					// read data with no acknowledge
    6a08:	84 e8       	ldi	r24, 0x84	; 132
    6a0a:	80 93 74 00 	sts	0x0074, r24
  while(((TWCR & 0x80) == 0x00) || ((TWSR & 0xF8) != 0x58)); // data complete ?
    6a0e:	80 91 74 00 	lds	r24, 0x0074
    6a12:	87 ff       	sbrs	r24, 7
    6a14:	fc cf       	rjmp	.-8      	; 0x6a0e <Read_TSC2003+0xbc>
    6a16:	80 91 71 00 	lds	r24, 0x0071
    6a1a:	88 7f       	andi	r24, 0xF8	; 248
    6a1c:	88 35       	cpi	r24, 0x58	; 88
    6a1e:	b9 f7       	brne	.-18     	; 0x6a0e <Read_TSC2003+0xbc>
  axis += TWDR;					// read low 4 bit
    6a20:	80 91 73 00 	lds	r24, 0x0073
  TWCR = 0x84;
  while(((TWCR & 0x80) == 0x00) || ((TWSR & 0xF8) != 0x40)); // SLA+R complete ?
  TWCR = 0xC4;					// read data with acknowledge
  while(((TWCR & 0x80) == 0x00) || ((TWSR & 0xF8) != 0x50)); // data complete ?
  axis = TWDR;					// read high 8 bit
  axis <<= 8;
    6a24:	19 2f       	mov	r17, r25
    6a26:	00 e0       	ldi	r16, 0x00	; 0
  TWCR = 0x84;					// read data with no acknowledge
  while(((TWCR & 0x80) == 0x00) || ((TWSR & 0xF8) != 0x58)); // data complete ?
  axis += TWDR;					// read low 4 bit
    6a28:	08 0f       	add	r16, r24
    6a2a:	11 1d       	adc	r17, r1
  TWCR = 0x94;   		                // STOP condition
    6a2c:	84 e9       	ldi	r24, 0x94	; 148
    6a2e:	80 93 74 00 	sts	0x0074, r24
  Delay_us(10);
    6a32:	8a e0       	ldi	r24, 0x0A	; 10
    6a34:	0e 94 08 25 	call	0x4a10	; 0x4a10 <Delay_us>
    6a38:	a4 e0       	ldi	r26, 0x04	; 4
    6a3a:	16 95       	lsr	r17
    6a3c:	07 95       	ror	r16
    6a3e:	aa 95       	dec	r26
    6a40:	e1 f7       	brne	.-8      	; 0x6a3a <Read_TSC2003+0xe8>

  axis >>= 4;
  return axis;
}
    6a42:	c8 01       	movw	r24, r16
    6a44:	1f 91       	pop	r17
    6a46:	0f 91       	pop	r16
    6a48:	08 95       	ret

00006a4a <Initialize_TSC2003>:
#define TSC2003_CMD_X	0b11000000		// 12-bit resolution X position measurement command
#define TSC2003_CMD_Y	0b11010000		// 12-bit resolution Y position measurement command

void Initialize_TSC2003(void)			/* initialize TSC2003 */
{
  cbi(DDRE,4);					// -TS_INT is input
    6a4a:	14 98       	cbi	0x02, 4	; 2

  TWBR = 12;					// 400kHz(TWBR=12, TWPS=0)
    6a4c:	8c e0       	ldi	r24, 0x0C	; 12
    6a4e:	80 93 70 00 	sts	0x0070, r24
  TWSR = 0x00;
    6a52:	10 92 71 00 	sts	0x0071, r1

  Read_TSC2003(TSC2003_CMD_X);			// dummy input for -TS_INT signal
    6a56:	80 ec       	ldi	r24, 0xC0	; 192
    6a58:	0e 94 a9 34 	call	0x6952	; 0x6952 <Read_TSC2003>
}
    6a5c:	08 95       	ret

00006a5e <Initialize_touch_screen>:
unsigned int x_12bit, y_12bit;			// x_12bit(0-4095), y_12bit(0-4095)
unsigned int x_touch, y_touch;			// x_touch(0-239),  y_touch(0-319)

void Initialize_touch_screen(void)		/* initialize touch screen */
{
  if((PING & 0x10) == 0x10)			// if PG4 = 1, use ADS7846
    6a5e:	80 91 63 00 	lds	r24, 0x0063
    6a62:	84 ff       	sbrs	r24, 4
    6a64:	06 c0       	rjmp	.+12     	; 0x6a72 <Initialize_touch_screen+0x14>
    { touch_flag = 'A';
    6a66:	81 e4       	ldi	r24, 0x41	; 65
    6a68:	80 93 51 0b 	sts	0x0B51, r24
      Initialize_ADS7846();
    6a6c:	0e 94 db 33 	call	0x67b6	; 0x67b6 <Initialize_ADS7846>
    6a70:	08 95       	ret
    }
  else						// if PG4 = 0, use TSC2003
    { touch_flag = 'T';
    6a72:	84 e5       	ldi	r24, 0x54	; 84
    6a74:	80 93 51 0b 	sts	0x0B51, r24
      Initialize_TSC2003();
    6a78:	0e 94 25 35 	call	0x6a4a	; 0x6a4a <Initialize_TSC2003>
    6a7c:	08 95       	ret

00006a7e <Touch_input_TSC2003>:
  axis >>= 4;
  return axis;
}

void Touch_input_TSC2003(void)			/* touch input X, Y average value from TSC2003 */
{
    6a7e:	ff 92       	push	r15
    6a80:	0f 93       	push	r16
    6a82:	1f 93       	push	r17
    6a84:	cf 93       	push	r28
    6a86:	df 93       	push	r29
  unsigned char i;

  x_12bit = 0;					// initial value
    6a88:	10 92 3e 0c 	sts	0x0C3E, r1
    6a8c:	10 92 3d 0c 	sts	0x0C3D, r1
  y_12bit = 0;
    6a90:	10 92 59 0b 	sts	0x0B59, r1
    6a94:	10 92 58 0b 	sts	0x0B58, r1
    6a98:	ff 24       	eor	r15, r15

  for(i = 0; i < 16; i++)			// read X, Y value by 16 times if -PENIRQ enable
    { if((PINE & 0x04) == 0x00)			// -TS_INT = 0 ?
    6a9a:	0a 99       	sbic	0x01, 2	; 1
    6a9c:	27 c0       	rjmp	.+78     	; 0x6aec <Touch_input_TSC2003+0x6e>
        x_12bit += Read_TSC2003(TSC2003_CMD_X);	// if yes, measure X position
    6a9e:	00 91 3d 0c 	lds	r16, 0x0C3D
    6aa2:	10 91 3e 0c 	lds	r17, 0x0C3E
    6aa6:	80 ec       	ldi	r24, 0xC0	; 192
    6aa8:	0e 94 a9 34 	call	0x6952	; 0x6952 <Read_TSC2003>
    6aac:	08 0f       	add	r16, r24
    6aae:	19 1f       	adc	r17, r25
    6ab0:	10 93 3e 0c 	sts	0x0C3E, r17
    6ab4:	00 93 3d 0c 	sts	0x0C3D, r16
      else					// if not, return with 0
        { x_12bit = 0;
	  y_12bit = 0;
	  break;
	}
      Delay_us(10);
    6ab8:	8a e0       	ldi	r24, 0x0A	; 10
    6aba:	0e 94 08 25 	call	0x4a10	; 0x4a10 <Delay_us>

      if((PINE & 0x04) == 0x00)			// -TS_INT = 0 ?
    6abe:	0a 99       	sbic	0x01, 2	; 1
    6ac0:	15 c0       	rjmp	.+42     	; 0x6aec <Touch_input_TSC2003+0x6e>
        y_12bit += Read_TSC2003(TSC2003_CMD_Y);	// if yes, measure Y position
    6ac2:	00 91 58 0b 	lds	r16, 0x0B58
    6ac6:	10 91 59 0b 	lds	r17, 0x0B59
    6aca:	80 ed       	ldi	r24, 0xD0	; 208
    6acc:	0e 94 a9 34 	call	0x6952	; 0x6952 <Read_TSC2003>
    6ad0:	08 0f       	add	r16, r24
    6ad2:	19 1f       	adc	r17, r25
    6ad4:	10 93 59 0b 	sts	0x0B59, r17
    6ad8:	00 93 58 0b 	sts	0x0B58, r16
      else					// if not, return with 0
        { x_12bit = 0;
	  y_12bit = 0;
	  break;
	}
      Delay_us(10);
    6adc:	8a e0       	ldi	r24, 0x0A	; 10
    6ade:	0e 94 08 25 	call	0x4a10	; 0x4a10 <Delay_us>
  unsigned char i;

  x_12bit = 0;					// initial value
  y_12bit = 0;

  for(i = 0; i < 16; i++)			// read X, Y value by 16 times if -PENIRQ enable
    6ae2:	f3 94       	inc	r15
    6ae4:	80 e1       	ldi	r24, 0x10	; 16
    6ae6:	f8 16       	cp	r15, r24
    6ae8:	c1 f6       	brne	.-80     	; 0x6a9a <Touch_input_TSC2003+0x1c>
    6aea:	08 c0       	rjmp	.+16     	; 0x6afc <Touch_input_TSC2003+0x7e>
      Delay_us(10);

      if((PINE & 0x04) == 0x00)			// -TS_INT = 0 ?
        y_12bit += Read_TSC2003(TSC2003_CMD_Y);	// if yes, measure Y position
      else					// if not, return with 0
        { x_12bit = 0;
    6aec:	10 92 3e 0c 	sts	0x0C3E, r1
    6af0:	10 92 3d 0c 	sts	0x0C3D, r1
	  y_12bit = 0;
    6af4:	10 92 59 0b 	sts	0x0B59, r1
    6af8:	10 92 58 0b 	sts	0x0B58, r1
	  break;
	}
      Delay_us(10);
    }

  x_12bit >>= 4;				// calculate average for 16 times
    6afc:	60 91 3d 0c 	lds	r22, 0x0C3D
    6b00:	70 91 3e 0c 	lds	r23, 0x0C3E
    6b04:	14 e0       	ldi	r17, 0x04	; 4
    6b06:	76 95       	lsr	r23
    6b08:	67 95       	ror	r22
    6b0a:	1a 95       	dec	r17
    6b0c:	e1 f7       	brne	.-8      	; 0x6b06 <Touch_input_TSC2003+0x88>
    6b0e:	70 93 3e 0c 	sts	0x0C3E, r23
    6b12:	60 93 3d 0c 	sts	0x0C3D, r22
  y_12bit >>= 4;
    6b16:	c0 91 58 0b 	lds	r28, 0x0B58
    6b1a:	d0 91 59 0b 	lds	r29, 0x0B59
    6b1e:	b4 e0       	ldi	r27, 0x04	; 4
    6b20:	d6 95       	lsr	r29
    6b22:	c7 95       	ror	r28
    6b24:	ba 95       	dec	r27
    6b26:	e1 f7       	brne	.-8      	; 0x6b20 <Touch_input_TSC2003+0xa2>
    6b28:	d0 93 59 0b 	sts	0x0B59, r29
    6b2c:	c0 93 58 0b 	sts	0x0B58, r28

  if((x_12bit == 0) && (y_12bit == 0))
    6b30:	61 15       	cp	r22, r1
    6b32:	71 05       	cpc	r23, r1
    6b34:	39 f4       	brne	.+14     	; 0x6b44 <Touch_input_TSC2003+0xc6>
    6b36:	20 97       	sbiw	r28, 0x00	; 0
    6b38:	41 f4       	brne	.+16     	; 0x6b4a <Touch_input_TSC2003+0xcc>
    { x_touch = 0;
    6b3a:	10 92 5e 0b 	sts	0x0B5E, r1
    6b3e:	10 92 5d 0b 	sts	0x0B5D, r1
    6b42:	3a c0       	rjmp	.+116    	; 0x6bb8 <Touch_input_TSC2003+0x13a>
      y_touch = 0;
      return;
    }

  if(x_12bit <= x_touch_min)			// convert to pixel x-axis value
    6b44:	6b 3f       	cpi	r22, 0xFB	; 251
    6b46:	71 05       	cpc	r23, r1
    6b48:	28 f4       	brcc	.+10     	; 0x6b54 <Touch_input_TSC2003+0xd6>
    x_touch = 0;
    6b4a:	10 92 5e 0b 	sts	0x0B5E, r1
    6b4e:	10 92 5d 0b 	sts	0x0B5D, r1
    6b52:	23 c0       	rjmp	.+70     	; 0x6b9a <Touch_input_TSC2003+0x11c>
  else if(x_12bit >= x_touch_max)
    6b54:	8e e0       	ldi	r24, 0x0E	; 14
    6b56:	66 3a       	cpi	r22, 0xA6	; 166
    6b58:	78 07       	cpc	r23, r24
    6b5a:	38 f0       	brcs	.+14     	; 0x6b6a <Touch_input_TSC2003+0xec>
    x_touch = 239;
    6b5c:	8f ee       	ldi	r24, 0xEF	; 239
    6b5e:	90 e0       	ldi	r25, 0x00	; 0
    6b60:	90 93 5e 0b 	sts	0x0B5E, r25
    6b64:	80 93 5d 0b 	sts	0x0B5D, r24
    6b68:	18 c0       	rjmp	.+48     	; 0x6b9a <Touch_input_TSC2003+0x11c>
  else
    x_touch = (unsigned int)((float)(x_12bit - x_touch_min) * 239./(float)(x_touch_max - x_touch_min));
    6b6a:	6a 5f       	subi	r22, 0xFA	; 250
    6b6c:	70 40       	sbci	r23, 0x00	; 0
    6b6e:	80 e0       	ldi	r24, 0x00	; 0
    6b70:	90 e0       	ldi	r25, 0x00	; 0
    6b72:	0e 94 53 5b 	call	0xb6a6	; 0xb6a6 <__floatunsisf>
    6b76:	20 e0       	ldi	r18, 0x00	; 0
    6b78:	30 e0       	ldi	r19, 0x00	; 0
    6b7a:	4f e6       	ldi	r20, 0x6F	; 111
    6b7c:	53 e4       	ldi	r21, 0x43	; 67
    6b7e:	0e 94 1e 5c 	call	0xb83c	; 0xb83c <__mulsf3>
    6b82:	20 e0       	ldi	r18, 0x00	; 0
    6b84:	30 ec       	ldi	r19, 0xC0	; 192
    6b86:	4a e5       	ldi	r20, 0x5A	; 90
    6b88:	55 e4       	ldi	r21, 0x45	; 69
    6b8a:	0e 94 ba 5a 	call	0xb574	; 0xb574 <__divsf3>
    6b8e:	0e 94 27 5b 	call	0xb64e	; 0xb64e <__fixunssfsi>
    6b92:	70 93 5e 0b 	sts	0x0B5E, r23
    6b96:	60 93 5d 0b 	sts	0x0B5D, r22

  if(y_12bit <= y_touch_min)			// convert to pixel y-axis value
    6b9a:	81 e0       	ldi	r24, 0x01	; 1
    6b9c:	c1 39       	cpi	r28, 0x91	; 145
    6b9e:	d8 07       	cpc	r29, r24
    6ba0:	38 f4       	brcc	.+14     	; 0x6bb0 <Touch_input_TSC2003+0x132>
    y_touch = 319;
    6ba2:	8f e3       	ldi	r24, 0x3F	; 63
    6ba4:	91 e0       	ldi	r25, 0x01	; 1
    6ba6:	90 93 39 0c 	sts	0x0C39, r25
    6baa:	80 93 38 0c 	sts	0x0C38, r24
    6bae:	26 c0       	rjmp	.+76     	; 0x6bfc <Touch_input_TSC2003+0x17e>
  else if(y_12bit >= y_touch_max)
    6bb0:	8e e0       	ldi	r24, 0x0E	; 14
    6bb2:	c6 3f       	cpi	r28, 0xF6	; 246
    6bb4:	d8 07       	cpc	r29, r24
    6bb6:	28 f0       	brcs	.+10     	; 0x6bc2 <Touch_input_TSC2003+0x144>
    y_touch = 0;
    6bb8:	10 92 39 0c 	sts	0x0C39, r1
    6bbc:	10 92 38 0c 	sts	0x0C38, r1
    6bc0:	1d c0       	rjmp	.+58     	; 0x6bfc <Touch_input_TSC2003+0x17e>
  else
    y_touch = 319 - (unsigned int)((float)(y_12bit - y_touch_min) * 319./(float)(y_touch_max - y_touch_min));
    6bc2:	c0 59       	subi	r28, 0x90	; 144
    6bc4:	d1 40       	sbci	r29, 0x01	; 1
    6bc6:	be 01       	movw	r22, r28
    6bc8:	80 e0       	ldi	r24, 0x00	; 0
    6bca:	90 e0       	ldi	r25, 0x00	; 0
    6bcc:	0e 94 53 5b 	call	0xb6a6	; 0xb6a6 <__floatunsisf>
    6bd0:	20 e0       	ldi	r18, 0x00	; 0
    6bd2:	30 e8       	ldi	r19, 0x80	; 128
    6bd4:	4f e9       	ldi	r20, 0x9F	; 159
    6bd6:	53 e4       	ldi	r21, 0x43	; 67
    6bd8:	0e 94 1e 5c 	call	0xb83c	; 0xb83c <__mulsf3>
    6bdc:	20 e0       	ldi	r18, 0x00	; 0
    6bde:	30 e6       	ldi	r19, 0x60	; 96
    6be0:	46 e5       	ldi	r20, 0x56	; 86
    6be2:	55 e4       	ldi	r21, 0x45	; 69
    6be4:	0e 94 ba 5a 	call	0xb574	; 0xb574 <__divsf3>
    6be8:	0e 94 27 5b 	call	0xb64e	; 0xb64e <__fixunssfsi>
    6bec:	2f e3       	ldi	r18, 0x3F	; 63
    6bee:	31 e0       	ldi	r19, 0x01	; 1
    6bf0:	26 1b       	sub	r18, r22
    6bf2:	37 0b       	sbc	r19, r23
    6bf4:	30 93 39 0c 	sts	0x0C39, r19
    6bf8:	20 93 38 0c 	sts	0x0C38, r18
}
    6bfc:	df 91       	pop	r29
    6bfe:	cf 91       	pop	r28
    6c00:	1f 91       	pop	r17
    6c02:	0f 91       	pop	r16
    6c04:	ff 90       	pop	r15
    6c06:	08 95       	ret

00006c08 <Touch_screen_input>:
    }
}

void Touch_screen_input(void)			/* touch screen input of X, Y average value */
{
  if(touch_flag == 'A')				// if touch_flag = 'A', read ADS7846
    6c08:	80 91 51 0b 	lds	r24, 0x0B51
    6c0c:	81 34       	cpi	r24, 0x41	; 65
    6c0e:	19 f4       	brne	.+6      	; 0x6c16 <Touch_screen_input+0xe>
    Touch_input_ADS7846();
    6c10:	0e 94 e4 33 	call	0x67c8	; 0x67c8 <Touch_input_ADS7846>
    6c14:	08 95       	ret
  else						// if touch_flag = 'T', read TSC2003
    Touch_input_TSC2003();
    6c16:	0e 94 3f 35 	call	0x6a7e	; 0x6a7e <Touch_input_TSC2003>
    6c1a:	08 95       	ret

00006c1c <Display_screen>:
}

/* ---------------------------------------------------------------------------- */

void Display_screen(void)			/* display test screen */
{
    6c1c:	0f 93       	push	r16
    6c1e:	1f 93       	push	r17
  TFT_clear_screen();				// clear screen
    6c20:	0e 94 cf 28 	call	0x519e	; 0x519e <TFT_clear_screen>
  TFT_portrait();				// portrait mode
    6c24:	0e 94 a0 2a 	call	0x5540	; 0x5540 <TFT_portrait>

  Rectangle(0,0, 239,319, Green);
    6c28:	80 e0       	ldi	r24, 0x00	; 0
    6c2a:	90 e0       	ldi	r25, 0x00	; 0
    6c2c:	60 e0       	ldi	r22, 0x00	; 0
    6c2e:	70 e0       	ldi	r23, 0x00	; 0
    6c30:	4f ee       	ldi	r20, 0xEF	; 239
    6c32:	50 e0       	ldi	r21, 0x00	; 0
    6c34:	2f e3       	ldi	r18, 0x3F	; 63
    6c36:	31 e0       	ldi	r19, 0x01	; 1
    6c38:	00 ee       	ldi	r16, 0xE0	; 224
    6c3a:	17 e0       	ldi	r17, 0x07	; 7
    6c3c:	0e 94 14 33 	call	0x6628	; 0x6628 <Rectangle>
  Rectangle(1,1, 238,318, Green);
    6c40:	81 e0       	ldi	r24, 0x01	; 1
    6c42:	90 e0       	ldi	r25, 0x00	; 0
    6c44:	61 e0       	ldi	r22, 0x01	; 1
    6c46:	70 e0       	ldi	r23, 0x00	; 0
    6c48:	4e ee       	ldi	r20, 0xEE	; 238
    6c4a:	50 e0       	ldi	r21, 0x00	; 0
    6c4c:	2e e3       	ldi	r18, 0x3E	; 62
    6c4e:	31 e0       	ldi	r19, 0x01	; 1
    6c50:	0e 94 14 33 	call	0x6628	; 0x6628 <Rectangle>
  Rectangle(2,2, 237,317, Green);
    6c54:	82 e0       	ldi	r24, 0x02	; 2
    6c56:	90 e0       	ldi	r25, 0x00	; 0
    6c58:	62 e0       	ldi	r22, 0x02	; 2
    6c5a:	70 e0       	ldi	r23, 0x00	; 0
    6c5c:	4d ee       	ldi	r20, 0xED	; 237
    6c5e:	50 e0       	ldi	r21, 0x00	; 0
    6c60:	2d e3       	ldi	r18, 0x3D	; 61
    6c62:	31 e0       	ldi	r19, 0x01	; 1
    6c64:	0e 94 14 33 	call	0x6628	; 0x6628 <Rectangle>
  TFT_string(1, 1,White,Magenta,"OK-128TFT   ");
    6c68:	81 e0       	ldi	r24, 0x01	; 1
    6c6a:	61 e0       	ldi	r22, 0x01	; 1
    6c6c:	4f ef       	ldi	r20, 0xFF	; 255
    6c6e:	5f ef       	ldi	r21, 0xFF	; 255
    6c70:	2f e1       	ldi	r18, 0x1F	; 31
    6c72:	38 ef       	ldi	r19, 0xF8	; 248
    6c74:	00 e0       	ldi	r16, 0x00	; 0
    6c76:	11 e0       	ldi	r17, 0x01	; 1
    6c78:	0e 94 28 2f 	call	0x5e50	; 0x5e50 <TFT_string>
  TFT_string(1, 4,Cyan,   Black,"  (1) TFT-LCD  ");
    6c7c:	81 e0       	ldi	r24, 0x01	; 1
    6c7e:	64 e0       	ldi	r22, 0x04	; 4
    6c80:	4f ef       	ldi	r20, 0xFF	; 255
    6c82:	57 e0       	ldi	r21, 0x07	; 7
    6c84:	20 e0       	ldi	r18, 0x00	; 0
    6c86:	30 e0       	ldi	r19, 0x00	; 0
    6c88:	0d e1       	ldi	r16, 0x1D	; 29
    6c8a:	11 e0       	ldi	r17, 0x01	; 1
    6c8c:	0e 94 28 2f 	call	0x5e50	; 0x5e50 <TFT_string>
  TFT_string(1, 7,Green,  Black,"  (2) TFT-LCD  ");
    6c90:	81 e0       	ldi	r24, 0x01	; 1
    6c92:	67 e0       	ldi	r22, 0x07	; 7
    6c94:	40 ee       	ldi	r20, 0xE0	; 224
    6c96:	57 e0       	ldi	r21, 0x07	; 7
    6c98:	20 e0       	ldi	r18, 0x00	; 0
    6c9a:	30 e0       	ldi	r19, 0x00	; 0
    6c9c:	07 e3       	ldi	r16, 0x37	; 55
    6c9e:	11 e0       	ldi	r17, 0x01	; 1
    6ca0:	0e 94 28 2f 	call	0x5e50	; 0x5e50 <TFT_string>
  TFT_string(1,10,Cyan,   Black,"  (3) TFT-LCD  ");
    6ca4:	81 e0       	ldi	r24, 0x01	; 1
    6ca6:	6a e0       	ldi	r22, 0x0A	; 10
    6ca8:	4f ef       	ldi	r20, 0xFF	; 255
    6caa:	57 e0       	ldi	r21, 0x07	; 7
    6cac:	20 e0       	ldi	r18, 0x00	; 0
    6cae:	30 e0       	ldi	r19, 0x00	; 0
    6cb0:	01 e5       	ldi	r16, 0x51	; 81
    6cb2:	11 e0       	ldi	r17, 0x01	; 1
    6cb4:	0e 94 28 2f 	call	0x5e50	; 0x5e50 <TFT_string>
  TFT_string(1,13,Green,  Black,"  (4)  ");
    6cb8:	81 e0       	ldi	r24, 0x01	; 1
    6cba:	6d e0       	ldi	r22, 0x0D	; 13
    6cbc:	40 ee       	ldi	r20, 0xE0	; 224
    6cbe:	57 e0       	ldi	r21, 0x07	; 7
    6cc0:	20 e0       	ldi	r18, 0x00	; 0
    6cc2:	30 e0       	ldi	r19, 0x00	; 0
    6cc4:	0d e6       	ldi	r16, 0x6D	; 109
    6cc6:	11 e0       	ldi	r17, 0x01	; 1
    6cc8:	0e 94 28 2f 	call	0x5e50	; 0x5e50 <TFT_string>
  TFT_string(1,16,Cyan,   Black,"  (5) LED/  ");
    6ccc:	81 e0       	ldi	r24, 0x01	; 1
    6cce:	60 e1       	ldi	r22, 0x10	; 16
    6cd0:	4f ef       	ldi	r20, 0xFF	; 255
    6cd2:	57 e0       	ldi	r21, 0x07	; 7
    6cd4:	20 e0       	ldi	r18, 0x00	; 0
    6cd6:	30 e0       	ldi	r19, 0x00	; 0
    6cd8:	05 e8       	ldi	r16, 0x85	; 133
    6cda:	11 e0       	ldi	r17, 0x01	; 1
    6cdc:	0e 94 28 2f 	call	0x5e50	; 0x5e50 <TFT_string>
  TFT_string(1,19,Green,  Black,"  (6)   ");
    6ce0:	81 e0       	ldi	r24, 0x01	; 1
    6ce2:	63 e1       	ldi	r22, 0x13	; 19
    6ce4:	40 ee       	ldi	r20, 0xE0	; 224
    6ce6:	57 e0       	ldi	r21, 0x07	; 7
    6ce8:	20 e0       	ldi	r18, 0x00	; 0
    6cea:	30 e0       	ldi	r19, 0x00	; 0
    6cec:	00 ea       	ldi	r16, 0xA0	; 160
    6cee:	11 e0       	ldi	r17, 0x01	; 1
    6cf0:	0e 94 28 2f 	call	0x5e50	; 0x5e50 <TFT_string>
  TFT_string(1,22,Cyan,   Black,"  (7) A/D   ");
    6cf4:	81 e0       	ldi	r24, 0x01	; 1
    6cf6:	66 e1       	ldi	r22, 0x16	; 22
    6cf8:	4f ef       	ldi	r20, 0xFF	; 255
    6cfa:	57 e0       	ldi	r21, 0x07	; 7
    6cfc:	20 e0       	ldi	r18, 0x00	; 0
    6cfe:	30 e0       	ldi	r19, 0x00	; 0
    6d00:	09 eb       	ldi	r16, 0xB9	; 185
    6d02:	11 e0       	ldi	r17, 0x01	; 1
    6d04:	0e 94 28 2f 	call	0x5e50	; 0x5e50 <TFT_string>
  TFT_string(1,25,Green,  Black,"  (8) D/A   ");
    6d08:	81 e0       	ldi	r24, 0x01	; 1
    6d0a:	69 e1       	ldi	r22, 0x19	; 25
    6d0c:	40 ee       	ldi	r20, 0xE0	; 224
    6d0e:	57 e0       	ldi	r21, 0x07	; 7
    6d10:	20 e0       	ldi	r18, 0x00	; 0
    6d12:	30 e0       	ldi	r19, 0x00	; 0
    6d14:	06 ed       	ldi	r16, 0xD6	; 214
    6d16:	11 e0       	ldi	r17, 0x01	; 1
    6d18:	0e 94 28 2f 	call	0x5e50	; 0x5e50 <TFT_string>
  TFT_string(1,28,Cyan,   Black,"  (9) RS-232C  ");
    6d1c:	81 e0       	ldi	r24, 0x01	; 1
    6d1e:	6c e1       	ldi	r22, 0x1C	; 28
    6d20:	4f ef       	ldi	r20, 0xFF	; 255
    6d22:	57 e0       	ldi	r21, 0x07	; 7
    6d24:	20 e0       	ldi	r18, 0x00	; 0
    6d26:	30 e0       	ldi	r19, 0x00	; 0
    6d28:	03 ef       	ldi	r16, 0xF3	; 243
    6d2a:	11 e0       	ldi	r17, 0x01	; 1
    6d2c:	0e 94 28 2f 	call	0x5e50	; 0x5e50 <TFT_string>
  TFT_string(1,31,Green,  Black,"  (10) DS1307  ");
    6d30:	81 e0       	ldi	r24, 0x01	; 1
    6d32:	6f e1       	ldi	r22, 0x1F	; 31
    6d34:	40 ee       	ldi	r20, 0xE0	; 224
    6d36:	57 e0       	ldi	r21, 0x07	; 7
    6d38:	20 e0       	ldi	r18, 0x00	; 0
    6d3a:	30 e0       	ldi	r19, 0x00	; 0
    6d3c:	0d e0       	ldi	r16, 0x0D	; 13
    6d3e:	12 e0       	ldi	r17, 0x02	; 2
    6d40:	0e 94 28 2f 	call	0x5e50	; 0x5e50 <TFT_string>
  TFT_string(1,34,Cyan,   Black,"  (11) DS1307  ");
    6d44:	81 e0       	ldi	r24, 0x01	; 1
    6d46:	62 e2       	ldi	r22, 0x22	; 34
    6d48:	4f ef       	ldi	r20, 0xFF	; 255
    6d4a:	57 e0       	ldi	r21, 0x07	; 7
    6d4c:	20 e0       	ldi	r18, 0x00	; 0
    6d4e:	30 e0       	ldi	r19, 0x00	; 0
    6d50:	07 e2       	ldi	r16, 0x27	; 39
    6d52:	12 e0       	ldi	r17, 0x02	; 2
    6d54:	0e 94 28 2f 	call	0x5e50	; 0x5e50 <TFT_string>
  TFT_string(1,37,White,  Black," KEY1        KEY3    KEY4");
    6d58:	81 e0       	ldi	r24, 0x01	; 1
    6d5a:	65 e2       	ldi	r22, 0x25	; 37
    6d5c:	4f ef       	ldi	r20, 0xFF	; 255
    6d5e:	5f ef       	ldi	r21, 0xFF	; 255
    6d60:	20 e0       	ldi	r18, 0x00	; 0
    6d62:	30 e0       	ldi	r19, 0x00	; 0
    6d64:	03 e4       	ldi	r16, 0x43	; 67
    6d66:	12 e0       	ldi	r17, 0x02	; 2
    6d68:	0e 94 28 2f 	call	0x5e50	; 0x5e50 <TFT_string>
  TFT_string(7,37,Magenta,Black,"");
    6d6c:	87 e0       	ldi	r24, 0x07	; 7
    6d6e:	65 e2       	ldi	r22, 0x25	; 37
    6d70:	4f e1       	ldi	r20, 0x1F	; 31
    6d72:	58 ef       	ldi	r21, 0xF8	; 248
    6d74:	20 e0       	ldi	r18, 0x00	; 0
    6d76:	30 e0       	ldi	r19, 0x00	; 0
    6d78:	0d e5       	ldi	r16, 0x5D	; 93
    6d7a:	12 e0       	ldi	r17, 0x02	; 2
    6d7c:	0e 94 28 2f 	call	0x5e50	; 0x5e50 <TFT_string>

  Line(154,296,154,311, Magenta);		// display up arrow(decrement test number)
    6d80:	8a e9       	ldi	r24, 0x9A	; 154
    6d82:	90 e0       	ldi	r25, 0x00	; 0
    6d84:	68 e2       	ldi	r22, 0x28	; 40
    6d86:	71 e0       	ldi	r23, 0x01	; 1
    6d88:	4a e9       	ldi	r20, 0x9A	; 154
    6d8a:	50 e0       	ldi	r21, 0x00	; 0
    6d8c:	27 e3       	ldi	r18, 0x37	; 55
    6d8e:	31 e0       	ldi	r19, 0x01	; 1
    6d90:	0f e1       	ldi	r16, 0x1F	; 31
    6d92:	18 ef       	ldi	r17, 0xF8	; 248
    6d94:	0e 94 e0 31 	call	0x63c0	; 0x63c0 <Line>
  Line(155,296,155,311, Magenta);
    6d98:	8b e9       	ldi	r24, 0x9B	; 155
    6d9a:	90 e0       	ldi	r25, 0x00	; 0
    6d9c:	68 e2       	ldi	r22, 0x28	; 40
    6d9e:	71 e0       	ldi	r23, 0x01	; 1
    6da0:	4b e9       	ldi	r20, 0x9B	; 155
    6da2:	50 e0       	ldi	r21, 0x00	; 0
    6da4:	27 e3       	ldi	r18, 0x37	; 55
    6da6:	31 e0       	ldi	r19, 0x01	; 1
    6da8:	0e 94 e0 31 	call	0x63c0	; 0x63c0 <Line>
  Line(149,301,154,296, Magenta);
    6dac:	85 e9       	ldi	r24, 0x95	; 149
    6dae:	90 e0       	ldi	r25, 0x00	; 0
    6db0:	6d e2       	ldi	r22, 0x2D	; 45
    6db2:	71 e0       	ldi	r23, 0x01	; 1
    6db4:	4a e9       	ldi	r20, 0x9A	; 154
    6db6:	50 e0       	ldi	r21, 0x00	; 0
    6db8:	28 e2       	ldi	r18, 0x28	; 40
    6dba:	31 e0       	ldi	r19, 0x01	; 1
    6dbc:	0e 94 e0 31 	call	0x63c0	; 0x63c0 <Line>
  Line(149,302,154,297, Magenta);
    6dc0:	85 e9       	ldi	r24, 0x95	; 149
    6dc2:	90 e0       	ldi	r25, 0x00	; 0
    6dc4:	6e e2       	ldi	r22, 0x2E	; 46
    6dc6:	71 e0       	ldi	r23, 0x01	; 1
    6dc8:	4a e9       	ldi	r20, 0x9A	; 154
    6dca:	50 e0       	ldi	r21, 0x00	; 0
    6dcc:	29 e2       	ldi	r18, 0x29	; 41
    6dce:	31 e0       	ldi	r19, 0x01	; 1
    6dd0:	0e 94 e0 31 	call	0x63c0	; 0x63c0 <Line>
  Line(160,301,155,296, Magenta);
    6dd4:	80 ea       	ldi	r24, 0xA0	; 160
    6dd6:	90 e0       	ldi	r25, 0x00	; 0
    6dd8:	6d e2       	ldi	r22, 0x2D	; 45
    6dda:	71 e0       	ldi	r23, 0x01	; 1
    6ddc:	4b e9       	ldi	r20, 0x9B	; 155
    6dde:	50 e0       	ldi	r21, 0x00	; 0
    6de0:	28 e2       	ldi	r18, 0x28	; 40
    6de2:	31 e0       	ldi	r19, 0x01	; 1
    6de4:	0e 94 e0 31 	call	0x63c0	; 0x63c0 <Line>
  Line(160,302,155,297, Magenta);
    6de8:	80 ea       	ldi	r24, 0xA0	; 160
    6dea:	90 e0       	ldi	r25, 0x00	; 0
    6dec:	6e e2       	ldi	r22, 0x2E	; 46
    6dee:	71 e0       	ldi	r23, 0x01	; 1
    6df0:	4b e9       	ldi	r20, 0x9B	; 155
    6df2:	50 e0       	ldi	r21, 0x00	; 0
    6df4:	29 e2       	ldi	r18, 0x29	; 41
    6df6:	31 e0       	ldi	r19, 0x01	; 1
    6df8:	0e 94 e0 31 	call	0x63c0	; 0x63c0 <Line>

  Line(218,296,218,311, Magenta);		// display down arrow(increment test number)
    6dfc:	8a ed       	ldi	r24, 0xDA	; 218
    6dfe:	90 e0       	ldi	r25, 0x00	; 0
    6e00:	68 e2       	ldi	r22, 0x28	; 40
    6e02:	71 e0       	ldi	r23, 0x01	; 1
    6e04:	4a ed       	ldi	r20, 0xDA	; 218
    6e06:	50 e0       	ldi	r21, 0x00	; 0
    6e08:	27 e3       	ldi	r18, 0x37	; 55
    6e0a:	31 e0       	ldi	r19, 0x01	; 1
    6e0c:	0e 94 e0 31 	call	0x63c0	; 0x63c0 <Line>
  Line(219,296,219,311, Magenta);
    6e10:	8b ed       	ldi	r24, 0xDB	; 219
    6e12:	90 e0       	ldi	r25, 0x00	; 0
    6e14:	68 e2       	ldi	r22, 0x28	; 40
    6e16:	71 e0       	ldi	r23, 0x01	; 1
    6e18:	4b ed       	ldi	r20, 0xDB	; 219
    6e1a:	50 e0       	ldi	r21, 0x00	; 0
    6e1c:	27 e3       	ldi	r18, 0x37	; 55
    6e1e:	31 e0       	ldi	r19, 0x01	; 1
    6e20:	0e 94 e0 31 	call	0x63c0	; 0x63c0 <Line>
  Line(213,306,218,311, Magenta);
    6e24:	85 ed       	ldi	r24, 0xD5	; 213
    6e26:	90 e0       	ldi	r25, 0x00	; 0
    6e28:	62 e3       	ldi	r22, 0x32	; 50
    6e2a:	71 e0       	ldi	r23, 0x01	; 1
    6e2c:	4a ed       	ldi	r20, 0xDA	; 218
    6e2e:	50 e0       	ldi	r21, 0x00	; 0
    6e30:	27 e3       	ldi	r18, 0x37	; 55
    6e32:	31 e0       	ldi	r19, 0x01	; 1
    6e34:	0e 94 e0 31 	call	0x63c0	; 0x63c0 <Line>
  Line(213,305,218,310, Magenta);
    6e38:	85 ed       	ldi	r24, 0xD5	; 213
    6e3a:	90 e0       	ldi	r25, 0x00	; 0
    6e3c:	61 e3       	ldi	r22, 0x31	; 49
    6e3e:	71 e0       	ldi	r23, 0x01	; 1
    6e40:	4a ed       	ldi	r20, 0xDA	; 218
    6e42:	50 e0       	ldi	r21, 0x00	; 0
    6e44:	26 e3       	ldi	r18, 0x36	; 54
    6e46:	31 e0       	ldi	r19, 0x01	; 1
    6e48:	0e 94 e0 31 	call	0x63c0	; 0x63c0 <Line>
  Line(224,306,219,311, Magenta);
    6e4c:	80 ee       	ldi	r24, 0xE0	; 224
    6e4e:	90 e0       	ldi	r25, 0x00	; 0
    6e50:	62 e3       	ldi	r22, 0x32	; 50
    6e52:	71 e0       	ldi	r23, 0x01	; 1
    6e54:	4b ed       	ldi	r20, 0xDB	; 219
    6e56:	50 e0       	ldi	r21, 0x00	; 0
    6e58:	27 e3       	ldi	r18, 0x37	; 55
    6e5a:	31 e0       	ldi	r19, 0x01	; 1
    6e5c:	0e 94 e0 31 	call	0x63c0	; 0x63c0 <Line>
  Line(224,305,219,310, Magenta);
    6e60:	80 ee       	ldi	r24, 0xE0	; 224
    6e62:	90 e0       	ldi	r25, 0x00	; 0
    6e64:	61 e3       	ldi	r22, 0x31	; 49
    6e66:	71 e0       	ldi	r23, 0x01	; 1
    6e68:	4b ed       	ldi	r20, 0xDB	; 219
    6e6a:	50 e0       	ldi	r21, 0x00	; 0
    6e6c:	26 e3       	ldi	r18, 0x36	; 54
    6e6e:	31 e0       	ldi	r19, 0x01	; 1
    6e70:	0e 94 e0 31 	call	0x63c0	; 0x63c0 <Line>
}
    6e74:	1f 91       	pop	r17
    6e76:	0f 91       	pop	r16
    6e78:	08 95       	ret

00006e7a <Display_test>:

void Display_test(U08 current)			/* display test number */
{
    6e7a:	cf 92       	push	r12
    6e7c:	df 92       	push	r13
    6e7e:	ef 92       	push	r14
    6e80:	ff 92       	push	r15
    6e82:	0f 93       	push	r16
    6e84:	1f 93       	push	r17
    6e86:	c8 2e       	mov	r12, r24
  LCD_command(0xCA);				// text LCD
    6e88:	8a ec       	ldi	r24, 0xCA	; 202
    6e8a:	0e 94 83 25 	call	0x4b06	; 0x4b06 <LCD_command>
  LCD_unsigned_decimal(current, 1, 2);
    6e8e:	6c 2d       	mov	r22, r12
    6e90:	70 e0       	ldi	r23, 0x00	; 0
    6e92:	80 e0       	ldi	r24, 0x00	; 0
    6e94:	90 e0       	ldi	r25, 0x00	; 0
    6e96:	41 e0       	ldi	r20, 0x01	; 1
    6e98:	22 e0       	ldi	r18, 0x02	; 2
    6e9a:	0e 94 d2 25 	call	0x4ba4	; 0x4ba4 <LCD_unsigned_decimal>

  TFT_string( 1, 4,Cyan,   Black,"  ");		// TFT-LCD
    6e9e:	02 e6       	ldi	r16, 0x62	; 98
    6ea0:	e0 2e       	mov	r14, r16
    6ea2:	02 e0       	ldi	r16, 0x02	; 2
    6ea4:	f0 2e       	mov	r15, r16
    6ea6:	81 e0       	ldi	r24, 0x01	; 1
    6ea8:	64 e0       	ldi	r22, 0x04	; 4
    6eaa:	4f ef       	ldi	r20, 0xFF	; 255
    6eac:	57 e0       	ldi	r21, 0x07	; 7
    6eae:	20 e0       	ldi	r18, 0x00	; 0
    6eb0:	30 e0       	ldi	r19, 0x00	; 0
    6eb2:	87 01       	movw	r16, r14
    6eb4:	0e 94 28 2f 	call	0x5e50	; 0x5e50 <TFT_string>
  TFT_string( 1, 7,Green,  Black,"  ");
    6eb8:	81 e0       	ldi	r24, 0x01	; 1
    6eba:	67 e0       	ldi	r22, 0x07	; 7
    6ebc:	40 ee       	ldi	r20, 0xE0	; 224
    6ebe:	57 e0       	ldi	r21, 0x07	; 7
    6ec0:	20 e0       	ldi	r18, 0x00	; 0
    6ec2:	30 e0       	ldi	r19, 0x00	; 0
    6ec4:	0e 94 28 2f 	call	0x5e50	; 0x5e50 <TFT_string>
  TFT_string( 1,10,Cyan,   Black,"  ");
    6ec8:	81 e0       	ldi	r24, 0x01	; 1
    6eca:	6a e0       	ldi	r22, 0x0A	; 10
    6ecc:	4f ef       	ldi	r20, 0xFF	; 255
    6ece:	57 e0       	ldi	r21, 0x07	; 7
    6ed0:	20 e0       	ldi	r18, 0x00	; 0
    6ed2:	30 e0       	ldi	r19, 0x00	; 0
    6ed4:	0e 94 28 2f 	call	0x5e50	; 0x5e50 <TFT_string>
  TFT_string( 1,13,Green,  Black,"  ");
    6ed8:	81 e0       	ldi	r24, 0x01	; 1
    6eda:	6d e0       	ldi	r22, 0x0D	; 13
    6edc:	40 ee       	ldi	r20, 0xE0	; 224
    6ede:	57 e0       	ldi	r21, 0x07	; 7
    6ee0:	20 e0       	ldi	r18, 0x00	; 0
    6ee2:	30 e0       	ldi	r19, 0x00	; 0
    6ee4:	0e 94 28 2f 	call	0x5e50	; 0x5e50 <TFT_string>
  TFT_string( 1,16,Cyan,   Black,"  ");
    6ee8:	81 e0       	ldi	r24, 0x01	; 1
    6eea:	60 e1       	ldi	r22, 0x10	; 16
    6eec:	4f ef       	ldi	r20, 0xFF	; 255
    6eee:	57 e0       	ldi	r21, 0x07	; 7
    6ef0:	20 e0       	ldi	r18, 0x00	; 0
    6ef2:	30 e0       	ldi	r19, 0x00	; 0
    6ef4:	0e 94 28 2f 	call	0x5e50	; 0x5e50 <TFT_string>
  TFT_string( 1,19,Green,  Black,"  ");
    6ef8:	81 e0       	ldi	r24, 0x01	; 1
    6efa:	63 e1       	ldi	r22, 0x13	; 19
    6efc:	40 ee       	ldi	r20, 0xE0	; 224
    6efe:	57 e0       	ldi	r21, 0x07	; 7
    6f00:	20 e0       	ldi	r18, 0x00	; 0
    6f02:	30 e0       	ldi	r19, 0x00	; 0
    6f04:	0e 94 28 2f 	call	0x5e50	; 0x5e50 <TFT_string>
  TFT_string( 1,22,Cyan,   Black,"  ");
    6f08:	81 e0       	ldi	r24, 0x01	; 1
    6f0a:	66 e1       	ldi	r22, 0x16	; 22
    6f0c:	4f ef       	ldi	r20, 0xFF	; 255
    6f0e:	57 e0       	ldi	r21, 0x07	; 7
    6f10:	20 e0       	ldi	r18, 0x00	; 0
    6f12:	30 e0       	ldi	r19, 0x00	; 0
    6f14:	0e 94 28 2f 	call	0x5e50	; 0x5e50 <TFT_string>
  TFT_string( 1,25,Green,  Black,"  ");
    6f18:	81 e0       	ldi	r24, 0x01	; 1
    6f1a:	69 e1       	ldi	r22, 0x19	; 25
    6f1c:	40 ee       	ldi	r20, 0xE0	; 224
    6f1e:	57 e0       	ldi	r21, 0x07	; 7
    6f20:	20 e0       	ldi	r18, 0x00	; 0
    6f22:	30 e0       	ldi	r19, 0x00	; 0
    6f24:	0e 94 28 2f 	call	0x5e50	; 0x5e50 <TFT_string>
  TFT_string( 1,28,Cyan,   Black,"  ");
    6f28:	81 e0       	ldi	r24, 0x01	; 1
    6f2a:	6c e1       	ldi	r22, 0x1C	; 28
    6f2c:	4f ef       	ldi	r20, 0xFF	; 255
    6f2e:	57 e0       	ldi	r21, 0x07	; 7
    6f30:	20 e0       	ldi	r18, 0x00	; 0
    6f32:	30 e0       	ldi	r19, 0x00	; 0
    6f34:	0e 94 28 2f 	call	0x5e50	; 0x5e50 <TFT_string>
  TFT_string( 1,31,Green,  Black,"  ");
    6f38:	81 e0       	ldi	r24, 0x01	; 1
    6f3a:	6f e1       	ldi	r22, 0x1F	; 31
    6f3c:	40 ee       	ldi	r20, 0xE0	; 224
    6f3e:	57 e0       	ldi	r21, 0x07	; 7
    6f40:	20 e0       	ldi	r18, 0x00	; 0
    6f42:	30 e0       	ldi	r19, 0x00	; 0
    6f44:	0e 94 28 2f 	call	0x5e50	; 0x5e50 <TFT_string>
  TFT_string( 1,34,Green,  Black,"  ");
    6f48:	81 e0       	ldi	r24, 0x01	; 1
    6f4a:	62 e2       	ldi	r22, 0x22	; 34
    6f4c:	40 ee       	ldi	r20, 0xE0	; 224
    6f4e:	57 e0       	ldi	r21, 0x07	; 7
    6f50:	20 e0       	ldi	r18, 0x00	; 0
    6f52:	30 e0       	ldi	r19, 0x00	; 0
    6f54:	0e 94 28 2f 	call	0x5e50	; 0x5e50 <TFT_string>
  TFT_string( 1,current*3 + 1, Magenta,Black,">>");
    6f58:	83 e0       	ldi	r24, 0x03	; 3
    6f5a:	c8 9e       	mul	r12, r24
    6f5c:	60 01       	movw	r12, r0
    6f5e:	11 24       	eor	r1, r1
    6f60:	c3 94       	inc	r12
    6f62:	81 e0       	ldi	r24, 0x01	; 1
    6f64:	6c 2d       	mov	r22, r12
    6f66:	4f e1       	ldi	r20, 0x1F	; 31
    6f68:	58 ef       	ldi	r21, 0xF8	; 248
    6f6a:	20 e0       	ldi	r18, 0x00	; 0
    6f6c:	30 e0       	ldi	r19, 0x00	; 0
    6f6e:	05 e6       	ldi	r16, 0x65	; 101
    6f70:	12 e0       	ldi	r17, 0x02	; 2
    6f72:	0e 94 28 2f 	call	0x5e50	; 0x5e50 <TFT_string>
}
    6f76:	1f 91       	pop	r17
    6f78:	0f 91       	pop	r16
    6f7a:	ff 90       	pop	r15
    6f7c:	ef 90       	pop	r14
    6f7e:	df 90       	pop	r13
    6f80:	cf 90       	pop	r12
    6f82:	08 95       	ret

00006f84 <TFT_8color_horizontal>:

unsigned int Color[8] =				// 8-color data
   { White, Black, Red, Green, Blue, Yellow, Cyan, Magenta };

void TFT_8color_horizontal(void)		/* display 8-color horizontal */
{
    6f84:	ef 92       	push	r14
    6f86:	ff 92       	push	r15
    6f88:	0f 93       	push	r16
    6f8a:	1f 93       	push	r17
    6f8c:	cf 93       	push	r28
    6f8e:	df 93       	push	r29
  unsigned int i, j, k;

  TFT_portrait();
    6f90:	0e 94 a0 2a 	call	0x5540	; 0x5540 <TFT_portrait>
  TFT_GRAM_address(0,0);
    6f94:	80 e0       	ldi	r24, 0x00	; 0
    6f96:	90 e0       	ldi	r25, 0x00	; 0
    6f98:	60 e0       	ldi	r22, 0x00	; 0
    6f9a:	70 e0       	ldi	r23, 0x00	; 0
    6f9c:	0e 94 6a 28 	call	0x50d4	; 0x50d4 <TFT_GRAM_address>
    6fa0:	89 e2       	ldi	r24, 0x29	; 41
    6fa2:	e8 2e       	mov	r14, r24
    6fa4:	8b e0       	ldi	r24, 0x0B	; 11
    6fa6:	f8 2e       	mov	r15, r24
    6fa8:	1a c0       	rjmp	.+52     	; 0x6fde <TFT_8color_horizontal+0x5a>

  for(i=0; i<8; i++)
    for(j=0; j<40; j++)
      for(k=0; k<240; k++)
        TFT_data(Color[i]);
    6faa:	f7 01       	movw	r30, r14
    6fac:	80 81       	ld	r24, Z
    6fae:	91 81       	ldd	r25, Z+1	; 0x01
    6fb0:	0e 94 52 28 	call	0x50a4	; 0x50a4 <TFT_data>
  TFT_portrait();
  TFT_GRAM_address(0,0);

  for(i=0; i<8; i++)
    for(j=0; j<40; j++)
      for(k=0; k<240; k++)
    6fb4:	21 96       	adiw	r28, 0x01	; 1
    6fb6:	c0 3f       	cpi	r28, 0xF0	; 240
    6fb8:	d1 05       	cpc	r29, r1
    6fba:	b9 f7       	brne	.-18     	; 0x6faa <TFT_8color_horizontal+0x26>

  TFT_portrait();
  TFT_GRAM_address(0,0);

  for(i=0; i<8; i++)
    for(j=0; j<40; j++)
    6fbc:	0f 5f       	subi	r16, 0xFF	; 255
    6fbe:	1f 4f       	sbci	r17, 0xFF	; 255
    6fc0:	08 32       	cpi	r16, 0x28	; 40
    6fc2:	11 05       	cpc	r17, r1
    6fc4:	19 f0       	breq	.+6      	; 0x6fcc <TFT_8color_horizontal+0x48>
    6fc6:	c0 e0       	ldi	r28, 0x00	; 0
    6fc8:	d0 e0       	ldi	r29, 0x00	; 0
    6fca:	ef cf       	rjmp	.-34     	; 0x6faa <TFT_8color_horizontal+0x26>
    6fcc:	82 e0       	ldi	r24, 0x02	; 2
    6fce:	90 e0       	ldi	r25, 0x00	; 0
    6fd0:	e8 0e       	add	r14, r24
    6fd2:	f9 1e       	adc	r15, r25
  unsigned int i, j, k;

  TFT_portrait();
  TFT_GRAM_address(0,0);

  for(i=0; i<8; i++)
    6fd4:	99 e3       	ldi	r25, 0x39	; 57
    6fd6:	e9 16       	cp	r14, r25
    6fd8:	9b e0       	ldi	r25, 0x0B	; 11
    6fda:	f9 06       	cpc	r15, r25
    6fdc:	19 f0       	breq	.+6      	; 0x6fe4 <TFT_8color_horizontal+0x60>
    6fde:	00 e0       	ldi	r16, 0x00	; 0
    6fe0:	10 e0       	ldi	r17, 0x00	; 0
    6fe2:	f1 cf       	rjmp	.-30     	; 0x6fc6 <TFT_8color_horizontal+0x42>
    for(j=0; j<40; j++)
      for(k=0; k<240; k++)
        TFT_data(Color[i]);
}
    6fe4:	df 91       	pop	r29
    6fe6:	cf 91       	pop	r28
    6fe8:	1f 91       	pop	r17
    6fea:	0f 91       	pop	r16
    6fec:	ff 90       	pop	r15
    6fee:	ef 90       	pop	r14
    6ff0:	08 95       	ret

00006ff2 <TFT_8color_vertical>:

void TFT_8color_vertical(void)			/* display 8-color vertical */
{
    6ff2:	ef 92       	push	r14
    6ff4:	ff 92       	push	r15
    6ff6:	0f 93       	push	r16
    6ff8:	1f 93       	push	r17
    6ffa:	cf 93       	push	r28
    6ffc:	df 93       	push	r29
  unsigned int i, j, k;

  TFT_landscape();
    6ffe:	0e 94 d7 2a 	call	0x55ae	; 0x55ae <TFT_landscape>
  TFT_GRAM_address(0,0);
    7002:	80 e0       	ldi	r24, 0x00	; 0
    7004:	90 e0       	ldi	r25, 0x00	; 0
    7006:	60 e0       	ldi	r22, 0x00	; 0
    7008:	70 e0       	ldi	r23, 0x00	; 0
    700a:	0e 94 6a 28 	call	0x50d4	; 0x50d4 <TFT_GRAM_address>
    700e:	99 e2       	ldi	r25, 0x29	; 41
    7010:	e9 2e       	mov	r14, r25
    7012:	9b e0       	ldi	r25, 0x0B	; 11
    7014:	f9 2e       	mov	r15, r25
    7016:	1b c0       	rjmp	.+54     	; 0x704e <TFT_8color_vertical+0x5c>

  for(i = 0; i < 8;i++)
    for(j = 0; j < 30; j++)
      for(k = 0; k < 320; k++)
        TFT_data(Color[i]);
    7018:	f7 01       	movw	r30, r14
    701a:	80 81       	ld	r24, Z
    701c:	91 81       	ldd	r25, Z+1	; 0x01
    701e:	0e 94 52 28 	call	0x50a4	; 0x50a4 <TFT_data>
  TFT_landscape();
  TFT_GRAM_address(0,0);

  for(i = 0; i < 8;i++)
    for(j = 0; j < 30; j++)
      for(k = 0; k < 320; k++)
    7022:	21 96       	adiw	r28, 0x01	; 1
    7024:	f1 e0       	ldi	r31, 0x01	; 1
    7026:	c0 34       	cpi	r28, 0x40	; 64
    7028:	df 07       	cpc	r29, r31
    702a:	b1 f7       	brne	.-20     	; 0x7018 <TFT_8color_vertical+0x26>

  TFT_landscape();
  TFT_GRAM_address(0,0);

  for(i = 0; i < 8;i++)
    for(j = 0; j < 30; j++)
    702c:	0f 5f       	subi	r16, 0xFF	; 255
    702e:	1f 4f       	sbci	r17, 0xFF	; 255
    7030:	0e 31       	cpi	r16, 0x1E	; 30
    7032:	11 05       	cpc	r17, r1
    7034:	19 f0       	breq	.+6      	; 0x703c <TFT_8color_vertical+0x4a>
    7036:	c0 e0       	ldi	r28, 0x00	; 0
    7038:	d0 e0       	ldi	r29, 0x00	; 0
    703a:	ee cf       	rjmp	.-36     	; 0x7018 <TFT_8color_vertical+0x26>
    703c:	82 e0       	ldi	r24, 0x02	; 2
    703e:	90 e0       	ldi	r25, 0x00	; 0
    7040:	e8 0e       	add	r14, r24
    7042:	f9 1e       	adc	r15, r25
  unsigned int i, j, k;

  TFT_landscape();
  TFT_GRAM_address(0,0);

  for(i = 0; i < 8;i++)
    7044:	99 e3       	ldi	r25, 0x39	; 57
    7046:	e9 16       	cp	r14, r25
    7048:	9b e0       	ldi	r25, 0x0B	; 11
    704a:	f9 06       	cpc	r15, r25
    704c:	19 f0       	breq	.+6      	; 0x7054 <TFT_8color_vertical+0x62>
    704e:	00 e0       	ldi	r16, 0x00	; 0
    7050:	10 e0       	ldi	r17, 0x00	; 0
    7052:	f1 cf       	rjmp	.-30     	; 0x7036 <TFT_8color_vertical+0x44>
    for(j = 0; j < 30; j++)
      for(k = 0; k < 320; k++)
        TFT_data(Color[i]);

  TFT_portrait();
    7054:	0e 94 a0 2a 	call	0x5540	; 0x5540 <TFT_portrait>
}
    7058:	df 91       	pop	r29
    705a:	cf 91       	pop	r28
    705c:	1f 91       	pop	r17
    705e:	0f 91       	pop	r16
    7060:	ff 90       	pop	r15
    7062:	ef 90       	pop	r14
    7064:	08 95       	ret

00007066 <TFT_color_gray>:

void TFT_color_gray(void)			/* display 4-color gray */
{
    7066:	ef 92       	push	r14
    7068:	ff 92       	push	r15
    706a:	0f 93       	push	r16
    706c:	1f 93       	push	r17
    706e:	cf 93       	push	r28
    7070:	df 93       	push	r29
  unsigned int i, j, k, color;

  TFT_landscape();
    7072:	0e 94 d7 2a 	call	0x55ae	; 0x55ae <TFT_landscape>
  TFT_GRAM_address(0,0);
    7076:	80 e0       	ldi	r24, 0x00	; 0
    7078:	90 e0       	ldi	r25, 0x00	; 0
    707a:	60 e0       	ldi	r22, 0x00	; 0
    707c:	70 e0       	ldi	r23, 0x00	; 0
    707e:	0e 94 6a 28 	call	0x50d4	; 0x50d4 <TFT_GRAM_address>
    7082:	00 e0       	ldi	r16, 0x00	; 0
    7084:	10 e0       	ldi	r17, 0x00	; 0

  for(j=0; j<30; j++)				// white gray
    { for(k=0; k<320; k++)
        { i = 0x1F - k/13;
    7086:	5f e1       	ldi	r21, 0x1F	; 31
    7088:	e5 2e       	mov	r14, r21
    708a:	f1 2c       	mov	r15, r1
    708c:	2a c0       	rjmp	.+84     	; 0x70e2 <TFT_color_gray+0x7c>
    708e:	ce 01       	movw	r24, r28
    7090:	6d e0       	ldi	r22, 0x0D	; 13
    7092:	70 e0       	ldi	r23, 0x00	; 0
    7094:	0e 94 13 61 	call	0xc226	; 0xc226 <__udivmodhi4>
    7098:	97 01       	movw	r18, r14
    709a:	26 1b       	sub	r18, r22
    709c:	37 0b       	sbc	r19, r23
	  color = (i << 11) + (i << 6) + i;
          TFT_data(color);
    709e:	c9 01       	movw	r24, r18
    70a0:	98 2f       	mov	r25, r24
    70a2:	88 27       	eor	r24, r24
    70a4:	99 0f       	add	r25, r25
    70a6:	99 0f       	add	r25, r25
    70a8:	99 0f       	add	r25, r25
    70aa:	a9 01       	movw	r20, r18
    70ac:	b6 e0       	ldi	r27, 0x06	; 6
    70ae:	44 0f       	add	r20, r20
    70b0:	55 1f       	adc	r21, r21
    70b2:	ba 95       	dec	r27
    70b4:	e1 f7       	brne	.-8      	; 0x70ae <TFT_color_gray+0x48>
    70b6:	84 0f       	add	r24, r20
    70b8:	95 1f       	adc	r25, r21
    70ba:	82 0f       	add	r24, r18
    70bc:	93 1f       	adc	r25, r19
    70be:	0e 94 52 28 	call	0x50a4	; 0x50a4 <TFT_data>

  TFT_landscape();
  TFT_GRAM_address(0,0);

  for(j=0; j<30; j++)				// white gray
    { for(k=0; k<320; k++)
    70c2:	21 96       	adiw	r28, 0x01	; 1
    70c4:	81 e0       	ldi	r24, 0x01	; 1
    70c6:	c0 34       	cpi	r28, 0x40	; 64
    70c8:	d8 07       	cpc	r29, r24
    70ca:	09 f7       	brne	.-62     	; 0x708e <TFT_color_gray+0x28>
  unsigned int i, j, k, color;

  TFT_landscape();
  TFT_GRAM_address(0,0);

  for(j=0; j<30; j++)				// white gray
    70cc:	0f 5f       	subi	r16, 0xFF	; 255
    70ce:	1f 4f       	sbci	r17, 0xFF	; 255
    70d0:	0e 31       	cpi	r16, 0x1E	; 30
    70d2:	11 05       	cpc	r17, r1
    70d4:	31 f4       	brne	.+12     	; 0x70e2 <TFT_color_gray+0x7c>
    70d6:	00 e0       	ldi	r16, 0x00	; 0
    70d8:	10 e0       	ldi	r17, 0x00	; 0
    }

  for(j=0; j<30; j++)				// red gray
    { for(k=0; k<320; k++)
        { color = (0x1F - k/13) << 11;
          TFT_data(color);
    70da:	af e1       	ldi	r26, 0x1F	; 31
    70dc:	ea 2e       	mov	r14, r26
    70de:	f1 2c       	mov	r15, r1
    70e0:	22 c0       	rjmp	.+68     	; 0x7126 <TFT_color_gray+0xc0>
  unsigned int i, j, k, color;

  TFT_landscape();
  TFT_GRAM_address(0,0);

  for(j=0; j<30; j++)				// white gray
    70e2:	c0 e0       	ldi	r28, 0x00	; 0
    70e4:	d0 e0       	ldi	r29, 0x00	; 0
    70e6:	d3 cf       	rjmp	.-90     	; 0x708e <TFT_color_gray+0x28>
    }

  for(j=0; j<30; j++)				// red gray
    { for(k=0; k<320; k++)
        { color = (0x1F - k/13) << 11;
          TFT_data(color);
    70e8:	ce 01       	movw	r24, r28
    70ea:	6d e0       	ldi	r22, 0x0D	; 13
    70ec:	70 e0       	ldi	r23, 0x00	; 0
    70ee:	0e 94 13 61 	call	0xc226	; 0xc226 <__udivmodhi4>
    70f2:	97 01       	movw	r18, r14
    70f4:	26 1b       	sub	r18, r22
    70f6:	37 0b       	sbc	r19, r23
    70f8:	80 e0       	ldi	r24, 0x00	; 0
    70fa:	92 2f       	mov	r25, r18
    70fc:	99 0f       	add	r25, r25
    70fe:	99 0f       	add	r25, r25
    7100:	99 0f       	add	r25, r25
    7102:	0e 94 52 28 	call	0x50a4	; 0x50a4 <TFT_data>
          TFT_data(color);
        }
    }

  for(j=0; j<30; j++)				// red gray
    { for(k=0; k<320; k++)
    7106:	21 96       	adiw	r28, 0x01	; 1
    7108:	81 e0       	ldi	r24, 0x01	; 1
    710a:	c0 34       	cpi	r28, 0x40	; 64
    710c:	d8 07       	cpc	r29, r24
    710e:	61 f7       	brne	.-40     	; 0x70e8 <TFT_color_gray+0x82>
	  color = (i << 11) + (i << 6) + i;
          TFT_data(color);
        }
    }

  for(j=0; j<30; j++)				// red gray
    7110:	0f 5f       	subi	r16, 0xFF	; 255
    7112:	1f 4f       	sbci	r17, 0xFF	; 255
    7114:	0e 31       	cpi	r16, 0x1E	; 30
    7116:	11 05       	cpc	r17, r1
    7118:	31 f4       	brne	.+12     	; 0x7126 <TFT_color_gray+0xc0>
    711a:	00 e0       	ldi	r16, 0x00	; 0
    711c:	10 e0       	ldi	r17, 0x00	; 0
    }

  for(j=0; j<30; j++)				// green gray
    { for(k=0; k<320; k++)
        { color = (0x1F - k/13) << 6;
          TFT_data(color);
    711e:	ff e1       	ldi	r31, 0x1F	; 31
    7120:	ef 2e       	mov	r14, r31
    7122:	f1 2c       	mov	r15, r1
    7124:	22 c0       	rjmp	.+68     	; 0x716a <TFT_color_gray+0x104>
	  color = (i << 11) + (i << 6) + i;
          TFT_data(color);
        }
    }

  for(j=0; j<30; j++)				// red gray
    7126:	c0 e0       	ldi	r28, 0x00	; 0
    7128:	d0 e0       	ldi	r29, 0x00	; 0
    712a:	de cf       	rjmp	.-68     	; 0x70e8 <TFT_color_gray+0x82>
    }

  for(j=0; j<30; j++)				// green gray
    { for(k=0; k<320; k++)
        { color = (0x1F - k/13) << 6;
          TFT_data(color);
    712c:	ce 01       	movw	r24, r28
    712e:	6d e0       	ldi	r22, 0x0D	; 13
    7130:	70 e0       	ldi	r23, 0x00	; 0
    7132:	0e 94 13 61 	call	0xc226	; 0xc226 <__udivmodhi4>
    7136:	c7 01       	movw	r24, r14
    7138:	86 1b       	sub	r24, r22
    713a:	97 0b       	sbc	r25, r23
    713c:	e6 e0       	ldi	r30, 0x06	; 6
    713e:	88 0f       	add	r24, r24
    7140:	99 1f       	adc	r25, r25
    7142:	ea 95       	dec	r30
    7144:	e1 f7       	brne	.-8      	; 0x713e <TFT_color_gray+0xd8>
    7146:	0e 94 52 28 	call	0x50a4	; 0x50a4 <TFT_data>
          TFT_data(color);
        }
    }

  for(j=0; j<30; j++)				// green gray
    { for(k=0; k<320; k++)
    714a:	21 96       	adiw	r28, 0x01	; 1
    714c:	81 e0       	ldi	r24, 0x01	; 1
    714e:	c0 34       	cpi	r28, 0x40	; 64
    7150:	d8 07       	cpc	r29, r24
    7152:	61 f7       	brne	.-40     	; 0x712c <TFT_color_gray+0xc6>
        { color = (0x1F - k/13) << 11;
          TFT_data(color);
        }
    }

  for(j=0; j<30; j++)				// green gray
    7154:	0f 5f       	subi	r16, 0xFF	; 255
    7156:	1f 4f       	sbci	r17, 0xFF	; 255
    7158:	0e 31       	cpi	r16, 0x1E	; 30
    715a:	11 05       	cpc	r17, r1
    715c:	31 f4       	brne	.+12     	; 0x716a <TFT_color_gray+0x104>
    715e:	00 e0       	ldi	r16, 0x00	; 0
    7160:	10 e0       	ldi	r17, 0x00	; 0
    }

  for(j=0; j<30; j++)				// blue gray
    { for(k=0; k<320; k++)
        { color = 0x1F - k/13;
          TFT_data(color);
    7162:	7f e1       	ldi	r23, 0x1F	; 31
    7164:	e7 2e       	mov	r14, r23
    7166:	f1 2c       	mov	r15, r1
    7168:	1d c0       	rjmp	.+58     	; 0x71a4 <TFT_color_gray+0x13e>
        { color = (0x1F - k/13) << 11;
          TFT_data(color);
        }
    }

  for(j=0; j<30; j++)				// green gray
    716a:	c0 e0       	ldi	r28, 0x00	; 0
    716c:	d0 e0       	ldi	r29, 0x00	; 0
    716e:	de cf       	rjmp	.-68     	; 0x712c <TFT_color_gray+0xc6>
    }

  for(j=0; j<30; j++)				// blue gray
    { for(k=0; k<320; k++)
        { color = 0x1F - k/13;
          TFT_data(color);
    7170:	ce 01       	movw	r24, r28
    7172:	6d e0       	ldi	r22, 0x0D	; 13
    7174:	70 e0       	ldi	r23, 0x00	; 0
    7176:	0e 94 13 61 	call	0xc226	; 0xc226 <__udivmodhi4>
    717a:	c7 01       	movw	r24, r14
    717c:	86 1b       	sub	r24, r22
    717e:	97 0b       	sbc	r25, r23
    7180:	0e 94 52 28 	call	0x50a4	; 0x50a4 <TFT_data>
          TFT_data(color);
        }
    }

  for(j=0; j<30; j++)				// blue gray
    { for(k=0; k<320; k++)
    7184:	21 96       	adiw	r28, 0x01	; 1
    7186:	81 e0       	ldi	r24, 0x01	; 1
    7188:	c0 34       	cpi	r28, 0x40	; 64
    718a:	d8 07       	cpc	r29, r24
    718c:	89 f7       	brne	.-30     	; 0x7170 <TFT_color_gray+0x10a>
        { color = (0x1F - k/13) << 6;
          TFT_data(color);
        }
    }

  for(j=0; j<30; j++)				// blue gray
    718e:	0f 5f       	subi	r16, 0xFF	; 255
    7190:	1f 4f       	sbci	r17, 0xFF	; 255
    7192:	0e 31       	cpi	r16, 0x1E	; 30
    7194:	11 05       	cpc	r17, r1
    7196:	31 f4       	brne	.+12     	; 0x71a4 <TFT_color_gray+0x13e>
    7198:	00 e0       	ldi	r16, 0x00	; 0
    719a:	10 e0       	ldi	r17, 0x00	; 0
        }
    }

  for(j=0; j<30; j++)				// yellow gray
    { for(k=0; k<320; k++)
        { i = 0x1F - k/13;
    719c:	6f e1       	ldi	r22, 0x1F	; 31
    719e:	e6 2e       	mov	r14, r22
    71a0:	f1 2c       	mov	r15, r1
    71a2:	2a c0       	rjmp	.+84     	; 0x71f8 <TFT_color_gray+0x192>
        { color = (0x1F - k/13) << 6;
          TFT_data(color);
        }
    }

  for(j=0; j<30; j++)				// blue gray
    71a4:	c0 e0       	ldi	r28, 0x00	; 0
    71a6:	d0 e0       	ldi	r29, 0x00	; 0
    71a8:	e3 cf       	rjmp	.-58     	; 0x7170 <TFT_color_gray+0x10a>
        }
    }

  for(j=0; j<30; j++)				// yellow gray
    { for(k=0; k<320; k++)
        { i = 0x1F - k/13;
    71aa:	ce 01       	movw	r24, r28
    71ac:	6d e0       	ldi	r22, 0x0D	; 13
    71ae:	70 e0       	ldi	r23, 0x00	; 0
    71b0:	0e 94 13 61 	call	0xc226	; 0xc226 <__udivmodhi4>
    71b4:	c7 01       	movw	r24, r14
    71b6:	86 1b       	sub	r24, r22
    71b8:	97 0b       	sbc	r25, r23
	  color = (i << 11) + (i << 6);
          TFT_data(color);
    71ba:	9c 01       	movw	r18, r24
    71bc:	32 2f       	mov	r19, r18
    71be:	22 27       	eor	r18, r18
    71c0:	33 0f       	add	r19, r19
    71c2:	33 0f       	add	r19, r19
    71c4:	33 0f       	add	r19, r19
    71c6:	46 e0       	ldi	r20, 0x06	; 6
    71c8:	88 0f       	add	r24, r24
    71ca:	99 1f       	adc	r25, r25
    71cc:	4a 95       	dec	r20
    71ce:	e1 f7       	brne	.-8      	; 0x71c8 <TFT_color_gray+0x162>
    71d0:	82 0f       	add	r24, r18
    71d2:	93 1f       	adc	r25, r19
    71d4:	0e 94 52 28 	call	0x50a4	; 0x50a4 <TFT_data>
          TFT_data(color);
        }
    }

  for(j=0; j<30; j++)				// yellow gray
    { for(k=0; k<320; k++)
    71d8:	21 96       	adiw	r28, 0x01	; 1
    71da:	81 e0       	ldi	r24, 0x01	; 1
    71dc:	c0 34       	cpi	r28, 0x40	; 64
    71de:	d8 07       	cpc	r29, r24
    71e0:	21 f7       	brne	.-56     	; 0x71aa <TFT_color_gray+0x144>
        { color = 0x1F - k/13;
          TFT_data(color);
        }
    }

  for(j=0; j<30; j++)				// yellow gray
    71e2:	0f 5f       	subi	r16, 0xFF	; 255
    71e4:	1f 4f       	sbci	r17, 0xFF	; 255
    71e6:	0e 31       	cpi	r16, 0x1E	; 30
    71e8:	11 05       	cpc	r17, r1
    71ea:	31 f4       	brne	.+12     	; 0x71f8 <TFT_color_gray+0x192>
    71ec:	00 e0       	ldi	r16, 0x00	; 0
    71ee:	10 e0       	ldi	r17, 0x00	; 0
        }
    }

  for(j=0; j<30; j++)				// cyan gray
    { for(k=0; k<320; k++)
        { i = 0x1F - k/13;
    71f0:	8f e1       	ldi	r24, 0x1F	; 31
    71f2:	e8 2e       	mov	r14, r24
    71f4:	f1 2c       	mov	r15, r1
    71f6:	25 c0       	rjmp	.+74     	; 0x7242 <TFT_color_gray+0x1dc>
        { color = 0x1F - k/13;
          TFT_data(color);
        }
    }

  for(j=0; j<30; j++)				// yellow gray
    71f8:	c0 e0       	ldi	r28, 0x00	; 0
    71fa:	d0 e0       	ldi	r29, 0x00	; 0
    71fc:	d6 cf       	rjmp	.-84     	; 0x71aa <TFT_color_gray+0x144>
        }
    }

  for(j=0; j<30; j++)				// cyan gray
    { for(k=0; k<320; k++)
        { i = 0x1F - k/13;
    71fe:	ce 01       	movw	r24, r28
    7200:	6d e0       	ldi	r22, 0x0D	; 13
    7202:	70 e0       	ldi	r23, 0x00	; 0
    7204:	0e 94 13 61 	call	0xc226	; 0xc226 <__udivmodhi4>
    7208:	97 01       	movw	r18, r14
    720a:	26 1b       	sub	r18, r22
    720c:	37 0b       	sbc	r19, r23
	  color = (i << 6) + i;
          TFT_data(color);
    720e:	c9 01       	movw	r24, r18
    7210:	b6 e0       	ldi	r27, 0x06	; 6
    7212:	88 0f       	add	r24, r24
    7214:	99 1f       	adc	r25, r25
    7216:	ba 95       	dec	r27
    7218:	e1 f7       	brne	.-8      	; 0x7212 <TFT_color_gray+0x1ac>
    721a:	82 0f       	add	r24, r18
    721c:	93 1f       	adc	r25, r19
    721e:	0e 94 52 28 	call	0x50a4	; 0x50a4 <TFT_data>
          TFT_data(color);
        }
    }

  for(j=0; j<30; j++)				// cyan gray
    { for(k=0; k<320; k++)
    7222:	21 96       	adiw	r28, 0x01	; 1
    7224:	81 e0       	ldi	r24, 0x01	; 1
    7226:	c0 34       	cpi	r28, 0x40	; 64
    7228:	d8 07       	cpc	r29, r24
    722a:	49 f7       	brne	.-46     	; 0x71fe <TFT_color_gray+0x198>
	  color = (i << 11) + (i << 6);
          TFT_data(color);
        }
    }

  for(j=0; j<30; j++)				// cyan gray
    722c:	0f 5f       	subi	r16, 0xFF	; 255
    722e:	1f 4f       	sbci	r17, 0xFF	; 255
    7230:	0e 31       	cpi	r16, 0x1E	; 30
    7232:	11 05       	cpc	r17, r1
    7234:	31 f4       	brne	.+12     	; 0x7242 <TFT_color_gray+0x1dc>
    7236:	00 e0       	ldi	r16, 0x00	; 0
    7238:	10 e0       	ldi	r17, 0x00	; 0
        }
    }

  for(j=0; j<30; j++)				// magenta gray
    { for(k=0; k<320; k++)
        { i = 0x1F - k/13;
    723a:	af e1       	ldi	r26, 0x1F	; 31
    723c:	ea 2e       	mov	r14, r26
    723e:	f1 2c       	mov	r15, r1
    7240:	25 c0       	rjmp	.+74     	; 0x728c <TFT_color_gray+0x226>
	  color = (i << 11) + (i << 6);
          TFT_data(color);
        }
    }

  for(j=0; j<30; j++)				// cyan gray
    7242:	c0 e0       	ldi	r28, 0x00	; 0
    7244:	d0 e0       	ldi	r29, 0x00	; 0
    7246:	db cf       	rjmp	.-74     	; 0x71fe <TFT_color_gray+0x198>
        }
    }

  for(j=0; j<30; j++)				// magenta gray
    { for(k=0; k<320; k++)
        { i = 0x1F - k/13;
    7248:	ce 01       	movw	r24, r28
    724a:	6d e0       	ldi	r22, 0x0D	; 13
    724c:	70 e0       	ldi	r23, 0x00	; 0
    724e:	0e 94 13 61 	call	0xc226	; 0xc226 <__udivmodhi4>
    7252:	97 01       	movw	r18, r14
    7254:	26 1b       	sub	r18, r22
    7256:	37 0b       	sbc	r19, r23
	  color = (i << 11) + i;
          TFT_data(color);
    7258:	c9 01       	movw	r24, r18
    725a:	98 2f       	mov	r25, r24
    725c:	88 27       	eor	r24, r24
    725e:	99 0f       	add	r25, r25
    7260:	99 0f       	add	r25, r25
    7262:	99 0f       	add	r25, r25
    7264:	82 0f       	add	r24, r18
    7266:	93 1f       	adc	r25, r19
    7268:	0e 94 52 28 	call	0x50a4	; 0x50a4 <TFT_data>
          TFT_data(color);
        }
    }

  for(j=0; j<30; j++)				// magenta gray
    { for(k=0; k<320; k++)
    726c:	21 96       	adiw	r28, 0x01	; 1
    726e:	81 e0       	ldi	r24, 0x01	; 1
    7270:	c0 34       	cpi	r28, 0x40	; 64
    7272:	d8 07       	cpc	r29, r24
    7274:	49 f7       	brne	.-46     	; 0x7248 <TFT_color_gray+0x1e2>
	  color = (i << 6) + i;
          TFT_data(color);
        }
    }

  for(j=0; j<30; j++)				// magenta gray
    7276:	0f 5f       	subi	r16, 0xFF	; 255
    7278:	1f 4f       	sbci	r17, 0xFF	; 255
    727a:	0e 31       	cpi	r16, 0x1E	; 30
    727c:	11 05       	cpc	r17, r1
    727e:	31 f4       	brne	.+12     	; 0x728c <TFT_color_gray+0x226>
    7280:	00 e0       	ldi	r16, 0x00	; 0
    7282:	10 e0       	ldi	r17, 0x00	; 0
        }
    }

  for(j=0; j<30; j++)				// white gray
    { for(k=0; k<320; k++)
        { i = 0x1F - k/13;
    7284:	ef e1       	ldi	r30, 0x1F	; 31
    7286:	ee 2e       	mov	r14, r30
    7288:	f1 2c       	mov	r15, r1
    728a:	27 c0       	rjmp	.+78     	; 0x72da <TFT_color_gray+0x274>
	  color = (i << 6) + i;
          TFT_data(color);
        }
    }

  for(j=0; j<30; j++)				// magenta gray
    728c:	c0 e0       	ldi	r28, 0x00	; 0
    728e:	d0 e0       	ldi	r29, 0x00	; 0
    7290:	db cf       	rjmp	.-74     	; 0x7248 <TFT_color_gray+0x1e2>
        }
    }

  for(j=0; j<30; j++)				// white gray
    { for(k=0; k<320; k++)
        { i = 0x1F - k/13;
    7292:	ce 01       	movw	r24, r28
    7294:	6d e0       	ldi	r22, 0x0D	; 13
    7296:	70 e0       	ldi	r23, 0x00	; 0
    7298:	0e 94 13 61 	call	0xc226	; 0xc226 <__udivmodhi4>
    729c:	97 01       	movw	r18, r14
    729e:	26 1b       	sub	r18, r22
    72a0:	37 0b       	sbc	r19, r23
	  color = (i << 11) + (i << 6) + i;
          TFT_data(color);
    72a2:	c9 01       	movw	r24, r18
    72a4:	98 2f       	mov	r25, r24
    72a6:	88 27       	eor	r24, r24
    72a8:	99 0f       	add	r25, r25
    72aa:	99 0f       	add	r25, r25
    72ac:	99 0f       	add	r25, r25
    72ae:	a9 01       	movw	r20, r18
    72b0:	66 e0       	ldi	r22, 0x06	; 6
    72b2:	44 0f       	add	r20, r20
    72b4:	55 1f       	adc	r21, r21
    72b6:	6a 95       	dec	r22
    72b8:	e1 f7       	brne	.-8      	; 0x72b2 <TFT_color_gray+0x24c>
    72ba:	84 0f       	add	r24, r20
    72bc:	95 1f       	adc	r25, r21
    72be:	82 0f       	add	r24, r18
    72c0:	93 1f       	adc	r25, r19
    72c2:	0e 94 52 28 	call	0x50a4	; 0x50a4 <TFT_data>
          TFT_data(color);
        }
    }

  for(j=0; j<30; j++)				// white gray
    { for(k=0; k<320; k++)
    72c6:	21 96       	adiw	r28, 0x01	; 1
    72c8:	81 e0       	ldi	r24, 0x01	; 1
    72ca:	c0 34       	cpi	r28, 0x40	; 64
    72cc:	d8 07       	cpc	r29, r24
    72ce:	09 f7       	brne	.-62     	; 0x7292 <TFT_color_gray+0x22c>
	  color = (i << 11) + i;
          TFT_data(color);
        }
    }

  for(j=0; j<30; j++)				// white gray
    72d0:	0f 5f       	subi	r16, 0xFF	; 255
    72d2:	1f 4f       	sbci	r17, 0xFF	; 255
    72d4:	0e 31       	cpi	r16, 0x1E	; 30
    72d6:	11 05       	cpc	r17, r1
    72d8:	19 f0       	breq	.+6      	; 0x72e0 <TFT_color_gray+0x27a>
    72da:	c0 e0       	ldi	r28, 0x00	; 0
    72dc:	d0 e0       	ldi	r29, 0x00	; 0
    72de:	d9 cf       	rjmp	.-78     	; 0x7292 <TFT_color_gray+0x22c>
	  color = (i << 11) + (i << 6) + i;
          TFT_data(color);
        }
    }

  TFT_portrait();
    72e0:	0e 94 a0 2a 	call	0x5540	; 0x5540 <TFT_portrait>
}
    72e4:	df 91       	pop	r29
    72e6:	cf 91       	pop	r28
    72e8:	1f 91       	pop	r17
    72ea:	0f 91       	pop	r16
    72ec:	ff 90       	pop	r15
    72ee:	ef 90       	pop	r14
    72f0:	08 95       	ret

000072f2 <Test1>:
}

/* ---------------------------------------------------------------------------- */

void Test1(void)				/* Test 1 */
{
    72f2:	cf 92       	push	r12
    72f4:	df 92       	push	r13
    72f6:	ef 92       	push	r14
    72f8:	ff 92       	push	r15
    72fa:	0f 93       	push	r16
    72fc:	1f 93       	push	r17
  TFT_clear_screen();				// clear screen
    72fe:	0e 94 cf 28 	call	0x519e	; 0x519e <TFT_clear_screen>
  TFT_portrait();				// portrait mode
    7302:	0e 94 a0 2a 	call	0x5540	; 0x5540 <TFT_portrait>

  Rectangle(0,0, 239,319, Green);		// display title
    7306:	80 e0       	ldi	r24, 0x00	; 0
    7308:	90 e0       	ldi	r25, 0x00	; 0
    730a:	60 e0       	ldi	r22, 0x00	; 0
    730c:	70 e0       	ldi	r23, 0x00	; 0
    730e:	4f ee       	ldi	r20, 0xEF	; 239
    7310:	50 e0       	ldi	r21, 0x00	; 0
    7312:	2f e3       	ldi	r18, 0x3F	; 63
    7314:	31 e0       	ldi	r19, 0x01	; 1
    7316:	00 ee       	ldi	r16, 0xE0	; 224
    7318:	17 e0       	ldi	r17, 0x07	; 7
    731a:	0e 94 14 33 	call	0x6628	; 0x6628 <Rectangle>
  Rectangle(1,1, 238,318, Green);
    731e:	81 e0       	ldi	r24, 0x01	; 1
    7320:	90 e0       	ldi	r25, 0x00	; 0
    7322:	61 e0       	ldi	r22, 0x01	; 1
    7324:	70 e0       	ldi	r23, 0x00	; 0
    7326:	4e ee       	ldi	r20, 0xEE	; 238
    7328:	50 e0       	ldi	r21, 0x00	; 0
    732a:	2e e3       	ldi	r18, 0x3E	; 62
    732c:	31 e0       	ldi	r19, 0x01	; 1
    732e:	0e 94 14 33 	call	0x6628	; 0x6628 <Rectangle>
  Rectangle(2,2, 237,317, Green);
    7332:	82 e0       	ldi	r24, 0x02	; 2
    7334:	90 e0       	ldi	r25, 0x00	; 0
    7336:	62 e0       	ldi	r22, 0x02	; 2
    7338:	70 e0       	ldi	r23, 0x00	; 0
    733a:	4d ee       	ldi	r20, 0xED	; 237
    733c:	50 e0       	ldi	r21, 0x00	; 0
    733e:	2d e3       	ldi	r18, 0x3D	; 61
    7340:	31 e0       	ldi	r19, 0x01	; 1
    7342:	0e 94 14 33 	call	0x6628	; 0x6628 <Rectangle>
  TFT_string(3,10,Green,Magenta,"(1) TFT-LCD  ");
    7346:	83 e0       	ldi	r24, 0x03	; 3
    7348:	6a e0       	ldi	r22, 0x0A	; 10
    734a:	40 ee       	ldi	r20, 0xE0	; 224
    734c:	57 e0       	ldi	r21, 0x07	; 7
    734e:	2f e1       	ldi	r18, 0x1F	; 31
    7350:	38 ef       	ldi	r19, 0xF8	; 248
    7352:	08 e6       	ldi	r16, 0x68	; 104
    7354:	12 e0       	ldi	r17, 0x02	; 2
    7356:	0e 94 28 2f 	call	0x5e50	; 0x5e50 <TFT_string>
  Delay_ms(500);
    735a:	84 ef       	ldi	r24, 0xF4	; 244
    735c:	91 e0       	ldi	r25, 0x01	; 1
    735e:	0e 94 14 25 	call	0x4a28	; 0x4a28 <Delay_ms>

  TFT_color_screen(White);  			// display full color(white) 
    7362:	8f ef       	ldi	r24, 0xFF	; 255
    7364:	9f ef       	ldi	r25, 0xFF	; 255
    7366:	0e 94 ad 28 	call	0x515a	; 0x515a <TFT_color_screen>
  TFT_string(10,1,Black,Transparent," ");
    736a:	8a e0       	ldi	r24, 0x0A	; 10
    736c:	61 e0       	ldi	r22, 0x01	; 1
    736e:	40 e0       	ldi	r20, 0x00	; 0
    7370:	50 e0       	ldi	r21, 0x00	; 0
    7372:	21 e2       	ldi	r18, 0x21	; 33
    7374:	38 e0       	ldi	r19, 0x08	; 8
    7376:	00 e8       	ldi	r16, 0x80	; 128
    7378:	12 e0       	ldi	r17, 0x02	; 2
    737a:	0e 94 28 2f 	call	0x5e50	; 0x5e50 <TFT_string>
  Delay_ms(1000);
    737e:	88 ee       	ldi	r24, 0xE8	; 232
    7380:	93 e0       	ldi	r25, 0x03	; 3
    7382:	0e 94 14 25 	call	0x4a28	; 0x4a28 <Delay_ms>
  TFT_color_screen(Red);  			// display full color(red)
    7386:	80 e0       	ldi	r24, 0x00	; 0
    7388:	98 ef       	ldi	r25, 0xF8	; 248
    738a:	0e 94 ad 28 	call	0x515a	; 0x515a <TFT_color_screen>
  TFT_string(10,1,Green,Transparent," ");
    738e:	8a e0       	ldi	r24, 0x0A	; 10
    7390:	61 e0       	ldi	r22, 0x01	; 1
    7392:	40 ee       	ldi	r20, 0xE0	; 224
    7394:	57 e0       	ldi	r21, 0x07	; 7
    7396:	21 e2       	ldi	r18, 0x21	; 33
    7398:	38 e0       	ldi	r19, 0x08	; 8
    739a:	0a e8       	ldi	r16, 0x8A	; 138
    739c:	12 e0       	ldi	r17, 0x02	; 2
    739e:	0e 94 28 2f 	call	0x5e50	; 0x5e50 <TFT_string>
  Delay_ms(1000);
    73a2:	88 ee       	ldi	r24, 0xE8	; 232
    73a4:	93 e0       	ldi	r25, 0x03	; 3
    73a6:	0e 94 14 25 	call	0x4a28	; 0x4a28 <Delay_ms>
  TFT_color_screen(Green);  			// display full color(green)
    73aa:	80 ee       	ldi	r24, 0xE0	; 224
    73ac:	97 e0       	ldi	r25, 0x07	; 7
    73ae:	0e 94 ad 28 	call	0x515a	; 0x515a <TFT_color_screen>
  TFT_string(10,1,Red,  Transparent," ");
    73b2:	8a e0       	ldi	r24, 0x0A	; 10
    73b4:	61 e0       	ldi	r22, 0x01	; 1
    73b6:	40 e0       	ldi	r20, 0x00	; 0
    73b8:	58 ef       	ldi	r21, 0xF8	; 248
    73ba:	21 e2       	ldi	r18, 0x21	; 33
    73bc:	38 e0       	ldi	r19, 0x08	; 8
    73be:	04 e9       	ldi	r16, 0x94	; 148
    73c0:	12 e0       	ldi	r17, 0x02	; 2
    73c2:	0e 94 28 2f 	call	0x5e50	; 0x5e50 <TFT_string>
  Delay_ms(1000);
    73c6:	88 ee       	ldi	r24, 0xE8	; 232
    73c8:	93 e0       	ldi	r25, 0x03	; 3
    73ca:	0e 94 14 25 	call	0x4a28	; 0x4a28 <Delay_ms>
  TFT_color_screen(Blue);  			// display full color(blue)  
    73ce:	8f e1       	ldi	r24, 0x1F	; 31
    73d0:	90 e0       	ldi	r25, 0x00	; 0
    73d2:	0e 94 ad 28 	call	0x515a	; 0x515a <TFT_color_screen>
  TFT_string(10,1,Cyan, Transparent," ");
    73d6:	8a e0       	ldi	r24, 0x0A	; 10
    73d8:	61 e0       	ldi	r22, 0x01	; 1
    73da:	4f ef       	ldi	r20, 0xFF	; 255
    73dc:	57 e0       	ldi	r21, 0x07	; 7
    73de:	21 e2       	ldi	r18, 0x21	; 33
    73e0:	38 e0       	ldi	r19, 0x08	; 8
    73e2:	0e e9       	ldi	r16, 0x9E	; 158
    73e4:	12 e0       	ldi	r17, 0x02	; 2
    73e6:	0e 94 28 2f 	call	0x5e50	; 0x5e50 <TFT_string>
  Delay_ms(1000);
    73ea:	88 ee       	ldi	r24, 0xE8	; 232
    73ec:	93 e0       	ldi	r25, 0x03	; 3
    73ee:	0e 94 14 25 	call	0x4a28	; 0x4a28 <Delay_ms>

  TFT_8color_horizontal();			// display 8-Color(horizontal)
    73f2:	0e 94 c2 37 	call	0x6f84	; 0x6f84 <TFT_8color_horizontal>
  TFT_string(13, 1,Black,Transparent,"");
    73f6:	8d e0       	ldi	r24, 0x0D	; 13
    73f8:	61 e0       	ldi	r22, 0x01	; 1
    73fa:	40 e0       	ldi	r20, 0x00	; 0
    73fc:	50 e0       	ldi	r21, 0x00	; 0
    73fe:	21 e2       	ldi	r18, 0x21	; 33
    7400:	38 e0       	ldi	r19, 0x08	; 8
    7402:	08 ea       	ldi	r16, 0xA8	; 168
    7404:	12 e0       	ldi	r17, 0x02	; 2
    7406:	0e 94 28 2f 	call	0x5e50	; 0x5e50 <TFT_string>
  TFT_string(13, 7,White,Transparent,"");
    740a:	8d e0       	ldi	r24, 0x0D	; 13
    740c:	67 e0       	ldi	r22, 0x07	; 7
    740e:	4f ef       	ldi	r20, 0xFF	; 255
    7410:	5f ef       	ldi	r21, 0xFF	; 255
    7412:	21 e2       	ldi	r18, 0x21	; 33
    7414:	38 e0       	ldi	r19, 0x08	; 8
    7416:	0d ea       	ldi	r16, 0xAD	; 173
    7418:	12 e0       	ldi	r17, 0x02	; 2
    741a:	0e 94 28 2f 	call	0x5e50	; 0x5e50 <TFT_string>
  TFT_string(13,11,Green,Transparent,"");
    741e:	8d e0       	ldi	r24, 0x0D	; 13
    7420:	6b e0       	ldi	r22, 0x0B	; 11
    7422:	40 ee       	ldi	r20, 0xE0	; 224
    7424:	57 e0       	ldi	r21, 0x07	; 7
    7426:	21 e2       	ldi	r18, 0x21	; 33
    7428:	38 e0       	ldi	r19, 0x08	; 8
    742a:	02 eb       	ldi	r16, 0xB2	; 178
    742c:	12 e0       	ldi	r17, 0x02	; 2
    742e:	0e 94 28 2f 	call	0x5e50	; 0x5e50 <TFT_string>
  TFT_string(13,16,Red,  Transparent,"");
    7432:	8d e0       	ldi	r24, 0x0D	; 13
    7434:	60 e1       	ldi	r22, 0x10	; 16
    7436:	40 e0       	ldi	r20, 0x00	; 0
    7438:	58 ef       	ldi	r21, 0xF8	; 248
    743a:	21 e2       	ldi	r18, 0x21	; 33
    743c:	38 e0       	ldi	r19, 0x08	; 8
    743e:	07 eb       	ldi	r16, 0xB7	; 183
    7440:	12 e0       	ldi	r17, 0x02	; 2
    7442:	0e 94 28 2f 	call	0x5e50	; 0x5e50 <TFT_string>
  TFT_string(13,21,Cyan, Transparent,"");
    7446:	8d e0       	ldi	r24, 0x0D	; 13
    7448:	65 e1       	ldi	r22, 0x15	; 21
    744a:	4f ef       	ldi	r20, 0xFF	; 255
    744c:	57 e0       	ldi	r21, 0x07	; 7
    744e:	21 e2       	ldi	r18, 0x21	; 33
    7450:	38 e0       	ldi	r19, 0x08	; 8
    7452:	0c eb       	ldi	r16, 0xBC	; 188
    7454:	12 e0       	ldi	r17, 0x02	; 2
    7456:	0e 94 28 2f 	call	0x5e50	; 0x5e50 <TFT_string>
  TFT_string(13,26,Black,Transparent,"");
    745a:	8d e0       	ldi	r24, 0x0D	; 13
    745c:	6a e1       	ldi	r22, 0x1A	; 26
    745e:	40 e0       	ldi	r20, 0x00	; 0
    7460:	50 e0       	ldi	r21, 0x00	; 0
    7462:	21 e2       	ldi	r18, 0x21	; 33
    7464:	38 e0       	ldi	r19, 0x08	; 8
    7466:	01 ec       	ldi	r16, 0xC1	; 193
    7468:	12 e0       	ldi	r17, 0x02	; 2
    746a:	0e 94 28 2f 	call	0x5e50	; 0x5e50 <TFT_string>
  TFT_string(13,31,Red,  Transparent,"");
    746e:	8d e0       	ldi	r24, 0x0D	; 13
    7470:	6f e1       	ldi	r22, 0x1F	; 31
    7472:	40 e0       	ldi	r20, 0x00	; 0
    7474:	58 ef       	ldi	r21, 0xF8	; 248
    7476:	21 e2       	ldi	r18, 0x21	; 33
    7478:	38 e0       	ldi	r19, 0x08	; 8
    747a:	06 ec       	ldi	r16, 0xC6	; 198
    747c:	12 e0       	ldi	r17, 0x02	; 2
    747e:	0e 94 28 2f 	call	0x5e50	; 0x5e50 <TFT_string>
  TFT_string(13,36,White,Transparent,"");
    7482:	8d e0       	ldi	r24, 0x0D	; 13
    7484:	64 e2       	ldi	r22, 0x24	; 36
    7486:	4f ef       	ldi	r20, 0xFF	; 255
    7488:	5f ef       	ldi	r21, 0xFF	; 255
    748a:	21 e2       	ldi	r18, 0x21	; 33
    748c:	38 e0       	ldi	r19, 0x08	; 8
    748e:	0b ec       	ldi	r16, 0xCB	; 203
    7490:	12 e0       	ldi	r17, 0x02	; 2
    7492:	0e 94 28 2f 	call	0x5e50	; 0x5e50 <TFT_string>
  Delay_ms(3000);				
    7496:	88 eb       	ldi	r24, 0xB8	; 184
    7498:	9b e0       	ldi	r25, 0x0B	; 11
    749a:	0e 94 14 25 	call	0x4a28	; 0x4a28 <Delay_ms>
  TFT_8color_vertical();			// display 8-Color(vertical)
    749e:	0e 94 f9 37 	call	0x6ff2	; 0x6ff2 <TFT_8color_vertical>
  TFT_string( 1, 1,White,Transparent,"");
    74a2:	81 e0       	ldi	r24, 0x01	; 1
    74a4:	61 e0       	ldi	r22, 0x01	; 1
    74a6:	4f ef       	ldi	r20, 0xFF	; 255
    74a8:	5f ef       	ldi	r21, 0xFF	; 255
    74aa:	21 e2       	ldi	r18, 0x21	; 33
    74ac:	38 e0       	ldi	r19, 0x08	; 8
    74ae:	00 ed       	ldi	r16, 0xD0	; 208
    74b0:	12 e0       	ldi	r17, 0x02	; 2
    74b2:	0e 94 28 2f 	call	0x5e50	; 0x5e50 <TFT_string>
  TFT_string( 1, 3,White,Transparent,"");
    74b6:	81 e0       	ldi	r24, 0x01	; 1
    74b8:	63 e0       	ldi	r22, 0x03	; 3
    74ba:	4f ef       	ldi	r20, 0xFF	; 255
    74bc:	5f ef       	ldi	r21, 0xFF	; 255
    74be:	21 e2       	ldi	r18, 0x21	; 33
    74c0:	38 e0       	ldi	r19, 0x08	; 8
    74c2:	03 ed       	ldi	r16, 0xD3	; 211
    74c4:	12 e0       	ldi	r17, 0x02	; 2
    74c6:	0e 94 28 2f 	call	0x5e50	; 0x5e50 <TFT_string>
  TFT_string( 5, 1,Red,  Transparent,"");
    74ca:	e6 ed       	ldi	r30, 0xD6	; 214
    74cc:	ce 2e       	mov	r12, r30
    74ce:	e2 e0       	ldi	r30, 0x02	; 2
    74d0:	de 2e       	mov	r13, r30
    74d2:	85 e0       	ldi	r24, 0x05	; 5
    74d4:	61 e0       	ldi	r22, 0x01	; 1
    74d6:	40 e0       	ldi	r20, 0x00	; 0
    74d8:	58 ef       	ldi	r21, 0xF8	; 248
    74da:	21 e2       	ldi	r18, 0x21	; 33
    74dc:	38 e0       	ldi	r19, 0x08	; 8
    74de:	86 01       	movw	r16, r12
    74e0:	0e 94 28 2f 	call	0x5e50	; 0x5e50 <TFT_string>
  TFT_string( 5, 3,Red,  Transparent,"");
    74e4:	79 ed       	ldi	r23, 0xD9	; 217
    74e6:	e7 2e       	mov	r14, r23
    74e8:	72 e0       	ldi	r23, 0x02	; 2
    74ea:	f7 2e       	mov	r15, r23
    74ec:	85 e0       	ldi	r24, 0x05	; 5
    74ee:	63 e0       	ldi	r22, 0x03	; 3
    74f0:	40 e0       	ldi	r20, 0x00	; 0
    74f2:	58 ef       	ldi	r21, 0xF8	; 248
    74f4:	21 e2       	ldi	r18, 0x21	; 33
    74f6:	38 e0       	ldi	r19, 0x08	; 8
    74f8:	87 01       	movw	r16, r14
    74fa:	0e 94 28 2f 	call	0x5e50	; 0x5e50 <TFT_string>
  TFT_string( 9, 1,Black,Transparent,"");
    74fe:	89 e0       	ldi	r24, 0x09	; 9
    7500:	61 e0       	ldi	r22, 0x01	; 1
    7502:	40 e0       	ldi	r20, 0x00	; 0
    7504:	50 e0       	ldi	r21, 0x00	; 0
    7506:	21 e2       	ldi	r18, 0x21	; 33
    7508:	38 e0       	ldi	r19, 0x08	; 8
    750a:	0c ed       	ldi	r16, 0xDC	; 220
    750c:	12 e0       	ldi	r17, 0x02	; 2
    750e:	0e 94 28 2f 	call	0x5e50	; 0x5e50 <TFT_string>
  TFT_string( 9, 3,Black,Transparent,"");
    7512:	89 e0       	ldi	r24, 0x09	; 9
    7514:	63 e0       	ldi	r22, 0x03	; 3
    7516:	40 e0       	ldi	r20, 0x00	; 0
    7518:	50 e0       	ldi	r21, 0x00	; 0
    751a:	21 e2       	ldi	r18, 0x21	; 33
    751c:	38 e0       	ldi	r19, 0x08	; 8
    751e:	0f ed       	ldi	r16, 0xDF	; 223
    7520:	12 e0       	ldi	r17, 0x02	; 2
    7522:	0e 94 28 2f 	call	0x5e50	; 0x5e50 <TFT_string>
  TFT_string(13, 1,Cyan, Transparent,"");
    7526:	8d e0       	ldi	r24, 0x0D	; 13
    7528:	61 e0       	ldi	r22, 0x01	; 1
    752a:	4f ef       	ldi	r20, 0xFF	; 255
    752c:	57 e0       	ldi	r21, 0x07	; 7
    752e:	21 e2       	ldi	r18, 0x21	; 33
    7530:	38 e0       	ldi	r19, 0x08	; 8
    7532:	87 01       	movw	r16, r14
    7534:	0e 94 28 2f 	call	0x5e50	; 0x5e50 <TFT_string>
  TFT_string(13, 3,Cyan, Transparent,"");
    7538:	62 ee       	ldi	r22, 0xE2	; 226
    753a:	e6 2e       	mov	r14, r22
    753c:	62 e0       	ldi	r22, 0x02	; 2
    753e:	f6 2e       	mov	r15, r22
    7540:	8d e0       	ldi	r24, 0x0D	; 13
    7542:	63 e0       	ldi	r22, 0x03	; 3
    7544:	4f ef       	ldi	r20, 0xFF	; 255
    7546:	57 e0       	ldi	r21, 0x07	; 7
    7548:	21 e2       	ldi	r18, 0x21	; 33
    754a:	38 e0       	ldi	r19, 0x08	; 8
    754c:	87 01       	movw	r16, r14
    754e:	0e 94 28 2f 	call	0x5e50	; 0x5e50 <TFT_string>
  TFT_string(16, 1,Red,  Transparent,"");
    7552:	80 e1       	ldi	r24, 0x10	; 16
    7554:	61 e0       	ldi	r22, 0x01	; 1
    7556:	40 e0       	ldi	r20, 0x00	; 0
    7558:	58 ef       	ldi	r21, 0xF8	; 248
    755a:	21 e2       	ldi	r18, 0x21	; 33
    755c:	38 e0       	ldi	r19, 0x08	; 8
    755e:	86 01       	movw	r16, r12
    7560:	0e 94 28 2f 	call	0x5e50	; 0x5e50 <TFT_string>
  TFT_string(16, 3,Red,  Transparent,"");
    7564:	80 e1       	ldi	r24, 0x10	; 16
    7566:	63 e0       	ldi	r22, 0x03	; 3
    7568:	40 e0       	ldi	r20, 0x00	; 0
    756a:	58 ef       	ldi	r21, 0xF8	; 248
    756c:	21 e2       	ldi	r18, 0x21	; 33
    756e:	38 e0       	ldi	r19, 0x08	; 8
    7570:	87 01       	movw	r16, r14
    7572:	0e 94 28 2f 	call	0x5e50	; 0x5e50 <TFT_string>
  TFT_string(20, 1,Green,Transparent,"");
    7576:	84 e1       	ldi	r24, 0x14	; 20
    7578:	61 e0       	ldi	r22, 0x01	; 1
    757a:	40 ee       	ldi	r20, 0xE0	; 224
    757c:	57 e0       	ldi	r21, 0x07	; 7
    757e:	21 e2       	ldi	r18, 0x21	; 33
    7580:	38 e0       	ldi	r19, 0x08	; 8
    7582:	05 ee       	ldi	r16, 0xE5	; 229
    7584:	12 e0       	ldi	r17, 0x02	; 2
    7586:	0e 94 28 2f 	call	0x5e50	; 0x5e50 <TFT_string>
  TFT_string(20, 3,Green,Transparent,"");
    758a:	84 e1       	ldi	r24, 0x14	; 20
    758c:	63 e0       	ldi	r22, 0x03	; 3
    758e:	40 ee       	ldi	r20, 0xE0	; 224
    7590:	57 e0       	ldi	r21, 0x07	; 7
    7592:	21 e2       	ldi	r18, 0x21	; 33
    7594:	38 e0       	ldi	r19, 0x08	; 8
    7596:	87 01       	movw	r16, r14
    7598:	0e 94 28 2f 	call	0x5e50	; 0x5e50 <TFT_string>
  TFT_string(24, 1,White,Transparent,"");
    759c:	88 e1       	ldi	r24, 0x18	; 24
    759e:	61 e0       	ldi	r22, 0x01	; 1
    75a0:	4f ef       	ldi	r20, 0xFF	; 255
    75a2:	5f ef       	ldi	r21, 0xFF	; 255
    75a4:	21 e2       	ldi	r18, 0x21	; 33
    75a6:	38 e0       	ldi	r19, 0x08	; 8
    75a8:	08 ee       	ldi	r16, 0xE8	; 232
    75aa:	12 e0       	ldi	r17, 0x02	; 2
    75ac:	0e 94 28 2f 	call	0x5e50	; 0x5e50 <TFT_string>
  TFT_string(24, 3,White,Transparent,"");
    75b0:	88 e1       	ldi	r24, 0x18	; 24
    75b2:	63 e0       	ldi	r22, 0x03	; 3
    75b4:	4f ef       	ldi	r20, 0xFF	; 255
    75b6:	5f ef       	ldi	r21, 0xFF	; 255
    75b8:	21 e2       	ldi	r18, 0x21	; 33
    75ba:	38 e0       	ldi	r19, 0x08	; 8
    75bc:	87 01       	movw	r16, r14
    75be:	0e 94 28 2f 	call	0x5e50	; 0x5e50 <TFT_string>
  TFT_string(28, 1,Black,Transparent,"");
    75c2:	8c e1       	ldi	r24, 0x1C	; 28
    75c4:	61 e0       	ldi	r22, 0x01	; 1
    75c6:	40 e0       	ldi	r20, 0x00	; 0
    75c8:	50 e0       	ldi	r21, 0x00	; 0
    75ca:	21 e2       	ldi	r18, 0x21	; 33
    75cc:	38 e0       	ldi	r19, 0x08	; 8
    75ce:	0b ee       	ldi	r16, 0xEB	; 235
    75d0:	12 e0       	ldi	r17, 0x02	; 2
    75d2:	0e 94 28 2f 	call	0x5e50	; 0x5e50 <TFT_string>
  TFT_string(28, 3,Black,Transparent,"");
    75d6:	8c e1       	ldi	r24, 0x1C	; 28
    75d8:	63 e0       	ldi	r22, 0x03	; 3
    75da:	40 e0       	ldi	r20, 0x00	; 0
    75dc:	50 e0       	ldi	r21, 0x00	; 0
    75de:	21 e2       	ldi	r18, 0x21	; 33
    75e0:	38 e0       	ldi	r19, 0x08	; 8
    75e2:	87 01       	movw	r16, r14
    75e4:	0e 94 28 2f 	call	0x5e50	; 0x5e50 <TFT_string>
  Delay_ms(3000);
    75e8:	88 eb       	ldi	r24, 0xB8	; 184
    75ea:	9b e0       	ldi	r25, 0x0B	; 11
    75ec:	0e 94 14 25 	call	0x4a28	; 0x4a28 <Delay_ms>

  TFT_color_gray();				// display 8-Gray(horizontal)
    75f0:	0e 94 33 38 	call	0x7066	; 0x7066 <TFT_color_gray>
  TFT_string(13, 0,Magenta,Transparent,"");
    75f4:	8d e0       	ldi	r24, 0x0D	; 13
    75f6:	60 e0       	ldi	r22, 0x00	; 0
    75f8:	4f e1       	ldi	r20, 0x1F	; 31
    75fa:	58 ef       	ldi	r21, 0xF8	; 248
    75fc:	21 e2       	ldi	r18, 0x21	; 33
    75fe:	38 e0       	ldi	r19, 0x08	; 8
    7600:	0e ee       	ldi	r16, 0xEE	; 238
    7602:	12 e0       	ldi	r17, 0x02	; 2
    7604:	0e 94 28 2f 	call	0x5e50	; 0x5e50 <TFT_string>
  TFT_string(12,38,Magenta,Transparent,"");
    7608:	8c e0       	ldi	r24, 0x0C	; 12
    760a:	66 e2       	ldi	r22, 0x26	; 38
    760c:	4f e1       	ldi	r20, 0x1F	; 31
    760e:	58 ef       	ldi	r21, 0xF8	; 248
    7610:	21 e2       	ldi	r18, 0x21	; 33
    7612:	38 e0       	ldi	r19, 0x08	; 8
    7614:	03 ef       	ldi	r16, 0xF3	; 243
    7616:	12 e0       	ldi	r17, 0x02	; 2
    7618:	0e 94 28 2f 	call	0x5e50	; 0x5e50 <TFT_string>
  Delay_ms(3000);
    761c:	88 eb       	ldi	r24, 0xB8	; 184
    761e:	9b e0       	ldi	r25, 0x0B	; 11
    7620:	0e 94 14 25 	call	0x4a28	; 0x4a28 <Delay_ms>
}
    7624:	1f 91       	pop	r17
    7626:	0f 91       	pop	r16
    7628:	ff 90       	pop	r15
    762a:	ef 90       	pop	r14
    762c:	df 90       	pop	r13
    762e:	cf 90       	pop	r12
    7630:	08 95       	ret

00007632 <Test2>:
}

/* ---------------------------------------------------------------------------- */

void Test2(void)				/* Test 2 */
{
    7632:	ef 92       	push	r14
    7634:	ff 92       	push	r15
    7636:	0f 93       	push	r16
    7638:	1f 93       	push	r17
  TFT_clear_screen(); 				// clear screen
    763a:	0e 94 cf 28 	call	0x519e	; 0x519e <TFT_clear_screen>
  TFT_portrait();				// portrait mode
    763e:	0e 94 a0 2a 	call	0x5540	; 0x5540 <TFT_portrait>

  Rectangle(0,0, 239,319, Green);		// display title
    7642:	80 e0       	ldi	r24, 0x00	; 0
    7644:	90 e0       	ldi	r25, 0x00	; 0
    7646:	60 e0       	ldi	r22, 0x00	; 0
    7648:	70 e0       	ldi	r23, 0x00	; 0
    764a:	4f ee       	ldi	r20, 0xEF	; 239
    764c:	50 e0       	ldi	r21, 0x00	; 0
    764e:	2f e3       	ldi	r18, 0x3F	; 63
    7650:	31 e0       	ldi	r19, 0x01	; 1
    7652:	00 ee       	ldi	r16, 0xE0	; 224
    7654:	17 e0       	ldi	r17, 0x07	; 7
    7656:	0e 94 14 33 	call	0x6628	; 0x6628 <Rectangle>
  Rectangle(1,1, 238,318, Green);
    765a:	81 e0       	ldi	r24, 0x01	; 1
    765c:	90 e0       	ldi	r25, 0x00	; 0
    765e:	61 e0       	ldi	r22, 0x01	; 1
    7660:	70 e0       	ldi	r23, 0x00	; 0
    7662:	4e ee       	ldi	r20, 0xEE	; 238
    7664:	50 e0       	ldi	r21, 0x00	; 0
    7666:	2e e3       	ldi	r18, 0x3E	; 62
    7668:	31 e0       	ldi	r19, 0x01	; 1
    766a:	0e 94 14 33 	call	0x6628	; 0x6628 <Rectangle>
  Rectangle(2,2, 237,317, Green);
    766e:	82 e0       	ldi	r24, 0x02	; 2
    7670:	90 e0       	ldi	r25, 0x00	; 0
    7672:	62 e0       	ldi	r22, 0x02	; 2
    7674:	70 e0       	ldi	r23, 0x00	; 0
    7676:	4d ee       	ldi	r20, 0xED	; 237
    7678:	50 e0       	ldi	r21, 0x00	; 0
    767a:	2d e3       	ldi	r18, 0x3D	; 61
    767c:	31 e0       	ldi	r19, 0x01	; 1
    767e:	0e 94 14 33 	call	0x6628	; 0x6628 <Rectangle>
  TFT_string(3,10,Green,Magenta,"(2) TFT-LCD  ");
    7682:	83 e0       	ldi	r24, 0x03	; 3
    7684:	6a e0       	ldi	r22, 0x0A	; 10
    7686:	40 ee       	ldi	r20, 0xE0	; 224
    7688:	57 e0       	ldi	r21, 0x07	; 7
    768a:	2f e1       	ldi	r18, 0x1F	; 31
    768c:	38 ef       	ldi	r19, 0xF8	; 248
    768e:	0a ef       	ldi	r16, 0xFA	; 250
    7690:	12 e0       	ldi	r17, 0x02	; 2
    7692:	0e 94 28 2f 	call	0x5e50	; 0x5e50 <TFT_string>
  Delay_ms(500);
    7696:	84 ef       	ldi	r24, 0xF4	; 244
    7698:	91 e0       	ldi	r25, 0x01	; 1
    769a:	0e 94 14 25 	call	0x4a28	; 0x4a28 <Delay_ms>
  TFT_clear_screen();
    769e:	0e 94 cf 28 	call	0x519e	; 0x519e <TFT_clear_screen>

  TFT_string( 0, 0,Green,  Black,"******************************");
    76a2:	12 e1       	ldi	r17, 0x12	; 18
    76a4:	e1 2e       	mov	r14, r17
    76a6:	13 e0       	ldi	r17, 0x03	; 3
    76a8:	f1 2e       	mov	r15, r17
    76aa:	80 e0       	ldi	r24, 0x00	; 0
    76ac:	60 e0       	ldi	r22, 0x00	; 0
    76ae:	40 ee       	ldi	r20, 0xE0	; 224
    76b0:	57 e0       	ldi	r21, 0x07	; 7
    76b2:	20 e0       	ldi	r18, 0x00	; 0
    76b4:	30 e0       	ldi	r19, 0x00	; 0
    76b6:	87 01       	movw	r16, r14
    76b8:	0e 94 28 2f 	call	0x5e50	; 0x5e50 <TFT_string>
  TFT_string( 0, 2,Magenta,Black," OK-128TFT   V1.0 ");
    76bc:	80 e0       	ldi	r24, 0x00	; 0
    76be:	62 e0       	ldi	r22, 0x02	; 2
    76c0:	4f e1       	ldi	r20, 0x1F	; 31
    76c2:	58 ef       	ldi	r21, 0xF8	; 248
    76c4:	20 e0       	ldi	r18, 0x00	; 0
    76c6:	30 e0       	ldi	r19, 0x00	; 0
    76c8:	01 e3       	ldi	r16, 0x31	; 49
    76ca:	13 e0       	ldi	r17, 0x03	; 3
    76cc:	0e 94 28 2f 	call	0x5e50	; 0x5e50 <TFT_string>
  TFT_string( 0, 4,Cyan,   Black,"     (TFT-32HX  V2.0)     ");
    76d0:	80 e0       	ldi	r24, 0x00	; 0
    76d2:	64 e0       	ldi	r22, 0x04	; 4
    76d4:	4f ef       	ldi	r20, 0xFF	; 255
    76d6:	57 e0       	ldi	r21, 0x07	; 7
    76d8:	20 e0       	ldi	r18, 0x00	; 0
    76da:	30 e0       	ldi	r19, 0x00	; 0
    76dc:	00 e5       	ldi	r16, 0x50	; 80
    76de:	13 e0       	ldi	r17, 0x03	; 3
    76e0:	0e 94 28 2f 	call	0x5e50	; 0x5e50 <TFT_string>
  TFT_string( 0, 6,Green,  Black,"******************************");
    76e4:	80 e0       	ldi	r24, 0x00	; 0
    76e6:	66 e0       	ldi	r22, 0x06	; 6
    76e8:	40 ee       	ldi	r20, 0xE0	; 224
    76ea:	57 e0       	ldi	r21, 0x07	; 7
    76ec:	20 e0       	ldi	r18, 0x00	; 0
    76ee:	30 e0       	ldi	r19, 0x00	; 0
    76f0:	87 01       	movw	r16, r14
    76f2:	0e 94 28 2f 	call	0x5e50	; 0x5e50 <TFT_string>
  TFT_string( 0, 8,Black,  Black,"                              ");
    76f6:	bf e6       	ldi	r27, 0x6F	; 111
    76f8:	eb 2e       	mov	r14, r27
    76fa:	b3 e0       	ldi	r27, 0x03	; 3
    76fc:	fb 2e       	mov	r15, r27
    76fe:	80 e0       	ldi	r24, 0x00	; 0
    7700:	68 e0       	ldi	r22, 0x08	; 8
    7702:	40 e0       	ldi	r20, 0x00	; 0
    7704:	50 e0       	ldi	r21, 0x00	; 0
    7706:	20 e0       	ldi	r18, 0x00	; 0
    7708:	30 e0       	ldi	r19, 0x00	; 0
    770a:	87 01       	movw	r16, r14
    770c:	0e 94 28 2f 	call	0x5e50	; 0x5e50 <TFT_string>
  TFT_string( 0,10,Magenta,Black," (  = Portrait) ");
    7710:	80 e0       	ldi	r24, 0x00	; 0
    7712:	6a e0       	ldi	r22, 0x0A	; 10
    7714:	4f e1       	ldi	r20, 0x1F	; 31
    7716:	58 ef       	ldi	r21, 0xF8	; 248
    7718:	20 e0       	ldi	r18, 0x00	; 0
    771a:	30 e0       	ldi	r19, 0x00	; 0
    771c:	0e e8       	ldi	r16, 0x8E	; 142
    771e:	13 e0       	ldi	r17, 0x03	; 3
    7720:	0e 94 28 2f 	call	0x5e50	; 0x5e50 <TFT_string>
  TFT_string( 0,12,Black,  Black,"                              ");
    7724:	80 e0       	ldi	r24, 0x00	; 0
    7726:	6c e0       	ldi	r22, 0x0C	; 12
    7728:	40 e0       	ldi	r20, 0x00	; 0
    772a:	50 e0       	ldi	r21, 0x00	; 0
    772c:	20 e0       	ldi	r18, 0x00	; 0
    772e:	30 e0       	ldi	r19, 0x00	; 0
    7730:	87 01       	movw	r16, r14
    7732:	0e 94 28 2f 	call	0x5e50	; 0x5e50 <TFT_string>
  TFT_string( 0,14,Cyan,   Black,"    3.2, 240x320      ");
    7736:	80 e0       	ldi	r24, 0x00	; 0
    7738:	6e e0       	ldi	r22, 0x0E	; 14
    773a:	4f ef       	ldi	r20, 0xFF	; 255
    773c:	57 e0       	ldi	r21, 0x07	; 7
    773e:	20 e0       	ldi	r18, 0x00	; 0
    7740:	30 e0       	ldi	r19, 0x00	; 0
    7742:	0d ea       	ldi	r16, 0xAD	; 173
    7744:	13 e0       	ldi	r17, 0x03	; 3
    7746:	0e 94 28 2f 	call	0x5e50	; 0x5e50 <TFT_string>
  TFT_string( 0,16,Yellow, Black,"          65536           ");
    774a:	80 e0       	ldi	r24, 0x00	; 0
    774c:	60 e1       	ldi	r22, 0x10	; 16
    774e:	40 ee       	ldi	r20, 0xE0	; 224
    7750:	5f ef       	ldi	r21, 0xFF	; 255
    7752:	20 e0       	ldi	r18, 0x00	; 0
    7754:	30 e0       	ldi	r19, 0x00	; 0
    7756:	0c ec       	ldi	r16, 0xCC	; 204
    7758:	13 e0       	ldi	r17, 0x03	; 3
    775a:	0e 94 28 2f 	call	0x5e50	; 0x5e50 <TFT_string>
  TFT_string( 0,18,Black,  Black,"                              ");
    775e:	80 e0       	ldi	r24, 0x00	; 0
    7760:	62 e1       	ldi	r22, 0x12	; 18
    7762:	40 e0       	ldi	r20, 0x00	; 0
    7764:	50 e0       	ldi	r21, 0x00	; 0
    7766:	20 e0       	ldi	r18, 0x00	; 0
    7768:	30 e0       	ldi	r19, 0x00	; 0
    776a:	87 01       	movw	r16, r14
    776c:	0e 94 28 2f 	call	0x5e50	; 0x5e50 <TFT_string>
  TFT_string( 0,20,Red,    Black,"    16 CPU      ");
    7770:	80 e0       	ldi	r24, 0x00	; 0
    7772:	64 e1       	ldi	r22, 0x14	; 20
    7774:	40 e0       	ldi	r20, 0x00	; 0
    7776:	58 ef       	ldi	r21, 0xF8	; 248
    7778:	20 e0       	ldi	r18, 0x00	; 0
    777a:	30 e0       	ldi	r19, 0x00	; 0
    777c:	0b ee       	ldi	r16, 0xEB	; 235
    777e:	13 e0       	ldi	r17, 0x03	; 3
    7780:	0e 94 28 2f 	call	0x5e50	; 0x5e50 <TFT_string>
  TFT_string( 0,22,Black,  Black,"                              ");
    7784:	80 e0       	ldi	r24, 0x00	; 0
    7786:	66 e1       	ldi	r22, 0x16	; 22
    7788:	40 e0       	ldi	r20, 0x00	; 0
    778a:	50 e0       	ldi	r21, 0x00	; 0
    778c:	20 e0       	ldi	r18, 0x00	; 0
    778e:	30 e0       	ldi	r19, 0x00	; 0
    7790:	87 01       	movw	r16, r14
    7792:	0e 94 28 2f 	call	0x5e50	; 0x5e50 <TFT_string>
  TFT_string( 0,24,White,  Black,"   / HX8347   ");
    7796:	80 e0       	ldi	r24, 0x00	; 0
    7798:	68 e1       	ldi	r22, 0x18	; 24
    779a:	4f ef       	ldi	r20, 0xFF	; 255
    779c:	5f ef       	ldi	r21, 0xFF	; 255
    779e:	20 e0       	ldi	r18, 0x00	; 0
    77a0:	30 e0       	ldi	r19, 0x00	; 0
    77a2:	0a e0       	ldi	r16, 0x0A	; 10
    77a4:	14 e0       	ldi	r17, 0x04	; 4
    77a6:	0e 94 28 2f 	call	0x5e50	; 0x5e50 <TFT_string>
  TFT_string( 0,26,White,  Black,"         ( Himax)         ");
    77aa:	80 e0       	ldi	r24, 0x00	; 0
    77ac:	6a e1       	ldi	r22, 0x1A	; 26
    77ae:	4f ef       	ldi	r20, 0xFF	; 255
    77b0:	5f ef       	ldi	r21, 0xFF	; 255
    77b2:	20 e0       	ldi	r18, 0x00	; 0
    77b4:	30 e0       	ldi	r19, 0x00	; 0
    77b6:	09 e2       	ldi	r16, 0x29	; 41
    77b8:	14 e0       	ldi	r17, 0x04	; 4
    77ba:	0e 94 28 2f 	call	0x5e50	; 0x5e50 <TFT_string>
  TFT_string( 0,28,Black,  Black,"                              ");
    77be:	80 e0       	ldi	r24, 0x00	; 0
    77c0:	6c e1       	ldi	r22, 0x1C	; 28
    77c2:	40 e0       	ldi	r20, 0x00	; 0
    77c4:	50 e0       	ldi	r21, 0x00	; 0
    77c6:	20 e0       	ldi	r18, 0x00	; 0
    77c8:	30 e0       	ldi	r19, 0x00	; 0
    77ca:	87 01       	movw	r16, r14
    77cc:	0e 94 28 2f 	call	0x5e50	; 0x5e50 <TFT_string>
  TFT_string( 0,30,Red,    Black,"  Red ");
    77d0:	80 e0       	ldi	r24, 0x00	; 0
    77d2:	6e e1       	ldi	r22, 0x1E	; 30
    77d4:	40 e0       	ldi	r20, 0x00	; 0
    77d6:	58 ef       	ldi	r21, 0xF8	; 248
    77d8:	20 e0       	ldi	r18, 0x00	; 0
    77da:	30 e0       	ldi	r19, 0x00	; 0
    77dc:	08 e4       	ldi	r16, 0x48	; 72
    77de:	14 e0       	ldi	r17, 0x04	; 4
    77e0:	0e 94 28 2f 	call	0x5e50	; 0x5e50 <TFT_string>
  TFT_string(10,30,Green,  Black,"  Gre ");
    77e4:	8a e0       	ldi	r24, 0x0A	; 10
    77e6:	6e e1       	ldi	r22, 0x1E	; 30
    77e8:	40 ee       	ldi	r20, 0xE0	; 224
    77ea:	57 e0       	ldi	r21, 0x07	; 7
    77ec:	20 e0       	ldi	r18, 0x00	; 0
    77ee:	30 e0       	ldi	r19, 0x00	; 0
    77f0:	03 e5       	ldi	r16, 0x53	; 83
    77f2:	14 e0       	ldi	r17, 0x04	; 4
    77f4:	0e 94 28 2f 	call	0x5e50	; 0x5e50 <TFT_string>
  TFT_string(20,30,Blue,   Black,"  Blu ");
    77f8:	84 e1       	ldi	r24, 0x14	; 20
    77fa:	6e e1       	ldi	r22, 0x1E	; 30
    77fc:	4f e1       	ldi	r20, 0x1F	; 31
    77fe:	50 e0       	ldi	r21, 0x00	; 0
    7800:	20 e0       	ldi	r18, 0x00	; 0
    7802:	30 e0       	ldi	r19, 0x00	; 0
    7804:	0e e5       	ldi	r16, 0x5E	; 94
    7806:	14 e0       	ldi	r17, 0x04	; 4
    7808:	0e 94 28 2f 	call	0x5e50	; 0x5e50 <TFT_string>
  TFT_string( 0,32,Yellow, Black,"  Yel ");
    780c:	80 e0       	ldi	r24, 0x00	; 0
    780e:	60 e2       	ldi	r22, 0x20	; 32
    7810:	40 ee       	ldi	r20, 0xE0	; 224
    7812:	5f ef       	ldi	r21, 0xFF	; 255
    7814:	20 e0       	ldi	r18, 0x00	; 0
    7816:	30 e0       	ldi	r19, 0x00	; 0
    7818:	09 e6       	ldi	r16, 0x69	; 105
    781a:	14 e0       	ldi	r17, 0x04	; 4
    781c:	0e 94 28 2f 	call	0x5e50	; 0x5e50 <TFT_string>
  TFT_string(10,32,Cyan,   Black,"  Cya ");
    7820:	8a e0       	ldi	r24, 0x0A	; 10
    7822:	60 e2       	ldi	r22, 0x20	; 32
    7824:	4f ef       	ldi	r20, 0xFF	; 255
    7826:	57 e0       	ldi	r21, 0x07	; 7
    7828:	20 e0       	ldi	r18, 0x00	; 0
    782a:	30 e0       	ldi	r19, 0x00	; 0
    782c:	04 e7       	ldi	r16, 0x74	; 116
    782e:	14 e0       	ldi	r17, 0x04	; 4
    7830:	0e 94 28 2f 	call	0x5e50	; 0x5e50 <TFT_string>
  TFT_string(20,32,Magenta,Black,"  Mag ");
    7834:	84 e1       	ldi	r24, 0x14	; 20
    7836:	60 e2       	ldi	r22, 0x20	; 32
    7838:	4f e1       	ldi	r20, 0x1F	; 31
    783a:	58 ef       	ldi	r21, 0xF8	; 248
    783c:	20 e0       	ldi	r18, 0x00	; 0
    783e:	30 e0       	ldi	r19, 0x00	; 0
    7840:	0f e7       	ldi	r16, 0x7F	; 127
    7842:	14 e0       	ldi	r17, 0x04	; 4
    7844:	0e 94 28 2f 	call	0x5e50	; 0x5e50 <TFT_string>
  TFT_string( 0,34,Black,  Black,"                              ");
    7848:	80 e0       	ldi	r24, 0x00	; 0
    784a:	62 e2       	ldi	r22, 0x22	; 34
    784c:	40 e0       	ldi	r20, 0x00	; 0
    784e:	50 e0       	ldi	r21, 0x00	; 0
    7850:	20 e0       	ldi	r18, 0x00	; 0
    7852:	30 e0       	ldi	r19, 0x00	; 0
    7854:	87 01       	movw	r16, r14
    7856:	0e 94 28 2f 	call	0x5e50	; 0x5e50 <TFT_string>
  TFT_string( 0,36,White,  Blue, "  ");
    785a:	80 e0       	ldi	r24, 0x00	; 0
    785c:	64 e2       	ldi	r22, 0x24	; 36
    785e:	4f ef       	ldi	r20, 0xFF	; 255
    7860:	5f ef       	ldi	r21, 0xFF	; 255
    7862:	2f e1       	ldi	r18, 0x1F	; 31
    7864:	30 e0       	ldi	r19, 0x00	; 0
    7866:	0a e8       	ldi	r16, 0x8A	; 138
    7868:	14 e0       	ldi	r17, 0x04	; 4
    786a:	0e 94 28 2f 	call	0x5e50	; 0x5e50 <TFT_string>
  TFT_string( 0,38,Green,  Black,"http://cafe.naver.com/mcu32bit");
    786e:	80 e0       	ldi	r24, 0x00	; 0
    7870:	66 e2       	ldi	r22, 0x26	; 38
    7872:	40 ee       	ldi	r20, 0xE0	; 224
    7874:	57 e0       	ldi	r21, 0x07	; 7
    7876:	20 e0       	ldi	r18, 0x00	; 0
    7878:	30 e0       	ldi	r19, 0x00	; 0
    787a:	09 ea       	ldi	r16, 0xA9	; 169
    787c:	14 e0       	ldi	r17, 0x04	; 4
    787e:	0e 94 28 2f 	call	0x5e50	; 0x5e50 <TFT_string>
  Delay_ms(5000);
    7882:	88 e8       	ldi	r24, 0x88	; 136
    7884:	93 e1       	ldi	r25, 0x13	; 19
    7886:	0e 94 14 25 	call	0x4a28	; 0x4a28 <Delay_ms>

  TFT_clear_screen(); 				// clear screen
    788a:	0e 94 cf 28 	call	0x519e	; 0x519e <TFT_clear_screen>
  TFT_landscape();				// landscape mode
    788e:	0e 94 d7 2a 	call	0x55ae	; 0x55ae <TFT_landscape>

  TFT_string( 0, 0,Green,  Black,"****************************************");
    7892:	a8 ec       	ldi	r26, 0xC8	; 200
    7894:	ea 2e       	mov	r14, r26
    7896:	a4 e0       	ldi	r26, 0x04	; 4
    7898:	fa 2e       	mov	r15, r26
    789a:	80 e0       	ldi	r24, 0x00	; 0
    789c:	60 e0       	ldi	r22, 0x00	; 0
    789e:	40 ee       	ldi	r20, 0xE0	; 224
    78a0:	57 e0       	ldi	r21, 0x07	; 7
    78a2:	20 e0       	ldi	r18, 0x00	; 0
    78a4:	30 e0       	ldi	r19, 0x00	; 0
    78a6:	87 01       	movw	r16, r14
    78a8:	0e 94 28 2f 	call	0x5e50	; 0x5e50 <TFT_string>
  TFT_string( 0, 2,Magenta,Black,"      OK-128TFT   V1.0      ");
    78ac:	80 e0       	ldi	r24, 0x00	; 0
    78ae:	62 e0       	ldi	r22, 0x02	; 2
    78b0:	4f e1       	ldi	r20, 0x1F	; 31
    78b2:	58 ef       	ldi	r21, 0xF8	; 248
    78b4:	20 e0       	ldi	r18, 0x00	; 0
    78b6:	30 e0       	ldi	r19, 0x00	; 0
    78b8:	01 ef       	ldi	r16, 0xF1	; 241
    78ba:	14 e0       	ldi	r17, 0x04	; 4
    78bc:	0e 94 28 2f 	call	0x5e50	; 0x5e50 <TFT_string>
  TFT_string( 0, 4,Cyan,   Black,"          (TFT-32HX  V2.0)          ");
    78c0:	80 e0       	ldi	r24, 0x00	; 0
    78c2:	64 e0       	ldi	r22, 0x04	; 4
    78c4:	4f ef       	ldi	r20, 0xFF	; 255
    78c6:	57 e0       	ldi	r21, 0x07	; 7
    78c8:	20 e0       	ldi	r18, 0x00	; 0
    78ca:	30 e0       	ldi	r19, 0x00	; 0
    78cc:	0a e1       	ldi	r16, 0x1A	; 26
    78ce:	15 e0       	ldi	r17, 0x05	; 5
    78d0:	0e 94 28 2f 	call	0x5e50	; 0x5e50 <TFT_string>
  TFT_string( 0, 6,Green,  Black,"****************************************");
    78d4:	80 e0       	ldi	r24, 0x00	; 0
    78d6:	66 e0       	ldi	r22, 0x06	; 6
    78d8:	40 ee       	ldi	r20, 0xE0	; 224
    78da:	57 e0       	ldi	r21, 0x07	; 7
    78dc:	20 e0       	ldi	r18, 0x00	; 0
    78de:	30 e0       	ldi	r19, 0x00	; 0
    78e0:	87 01       	movw	r16, r14
    78e2:	0e 94 28 2f 	call	0x5e50	; 0x5e50 <TFT_string>
  TFT_string( 0, 8,Black,  Black,"                                        ");
    78e6:	f3 e4       	ldi	r31, 0x43	; 67
    78e8:	ef 2e       	mov	r14, r31
    78ea:	f5 e0       	ldi	r31, 0x05	; 5
    78ec:	ff 2e       	mov	r15, r31
    78ee:	80 e0       	ldi	r24, 0x00	; 0
    78f0:	68 e0       	ldi	r22, 0x08	; 8
    78f2:	40 e0       	ldi	r20, 0x00	; 0
    78f4:	50 e0       	ldi	r21, 0x00	; 0
    78f6:	20 e0       	ldi	r18, 0x00	; 0
    78f8:	30 e0       	ldi	r19, 0x00	; 0
    78fa:	87 01       	movw	r16, r14
    78fc:	0e 94 28 2f 	call	0x5e50	; 0x5e50 <TFT_string>
  TFT_string( 0,10,Magenta,Black,"      (  = Landscape)     ");
    7900:	80 e0       	ldi	r24, 0x00	; 0
    7902:	6a e0       	ldi	r22, 0x0A	; 10
    7904:	4f e1       	ldi	r20, 0x1F	; 31
    7906:	58 ef       	ldi	r21, 0xF8	; 248
    7908:	20 e0       	ldi	r18, 0x00	; 0
    790a:	30 e0       	ldi	r19, 0x00	; 0
    790c:	0c e6       	ldi	r16, 0x6C	; 108
    790e:	15 e0       	ldi	r17, 0x05	; 5
    7910:	0e 94 28 2f 	call	0x5e50	; 0x5e50 <TFT_string>
  TFT_string( 0,12,Black,  Black,"                                        ");
    7914:	80 e0       	ldi	r24, 0x00	; 0
    7916:	6c e0       	ldi	r22, 0x0C	; 12
    7918:	40 e0       	ldi	r20, 0x00	; 0
    791a:	50 e0       	ldi	r21, 0x00	; 0
    791c:	20 e0       	ldi	r18, 0x00	; 0
    791e:	30 e0       	ldi	r19, 0x00	; 0
    7920:	87 01       	movw	r16, r14
    7922:	0e 94 28 2f 	call	0x5e50	; 0x5e50 <TFT_string>
  TFT_string( 0,14,Cyan,   Black,"    3.2, 240x320 , 65536    ");
    7926:	80 e0       	ldi	r24, 0x00	; 0
    7928:	6e e0       	ldi	r22, 0x0E	; 14
    792a:	4f ef       	ldi	r20, 0xFF	; 255
    792c:	57 e0       	ldi	r21, 0x07	; 7
    792e:	20 e0       	ldi	r18, 0x00	; 0
    7930:	30 e0       	ldi	r19, 0x00	; 0
    7932:	05 e9       	ldi	r16, 0x95	; 149
    7934:	15 e0       	ldi	r17, 0x05	; 5
    7936:	0e 94 28 2f 	call	0x5e50	; 0x5e50 <TFT_string>
  TFT_string( 0,16,White,  Black,"  / HX8347( Himax)  ");
    793a:	80 e0       	ldi	r24, 0x00	; 0
    793c:	60 e1       	ldi	r22, 0x10	; 16
    793e:	4f ef       	ldi	r20, 0xFF	; 255
    7940:	5f ef       	ldi	r21, 0xFF	; 255
    7942:	20 e0       	ldi	r18, 0x00	; 0
    7944:	30 e0       	ldi	r19, 0x00	; 0
    7946:	0e eb       	ldi	r16, 0xBE	; 190
    7948:	15 e0       	ldi	r17, 0x05	; 5
    794a:	0e 94 28 2f 	call	0x5e50	; 0x5e50 <TFT_string>
  TFT_string( 0,18,Black,  Black,"                                        ");
    794e:	80 e0       	ldi	r24, 0x00	; 0
    7950:	62 e1       	ldi	r22, 0x12	; 18
    7952:	40 e0       	ldi	r20, 0x00	; 0
    7954:	50 e0       	ldi	r21, 0x00	; 0
    7956:	20 e0       	ldi	r18, 0x00	; 0
    7958:	30 e0       	ldi	r19, 0x00	; 0
    795a:	87 01       	movw	r16, r14
    795c:	0e 94 28 2f 	call	0x5e50	; 0x5e50 <TFT_string>
  TFT_string( 0,20,Red,    Black,"  Red    ");
    7960:	80 e0       	ldi	r24, 0x00	; 0
    7962:	64 e1       	ldi	r22, 0x14	; 20
    7964:	40 e0       	ldi	r20, 0x00	; 0
    7966:	58 ef       	ldi	r21, 0xF8	; 248
    7968:	20 e0       	ldi	r18, 0x00	; 0
    796a:	30 e0       	ldi	r19, 0x00	; 0
    796c:	07 ee       	ldi	r16, 0xE7	; 231
    796e:	15 e0       	ldi	r17, 0x05	; 5
    7970:	0e 94 28 2f 	call	0x5e50	; 0x5e50 <TFT_string>
  TFT_string(13,20,Green,  Black,"  Green  ");
    7974:	8d e0       	ldi	r24, 0x0D	; 13
    7976:	64 e1       	ldi	r22, 0x14	; 20
    7978:	40 ee       	ldi	r20, 0xE0	; 224
    797a:	57 e0       	ldi	r21, 0x07	; 7
    797c:	20 e0       	ldi	r18, 0x00	; 0
    797e:	30 e0       	ldi	r19, 0x00	; 0
    7980:	05 ef       	ldi	r16, 0xF5	; 245
    7982:	15 e0       	ldi	r17, 0x05	; 5
    7984:	0e 94 28 2f 	call	0x5e50	; 0x5e50 <TFT_string>
  TFT_string(26,20,Blue,   Black,"  Blue    ");
    7988:	8a e1       	ldi	r24, 0x1A	; 26
    798a:	64 e1       	ldi	r22, 0x14	; 20
    798c:	4f e1       	ldi	r20, 0x1F	; 31
    798e:	50 e0       	ldi	r21, 0x00	; 0
    7990:	20 e0       	ldi	r18, 0x00	; 0
    7992:	30 e0       	ldi	r19, 0x00	; 0
    7994:	03 e0       	ldi	r16, 0x03	; 3
    7996:	16 e0       	ldi	r17, 0x06	; 6
    7998:	0e 94 28 2f 	call	0x5e50	; 0x5e50 <TFT_string>
  TFT_string( 0,22,Yellow, Black,"  Yellow ");
    799c:	80 e0       	ldi	r24, 0x00	; 0
    799e:	66 e1       	ldi	r22, 0x16	; 22
    79a0:	40 ee       	ldi	r20, 0xE0	; 224
    79a2:	5f ef       	ldi	r21, 0xFF	; 255
    79a4:	20 e0       	ldi	r18, 0x00	; 0
    79a6:	30 e0       	ldi	r19, 0x00	; 0
    79a8:	02 e1       	ldi	r16, 0x12	; 18
    79aa:	16 e0       	ldi	r17, 0x06	; 6
    79ac:	0e 94 28 2f 	call	0x5e50	; 0x5e50 <TFT_string>
  TFT_string(13,22,Cyan,   Black,"  Cyan   ");
    79b0:	8d e0       	ldi	r24, 0x0D	; 13
    79b2:	66 e1       	ldi	r22, 0x16	; 22
    79b4:	4f ef       	ldi	r20, 0xFF	; 255
    79b6:	57 e0       	ldi	r21, 0x07	; 7
    79b8:	20 e0       	ldi	r18, 0x00	; 0
    79ba:	30 e0       	ldi	r19, 0x00	; 0
    79bc:	00 e2       	ldi	r16, 0x20	; 32
    79be:	16 e0       	ldi	r17, 0x06	; 6
    79c0:	0e 94 28 2f 	call	0x5e50	; 0x5e50 <TFT_string>
  TFT_string(26,22,Magenta,Black,"  Magenta ");
    79c4:	8a e1       	ldi	r24, 0x1A	; 26
    79c6:	66 e1       	ldi	r22, 0x16	; 22
    79c8:	4f e1       	ldi	r20, 0x1F	; 31
    79ca:	58 ef       	ldi	r21, 0xF8	; 248
    79cc:	20 e0       	ldi	r18, 0x00	; 0
    79ce:	30 e0       	ldi	r19, 0x00	; 0
    79d0:	0e e2       	ldi	r16, 0x2E	; 46
    79d2:	16 e0       	ldi	r17, 0x06	; 6
    79d4:	0e 94 28 2f 	call	0x5e50	; 0x5e50 <TFT_string>
  TFT_string( 0,24,Black,  Black,"                                        ");
    79d8:	80 e0       	ldi	r24, 0x00	; 0
    79da:	68 e1       	ldi	r22, 0x18	; 24
    79dc:	40 e0       	ldi	r20, 0x00	; 0
    79de:	50 e0       	ldi	r21, 0x00	; 0
    79e0:	20 e0       	ldi	r18, 0x00	; 0
    79e2:	30 e0       	ldi	r19, 0x00	; 0
    79e4:	87 01       	movw	r16, r14
    79e6:	0e 94 28 2f 	call	0x5e50	; 0x5e50 <TFT_string>
  TFT_string( 0,26,White,  Blue, "            ");
    79ea:	80 e0       	ldi	r24, 0x00	; 0
    79ec:	6a e1       	ldi	r22, 0x1A	; 26
    79ee:	4f ef       	ldi	r20, 0xFF	; 255
    79f0:	5f ef       	ldi	r21, 0xFF	; 255
    79f2:	2f e1       	ldi	r18, 0x1F	; 31
    79f4:	30 e0       	ldi	r19, 0x00	; 0
    79f6:	0d e3       	ldi	r16, 0x3D	; 61
    79f8:	16 e0       	ldi	r17, 0x06	; 6
    79fa:	0e 94 28 2f 	call	0x5e50	; 0x5e50 <TFT_string>
  TFT_string( 0,28,Green,  Black,"    (http://cafe.naver.com/mcu32bit)    ");
    79fe:	80 e0       	ldi	r24, 0x00	; 0
    7a00:	6c e1       	ldi	r22, 0x1C	; 28
    7a02:	40 ee       	ldi	r20, 0xE0	; 224
    7a04:	57 e0       	ldi	r21, 0x07	; 7
    7a06:	20 e0       	ldi	r18, 0x00	; 0
    7a08:	30 e0       	ldi	r19, 0x00	; 0
    7a0a:	06 e6       	ldi	r16, 0x66	; 102
    7a0c:	16 e0       	ldi	r17, 0x06	; 6
    7a0e:	0e 94 28 2f 	call	0x5e50	; 0x5e50 <TFT_string>
  Delay_ms(5000);
    7a12:	88 e8       	ldi	r24, 0x88	; 136
    7a14:	93 e1       	ldi	r25, 0x13	; 19
    7a16:	0e 94 14 25 	call	0x4a28	; 0x4a28 <Delay_ms>
}
    7a1a:	1f 91       	pop	r17
    7a1c:	0f 91       	pop	r16
    7a1e:	ff 90       	pop	r15
    7a20:	ef 90       	pop	r14
    7a22:	08 95       	ret

00007a24 <Test4>:
}

/* ---------------------------------------------------------------------------- */

void Test4(void)				/* Test 4 */
{
    7a24:	cf 92       	push	r12
    7a26:	df 92       	push	r13
    7a28:	ef 92       	push	r14
    7a2a:	ff 92       	push	r15
    7a2c:	0f 93       	push	r16
    7a2e:	1f 93       	push	r17
    7a30:	cf 93       	push	r28
    7a32:	df 93       	push	r29
  unsigned char i;

  TFT_clear_screen();				// clear screen
    7a34:	0e 94 cf 28 	call	0x519e	; 0x519e <TFT_clear_screen>
  TFT_portrait();				// portrait mode
    7a38:	0e 94 a0 2a 	call	0x5540	; 0x5540 <TFT_portrait>

  Rectangle(0,0, 239,319, Green);		// display title
    7a3c:	80 e0       	ldi	r24, 0x00	; 0
    7a3e:	90 e0       	ldi	r25, 0x00	; 0
    7a40:	60 e0       	ldi	r22, 0x00	; 0
    7a42:	70 e0       	ldi	r23, 0x00	; 0
    7a44:	4f ee       	ldi	r20, 0xEF	; 239
    7a46:	50 e0       	ldi	r21, 0x00	; 0
    7a48:	2f e3       	ldi	r18, 0x3F	; 63
    7a4a:	31 e0       	ldi	r19, 0x01	; 1
    7a4c:	00 ee       	ldi	r16, 0xE0	; 224
    7a4e:	17 e0       	ldi	r17, 0x07	; 7
    7a50:	0e 94 14 33 	call	0x6628	; 0x6628 <Rectangle>
  Rectangle(1,1, 238,318, Green);
    7a54:	81 e0       	ldi	r24, 0x01	; 1
    7a56:	90 e0       	ldi	r25, 0x00	; 0
    7a58:	61 e0       	ldi	r22, 0x01	; 1
    7a5a:	70 e0       	ldi	r23, 0x00	; 0
    7a5c:	4e ee       	ldi	r20, 0xEE	; 238
    7a5e:	50 e0       	ldi	r21, 0x00	; 0
    7a60:	2e e3       	ldi	r18, 0x3E	; 62
    7a62:	31 e0       	ldi	r19, 0x01	; 1
    7a64:	0e 94 14 33 	call	0x6628	; 0x6628 <Rectangle>
  Rectangle(2,2, 237,317, Green);
    7a68:	82 e0       	ldi	r24, 0x02	; 2
    7a6a:	90 e0       	ldi	r25, 0x00	; 0
    7a6c:	62 e0       	ldi	r22, 0x02	; 2
    7a6e:	70 e0       	ldi	r23, 0x00	; 0
    7a70:	4d ee       	ldi	r20, 0xED	; 237
    7a72:	50 e0       	ldi	r21, 0x00	; 0
    7a74:	2d e3       	ldi	r18, 0x3D	; 61
    7a76:	31 e0       	ldi	r19, 0x01	; 1
    7a78:	0e 94 14 33 	call	0x6628	; 0x6628 <Rectangle>

  TFT_string(4,7,Green,Magenta,"(4)   ");
    7a7c:	84 e0       	ldi	r24, 0x04	; 4
    7a7e:	67 e0       	ldi	r22, 0x07	; 7
    7a80:	40 ee       	ldi	r20, 0xE0	; 224
    7a82:	57 e0       	ldi	r21, 0x07	; 7
    7a84:	2f e1       	ldi	r18, 0x1F	; 31
    7a86:	38 ef       	ldi	r19, 0xF8	; 248
    7a88:	0f e8       	ldi	r16, 0x8F	; 143
    7a8a:	16 e0       	ldi	r17, 0x06	; 6
    7a8c:	0e 94 28 2f 	call	0x5e50	; 0x5e50 <TFT_string>

  Initialize_touch_screen();			// initialize touch screen
    7a90:	0e 94 2f 35 	call	0x6a5e	; 0x6a5e <Initialize_touch_screen>

  if(touch_flag == 'A')
    7a94:	80 91 51 0b 	lds	r24, 0x0B51
    7a98:	81 34       	cpi	r24, 0x41	; 65
    7a9a:	49 f4       	brne	.+18     	; 0x7aae <Test4+0x8a>
    TFT_string(11,10,Green,Black,"ADS7846");
    7a9c:	8b e0       	ldi	r24, 0x0B	; 11
    7a9e:	6a e0       	ldi	r22, 0x0A	; 10
    7aa0:	40 ee       	ldi	r20, 0xE0	; 224
    7aa2:	57 e0       	ldi	r21, 0x07	; 7
    7aa4:	20 e0       	ldi	r18, 0x00	; 0
    7aa6:	30 e0       	ldi	r19, 0x00	; 0
    7aa8:	06 ea       	ldi	r16, 0xA6	; 166
    7aaa:	16 e0       	ldi	r17, 0x06	; 6
    7aac:	08 c0       	rjmp	.+16     	; 0x7abe <Test4+0x9a>
  else
    TFT_string(11,10,Green,Black,"TSC2003");
    7aae:	8b e0       	ldi	r24, 0x0B	; 11
    7ab0:	6a e0       	ldi	r22, 0x0A	; 10
    7ab2:	40 ee       	ldi	r20, 0xE0	; 224
    7ab4:	57 e0       	ldi	r21, 0x07	; 7
    7ab6:	20 e0       	ldi	r18, 0x00	; 0
    7ab8:	30 e0       	ldi	r19, 0x00	; 0
    7aba:	0e ea       	ldi	r16, 0xAE	; 174
    7abc:	16 e0       	ldi	r17, 0x06	; 6
    7abe:	0e 94 28 2f 	call	0x5e50	; 0x5e50 <TFT_string>

  TFT_string( 1, 1,Cyan,   Black,"(0,0)");
    7ac2:	81 e0       	ldi	r24, 0x01	; 1
    7ac4:	61 e0       	ldi	r22, 0x01	; 1
    7ac6:	4f ef       	ldi	r20, 0xFF	; 255
    7ac8:	57 e0       	ldi	r21, 0x07	; 7
    7aca:	20 e0       	ldi	r18, 0x00	; 0
    7acc:	30 e0       	ldi	r19, 0x00	; 0
    7ace:	06 eb       	ldi	r16, 0xB6	; 182
    7ad0:	16 e0       	ldi	r17, 0x06	; 6
    7ad2:	0e 94 28 2f 	call	0x5e50	; 0x5e50 <TFT_string>
  TFT_string(22, 1,Cyan,   Black,"(239,0)");
    7ad6:	86 e1       	ldi	r24, 0x16	; 22
    7ad8:	61 e0       	ldi	r22, 0x01	; 1
    7ada:	4f ef       	ldi	r20, 0xFF	; 255
    7adc:	57 e0       	ldi	r21, 0x07	; 7
    7ade:	20 e0       	ldi	r18, 0x00	; 0
    7ae0:	30 e0       	ldi	r19, 0x00	; 0
    7ae2:	0c eb       	ldi	r16, 0xBC	; 188
    7ae4:	16 e0       	ldi	r17, 0x06	; 6
    7ae6:	0e 94 28 2f 	call	0x5e50	; 0x5e50 <TFT_string>
  TFT_string( 1,37,Cyan,   Black,"(0,319)");
    7aea:	81 e0       	ldi	r24, 0x01	; 1
    7aec:	65 e2       	ldi	r22, 0x25	; 37
    7aee:	4f ef       	ldi	r20, 0xFF	; 255
    7af0:	57 e0       	ldi	r21, 0x07	; 7
    7af2:	20 e0       	ldi	r18, 0x00	; 0
    7af4:	30 e0       	ldi	r19, 0x00	; 0
    7af6:	04 ec       	ldi	r16, 0xC4	; 196
    7af8:	16 e0       	ldi	r17, 0x06	; 6
    7afa:	0e 94 28 2f 	call	0x5e50	; 0x5e50 <TFT_string>
  TFT_string(20,37,Cyan,   Black,"(239,319)");
    7afe:	84 e1       	ldi	r24, 0x14	; 20
    7b00:	65 e2       	ldi	r22, 0x25	; 37
    7b02:	4f ef       	ldi	r20, 0xFF	; 255
    7b04:	57 e0       	ldi	r21, 0x07	; 7
    7b06:	20 e0       	ldi	r18, 0x00	; 0
    7b08:	30 e0       	ldi	r19, 0x00	; 0
    7b0a:	0c ec       	ldi	r16, 0xCC	; 204
    7b0c:	16 e0       	ldi	r17, 0x06	; 6
    7b0e:	0e 94 28 2f 	call	0x5e50	; 0x5e50 <TFT_string>

  TFT_string( 2,16,Cyan,   Black,"    ");
    7b12:	82 e0       	ldi	r24, 0x02	; 2
    7b14:	60 e1       	ldi	r22, 0x10	; 16
    7b16:	4f ef       	ldi	r20, 0xFF	; 255
    7b18:	57 e0       	ldi	r21, 0x07	; 7
    7b1a:	20 e0       	ldi	r18, 0x00	; 0
    7b1c:	30 e0       	ldi	r19, 0x00	; 0
    7b1e:	06 ed       	ldi	r16, 0xD6	; 214
    7b20:	16 e0       	ldi	r17, 0x06	; 6
    7b22:	0e 94 28 2f 	call	0x5e50	; 0x5e50 <TFT_string>
  TFT_string(16,16,Magenta,Black,              " x = 0000   ");
    7b26:	80 e1       	ldi	r24, 0x10	; 16
    7b28:	60 e1       	ldi	r22, 0x10	; 16
    7b2a:	4f e1       	ldi	r20, 0x1F	; 31
    7b2c:	58 ef       	ldi	r21, 0xF8	; 248
    7b2e:	20 e0       	ldi	r18, 0x00	; 0
    7b30:	30 e0       	ldi	r19, 0x00	; 0
    7b32:	05 ee       	ldi	r16, 0xE5	; 229
    7b34:	16 e0       	ldi	r17, 0x06	; 6
    7b36:	0e 94 28 2f 	call	0x5e50	; 0x5e50 <TFT_string>
  TFT_string( 2,18,Magenta,Black,"               y = 0000   ");
    7b3a:	82 e0       	ldi	r24, 0x02	; 2
    7b3c:	62 e1       	ldi	r22, 0x12	; 18
    7b3e:	4f e1       	ldi	r20, 0x1F	; 31
    7b40:	58 ef       	ldi	r21, 0xF8	; 248
    7b42:	20 e0       	ldi	r18, 0x00	; 0
    7b44:	30 e0       	ldi	r19, 0x00	; 0
    7b46:	02 ef       	ldi	r16, 0xF2	; 242
    7b48:	16 e0       	ldi	r17, 0x06	; 6
    7b4a:	0e 94 28 2f 	call	0x5e50	; 0x5e50 <TFT_string>
  TFT_string( 2,22,Cyan,   Black,"    ");
    7b4e:	82 e0       	ldi	r24, 0x02	; 2
    7b50:	66 e1       	ldi	r22, 0x16	; 22
    7b52:	4f ef       	ldi	r20, 0xFF	; 255
    7b54:	57 e0       	ldi	r21, 0x07	; 7
    7b56:	20 e0       	ldi	r18, 0x00	; 0
    7b58:	30 e0       	ldi	r19, 0x00	; 0
    7b5a:	0d e0       	ldi	r16, 0x0D	; 13
    7b5c:	17 e0       	ldi	r17, 0x07	; 7
    7b5e:	0e 94 28 2f 	call	0x5e50	; 0x5e50 <TFT_string>
  TFT_string(16,22,Magenta,Black,              " x = 000    ");
    7b62:	80 e1       	ldi	r24, 0x10	; 16
    7b64:	66 e1       	ldi	r22, 0x16	; 22
    7b66:	4f e1       	ldi	r20, 0x1F	; 31
    7b68:	58 ef       	ldi	r21, 0xF8	; 248
    7b6a:	20 e0       	ldi	r18, 0x00	; 0
    7b6c:	30 e0       	ldi	r19, 0x00	; 0
    7b6e:	0c e1       	ldi	r16, 0x1C	; 28
    7b70:	17 e0       	ldi	r17, 0x07	; 7
    7b72:	0e 94 28 2f 	call	0x5e50	; 0x5e50 <TFT_string>
  TFT_string( 2,24,Magenta,Black,"               y = 000    ");
    7b76:	82 e0       	ldi	r24, 0x02	; 2
    7b78:	68 e1       	ldi	r22, 0x18	; 24
    7b7a:	4f e1       	ldi	r20, 0x1F	; 31
    7b7c:	58 ef       	ldi	r21, 0xF8	; 248
    7b7e:	20 e0       	ldi	r18, 0x00	; 0
    7b80:	30 e0       	ldi	r19, 0x00	; 0
    7b82:	09 e2       	ldi	r16, 0x29	; 41
    7b84:	17 e0       	ldi	r17, 0x07	; 7
    7b86:	0e 94 28 2f 	call	0x5e50	; 0x5e50 <TFT_string>
  TFT_string(12,30,White,  Blue, "");
    7b8a:	8c e0       	ldi	r24, 0x0C	; 12
    7b8c:	6e e1       	ldi	r22, 0x1E	; 30
    7b8e:	4f ef       	ldi	r20, 0xFF	; 255
    7b90:	5f ef       	ldi	r21, 0xFF	; 255
    7b92:	2f e1       	ldi	r18, 0x1F	; 31
    7b94:	30 e0       	ldi	r19, 0x00	; 0
    7b96:	04 e4       	ldi	r16, 0x44	; 68
    7b98:	17 e0       	ldi	r17, 0x07	; 7
    7b9a:	0e 94 28 2f 	call	0x5e50	; 0x5e50 <TFT_string>

  TFT_string( 6,35,White,  Black,  " ! ");
    7b9e:	86 e0       	ldi	r24, 0x06	; 6
    7ba0:	63 e2       	ldi	r22, 0x23	; 35
    7ba2:	4f ef       	ldi	r20, 0xFF	; 255
    7ba4:	5f ef       	ldi	r21, 0xFF	; 255
    7ba6:	20 e0       	ldi	r18, 0x00	; 0
    7ba8:	30 e0       	ldi	r19, 0x00	; 0
    7baa:	0b e4       	ldi	r16, 0x4B	; 75
    7bac:	17 e0       	ldi	r17, 0x07	; 7
    7bae:	0e 94 28 2f 	call	0x5e50	; 0x5e50 <TFT_string>
  Beep();
    7bb2:	0e 94 31 25 	call	0x4a62	; 0x4a62 <Beep>
    7bb6:	10 e0       	ldi	r17, 0x00	; 0
  Ycharacter = yChar;
}

void TFT_color(U16 colorfore, U16 colorback)	/* set foreground and background color */
{
  foreground = colorfore;
    7bb8:	cf ef       	ldi	r28, 0xFF	; 255
    7bba:	d7 e0       	ldi	r29, 0x07	; 7
  TFT_command(0x22);
}

void TFT_xy(U08 xChar, U08 yChar)		/* set character position (x,y) */
{
  Xcharacter = xChar;
    7bbc:	05 e1       	ldi	r16, 0x15	; 21
  Ycharacter = yChar;
    7bbe:	30 e1       	ldi	r19, 0x10	; 16
    7bc0:	c3 2e       	mov	r12, r19

  for(i = 0; i < 100; i++)			// 10 sec
    { Touch_screen_input();			// input touch screen
    7bc2:	22 e1       	ldi	r18, 0x12	; 18
    7bc4:	d2 2e       	mov	r13, r18
    7bc6:	96 e1       	ldi	r25, 0x16	; 22
    7bc8:	e9 2e       	mov	r14, r25
    7bca:	88 e1       	ldi	r24, 0x18	; 24
    7bcc:	f8 2e       	mov	r15, r24
    7bce:	0e 94 04 36 	call	0x6c08	; 0x6c08 <Touch_screen_input>
}

void TFT_color(U16 colorfore, U16 colorback)	/* set foreground and background color */
{
  foreground = colorfore;
    7bd2:	d0 93 50 0b 	sts	0x0B50, r29
    7bd6:	c0 93 4f 0b 	sts	0x0B4F, r28
  background = colorback;
    7bda:	10 92 56 0b 	sts	0x0B56, r1
    7bde:	10 92 55 0b 	sts	0x0B55, r1
  TFT_command(0x22);
}

void TFT_xy(U08 xChar, U08 yChar)		/* set character position (x,y) */
{
  Xcharacter = xChar;
    7be2:	00 93 3c 0c 	sts	0x0C3C, r16
  Ycharacter = yChar;
    7be6:	c0 92 45 0b 	sts	0x0B45, r12

      TFT_color(Cyan,Black);
      TFT_xy(21,16);				// display 12-bit original X data
      TFT_unsigned_decimal(x_12bit,0,4);
    7bea:	60 91 3d 0c 	lds	r22, 0x0C3D
    7bee:	70 91 3e 0c 	lds	r23, 0x0C3E
    7bf2:	80 e0       	ldi	r24, 0x00	; 0
    7bf4:	90 e0       	ldi	r25, 0x00	; 0
    7bf6:	40 e0       	ldi	r20, 0x00	; 0
    7bf8:	24 e0       	ldi	r18, 0x04	; 4
    7bfa:	0e 94 6d 2f 	call	0x5eda	; 0x5eda <TFT_unsigned_decimal>
  TFT_command(0x22);
}

void TFT_xy(U08 xChar, U08 yChar)		/* set character position (x,y) */
{
  Xcharacter = xChar;
    7bfe:	00 93 3c 0c 	sts	0x0C3C, r16
  Ycharacter = yChar;
    7c02:	d0 92 45 0b 	sts	0x0B45, r13
      TFT_xy(21,18);				// display 12-bit original Y data
      TFT_unsigned_decimal(y_12bit,0,4);
    7c06:	60 91 58 0b 	lds	r22, 0x0B58
    7c0a:	70 91 59 0b 	lds	r23, 0x0B59
    7c0e:	80 e0       	ldi	r24, 0x00	; 0
    7c10:	90 e0       	ldi	r25, 0x00	; 0
    7c12:	40 e0       	ldi	r20, 0x00	; 0
    7c14:	24 e0       	ldi	r18, 0x04	; 4
    7c16:	0e 94 6d 2f 	call	0x5eda	; 0x5eda <TFT_unsigned_decimal>
  TFT_command(0x22);
}

void TFT_xy(U08 xChar, U08 yChar)		/* set character position (x,y) */
{
  Xcharacter = xChar;
    7c1a:	00 93 3c 0c 	sts	0x0C3C, r16
  Ycharacter = yChar;
    7c1e:	e0 92 45 0b 	sts	0x0B45, r14
      TFT_xy(21,22);				// display pixel X data
      TFT_unsigned_decimal(x_touch,0,3);
    7c22:	60 91 5d 0b 	lds	r22, 0x0B5D
    7c26:	70 91 5e 0b 	lds	r23, 0x0B5E
    7c2a:	80 e0       	ldi	r24, 0x00	; 0
    7c2c:	90 e0       	ldi	r25, 0x00	; 0
    7c2e:	40 e0       	ldi	r20, 0x00	; 0
    7c30:	23 e0       	ldi	r18, 0x03	; 3
    7c32:	0e 94 6d 2f 	call	0x5eda	; 0x5eda <TFT_unsigned_decimal>
  TFT_command(0x22);
}

void TFT_xy(U08 xChar, U08 yChar)		/* set character position (x,y) */
{
  Xcharacter = xChar;
    7c36:	00 93 3c 0c 	sts	0x0C3C, r16
  Ycharacter = yChar;
    7c3a:	f0 92 45 0b 	sts	0x0B45, r15
      TFT_xy(21,24);				// display pixel Y data
      TFT_unsigned_decimal(y_touch,0,3);
    7c3e:	60 91 38 0c 	lds	r22, 0x0C38
    7c42:	70 91 39 0c 	lds	r23, 0x0C39
    7c46:	80 e0       	ldi	r24, 0x00	; 0
    7c48:	90 e0       	ldi	r25, 0x00	; 0
    7c4a:	40 e0       	ldi	r20, 0x00	; 0
    7c4c:	23 e0       	ldi	r18, 0x03	; 3
    7c4e:	0e 94 6d 2f 	call	0x5eda	; 0x5eda <TFT_unsigned_decimal>

      if((x_touch >= 96) && (x_touch <= 143) && (y_touch >= 235) && (y_touch <= 255))
    7c52:	80 91 5d 0b 	lds	r24, 0x0B5D
    7c56:	90 91 5e 0b 	lds	r25, 0x0B5E
    7c5a:	80 56       	subi	r24, 0x60	; 96
    7c5c:	90 40       	sbci	r25, 0x00	; 0
    7c5e:	c0 97       	sbiw	r24, 0x30	; 48
    7c60:	88 f4       	brcc	.+34     	; 0x7c84 <Test4+0x260>
    7c62:	80 91 38 0c 	lds	r24, 0x0C38
    7c66:	90 91 39 0c 	lds	r25, 0x0C39
    7c6a:	8b 3e       	cpi	r24, 0xEB	; 235
    7c6c:	91 05       	cpc	r25, r1
    7c6e:	50 f0       	brcs	.+20     	; 0x7c84 <Test4+0x260>
    7c70:	8f 3f       	cpi	r24, 0xFF	; 255
    7c72:	91 05       	cpc	r25, r1
    7c74:	09 f0       	breq	.+2      	; 0x7c78 <Test4+0x254>
    7c76:	30 f4       	brcc	.+12     	; 0x7c84 <Test4+0x260>
        { Beep();
    7c78:	0e 94 31 25 	call	0x4a62	; 0x4a62 <Beep>
          Delay_ms(200);
    7c7c:	88 ec       	ldi	r24, 0xC8	; 200
    7c7e:	90 e0       	ldi	r25, 0x00	; 0
    7c80:	0e 94 14 25 	call	0x4a28	; 0x4a28 <Delay_ms>
        }
   
      Delay_ms(50);
    7c84:	82 e3       	ldi	r24, 0x32	; 50
    7c86:	90 e0       	ldi	r25, 0x00	; 0
    7c88:	0e 94 14 25 	call	0x4a28	; 0x4a28 <Delay_ms>
  TFT_string(12,30,White,  Blue, "");

  TFT_string( 6,35,White,  Black,  " ! ");
  Beep();

  for(i = 0; i < 100; i++)			// 10 sec
    7c8c:	1f 5f       	subi	r17, 0xFF	; 255
    7c8e:	14 36       	cpi	r17, 0x64	; 100
    7c90:	09 f0       	breq	.+2      	; 0x7c94 <Test4+0x270>
    7c92:	9d cf       	rjmp	.-198    	; 0x7bce <Test4+0x1aa>
          Delay_ms(200);
        }
   
      Delay_ms(50);
    }
}
    7c94:	df 91       	pop	r29
    7c96:	cf 91       	pop	r28
    7c98:	1f 91       	pop	r17
    7c9a:	0f 91       	pop	r16
    7c9c:	ff 90       	pop	r15
    7c9e:	ef 90       	pop	r14
    7ca0:	df 90       	pop	r13
    7ca2:	cf 90       	pop	r12
    7ca4:	08 95       	ret

00007ca6 <Test5>:

/* ---------------------------------------------------------------------------- */

void Test5(void)				/* Test 5 */
{
    7ca6:	ff 92       	push	r15
    7ca8:	0f 93       	push	r16
    7caa:	1f 93       	push	r17
  unsigned char i;

  TFT_clear_screen();				// clear screen
    7cac:	0e 94 cf 28 	call	0x519e	; 0x519e <TFT_clear_screen>
  TFT_portrait();				// portrait mode
    7cb0:	0e 94 a0 2a 	call	0x5540	; 0x5540 <TFT_portrait>

  Rectangle(0,0, 239,319, Green);		// display title
    7cb4:	80 e0       	ldi	r24, 0x00	; 0
    7cb6:	90 e0       	ldi	r25, 0x00	; 0
    7cb8:	60 e0       	ldi	r22, 0x00	; 0
    7cba:	70 e0       	ldi	r23, 0x00	; 0
    7cbc:	4f ee       	ldi	r20, 0xEF	; 239
    7cbe:	50 e0       	ldi	r21, 0x00	; 0
    7cc0:	2f e3       	ldi	r18, 0x3F	; 63
    7cc2:	31 e0       	ldi	r19, 0x01	; 1
    7cc4:	00 ee       	ldi	r16, 0xE0	; 224
    7cc6:	17 e0       	ldi	r17, 0x07	; 7
    7cc8:	0e 94 14 33 	call	0x6628	; 0x6628 <Rectangle>
  Rectangle(1,1, 238,318, Green);
    7ccc:	81 e0       	ldi	r24, 0x01	; 1
    7cce:	90 e0       	ldi	r25, 0x00	; 0
    7cd0:	61 e0       	ldi	r22, 0x01	; 1
    7cd2:	70 e0       	ldi	r23, 0x00	; 0
    7cd4:	4e ee       	ldi	r20, 0xEE	; 238
    7cd6:	50 e0       	ldi	r21, 0x00	; 0
    7cd8:	2e e3       	ldi	r18, 0x3E	; 62
    7cda:	31 e0       	ldi	r19, 0x01	; 1
    7cdc:	0e 94 14 33 	call	0x6628	; 0x6628 <Rectangle>
  Rectangle(2,2, 237,317, Green);
    7ce0:	82 e0       	ldi	r24, 0x02	; 2
    7ce2:	90 e0       	ldi	r25, 0x00	; 0
    7ce4:	62 e0       	ldi	r22, 0x02	; 2
    7ce6:	70 e0       	ldi	r23, 0x00	; 0
    7ce8:	4d ee       	ldi	r20, 0xED	; 237
    7cea:	50 e0       	ldi	r21, 0x00	; 0
    7cec:	2d e3       	ldi	r18, 0x3D	; 61
    7cee:	31 e0       	ldi	r19, 0x01	; 1
    7cf0:	0e 94 14 33 	call	0x6628	; 0x6628 <Rectangle>
  TFT_string(3,10,Green,Magenta,"(5) LED/  ");
    7cf4:	83 e0       	ldi	r24, 0x03	; 3
    7cf6:	6a e0       	ldi	r22, 0x0A	; 10
    7cf8:	40 ee       	ldi	r20, 0xE0	; 224
    7cfa:	57 e0       	ldi	r21, 0x07	; 7
    7cfc:	2f e1       	ldi	r18, 0x1F	; 31
    7cfe:	38 ef       	ldi	r19, 0xF8	; 248
    7d00:	0f e5       	ldi	r16, 0x5F	; 95
    7d02:	17 e0       	ldi	r17, 0x07	; 7
    7d04:	0e 94 28 2f 	call	0x5e50	; 0x5e50 <TFT_string>
  Delay_ms(500);
    7d08:	84 ef       	ldi	r24, 0xF4	; 244
    7d0a:	91 e0       	ldi	r25, 0x01	; 1
    7d0c:	0e 94 14 25 	call	0x4a28	; 0x4a28 <Delay_ms>
    7d10:	ff 24       	eor	r15, r15

  for(i = 0; i < 2; i++)			// repeat 2 times
    { TFT_string(7,20,Magenta,Black,"                ");
    7d12:	87 e0       	ldi	r24, 0x07	; 7
    7d14:	64 e1       	ldi	r22, 0x14	; 20
    7d16:	4f e1       	ldi	r20, 0x1F	; 31
    7d18:	58 ef       	ldi	r21, 0xF8	; 248
    7d1a:	20 e0       	ldi	r18, 0x00	; 0
    7d1c:	30 e0       	ldi	r19, 0x00	; 0
    7d1e:	08 e7       	ldi	r16, 0x78	; 120
    7d20:	17 e0       	ldi	r17, 0x07	; 7
    7d22:	0e 94 28 2f 	call	0x5e50	; 0x5e50 <TFT_string>
      TFT_string(7,23,Green,  Black,"                ");
    7d26:	87 e0       	ldi	r24, 0x07	; 7
    7d28:	67 e1       	ldi	r22, 0x17	; 23
    7d2a:	40 ee       	ldi	r20, 0xE0	; 224
    7d2c:	57 e0       	ldi	r21, 0x07	; 7
    7d2e:	20 e0       	ldi	r18, 0x00	; 0
    7d30:	30 e0       	ldi	r19, 0x00	; 0
    7d32:	0e 94 28 2f 	call	0x5e50	; 0x5e50 <TFT_string>
      TFT_string(7,26,Red,    Black,"                ");
    7d36:	87 e0       	ldi	r24, 0x07	; 7
    7d38:	6a e1       	ldi	r22, 0x1A	; 26
    7d3a:	40 e0       	ldi	r20, 0x00	; 0
    7d3c:	58 ef       	ldi	r21, 0xF8	; 248
    7d3e:	20 e0       	ldi	r18, 0x00	; 0
    7d40:	30 e0       	ldi	r19, 0x00	; 0
    7d42:	0e 94 28 2f 	call	0x5e50	; 0x5e50 <TFT_string>
      TFT_string(7,29,Cyan,   Black,"                ");
    7d46:	87 e0       	ldi	r24, 0x07	; 7
    7d48:	6d e1       	ldi	r22, 0x1D	; 29
    7d4a:	4f ef       	ldi	r20, 0xFF	; 255
    7d4c:	57 e0       	ldi	r21, 0x07	; 7
    7d4e:	20 e0       	ldi	r18, 0x00	; 0
    7d50:	30 e0       	ldi	r19, 0x00	; 0
    7d52:	0e 94 28 2f 	call	0x5e50	; 0x5e50 <TFT_string>

      TFT_string(7,20,Magenta,Black,"LED1  / ");
    7d56:	87 e0       	ldi	r24, 0x07	; 7
    7d58:	64 e1       	ldi	r22, 0x14	; 20
    7d5a:	4f e1       	ldi	r20, 0x1F	; 31
    7d5c:	58 ef       	ldi	r21, 0xF8	; 248
    7d5e:	20 e0       	ldi	r18, 0x00	; 0
    7d60:	30 e0       	ldi	r19, 0x00	; 0
    7d62:	09 e8       	ldi	r16, 0x89	; 137
    7d64:	17 e0       	ldi	r17, 0x07	; 7
    7d66:	0e 94 28 2f 	call	0x5e50	; 0x5e50 <TFT_string>
      sbi(PORTD,4);
    7d6a:	94 9a       	sbi	0x12, 4	; 18
      Beep();
    7d6c:	0e 94 31 25 	call	0x4a62	; 0x4a62 <Beep>
      Delay_ms(500);
    7d70:	84 ef       	ldi	r24, 0xF4	; 244
    7d72:	91 e0       	ldi	r25, 0x01	; 1
    7d74:	0e 94 14 25 	call	0x4a28	; 0x4a28 <Delay_ms>
      cbi(PORTD,4);
    7d78:	94 98       	cbi	0x12, 4	; 18
      TFT_string(7,23,Green,  Black,"LED2  / ");
    7d7a:	87 e0       	ldi	r24, 0x07	; 7
    7d7c:	67 e1       	ldi	r22, 0x17	; 23
    7d7e:	40 ee       	ldi	r20, 0xE0	; 224
    7d80:	57 e0       	ldi	r21, 0x07	; 7
    7d82:	20 e0       	ldi	r18, 0x00	; 0
    7d84:	30 e0       	ldi	r19, 0x00	; 0
    7d86:	0a e9       	ldi	r16, 0x9A	; 154
    7d88:	17 e0       	ldi	r17, 0x07	; 7
    7d8a:	0e 94 28 2f 	call	0x5e50	; 0x5e50 <TFT_string>
      sbi(PORTD,5);
    7d8e:	95 9a       	sbi	0x12, 5	; 18
      Beep();
    7d90:	0e 94 31 25 	call	0x4a62	; 0x4a62 <Beep>
      Delay_ms(500);
    7d94:	84 ef       	ldi	r24, 0xF4	; 244
    7d96:	91 e0       	ldi	r25, 0x01	; 1
    7d98:	0e 94 14 25 	call	0x4a28	; 0x4a28 <Delay_ms>
      cbi(PORTD,5);
    7d9c:	95 98       	cbi	0x12, 5	; 18
      TFT_string(7,26,Red,    Black,"LED3  / ");
    7d9e:	87 e0       	ldi	r24, 0x07	; 7
    7da0:	6a e1       	ldi	r22, 0x1A	; 26
    7da2:	40 e0       	ldi	r20, 0x00	; 0
    7da4:	58 ef       	ldi	r21, 0xF8	; 248
    7da6:	20 e0       	ldi	r18, 0x00	; 0
    7da8:	30 e0       	ldi	r19, 0x00	; 0
    7daa:	0b ea       	ldi	r16, 0xAB	; 171
    7dac:	17 e0       	ldi	r17, 0x07	; 7
    7dae:	0e 94 28 2f 	call	0x5e50	; 0x5e50 <TFT_string>
      sbi(PORTD,6);
    7db2:	96 9a       	sbi	0x12, 6	; 18
      Beep();
    7db4:	0e 94 31 25 	call	0x4a62	; 0x4a62 <Beep>
      Delay_ms(500);
    7db8:	84 ef       	ldi	r24, 0xF4	; 244
    7dba:	91 e0       	ldi	r25, 0x01	; 1
    7dbc:	0e 94 14 25 	call	0x4a28	; 0x4a28 <Delay_ms>
      cbi(PORTD,6);
    7dc0:	96 98       	cbi	0x12, 6	; 18
      TFT_string(7,29,Cyan,   Black,"LED4  / ");
    7dc2:	87 e0       	ldi	r24, 0x07	; 7
    7dc4:	6d e1       	ldi	r22, 0x1D	; 29
    7dc6:	4f ef       	ldi	r20, 0xFF	; 255
    7dc8:	57 e0       	ldi	r21, 0x07	; 7
    7dca:	20 e0       	ldi	r18, 0x00	; 0
    7dcc:	30 e0       	ldi	r19, 0x00	; 0
    7dce:	0c eb       	ldi	r16, 0xBC	; 188
    7dd0:	17 e0       	ldi	r17, 0x07	; 7
    7dd2:	0e 94 28 2f 	call	0x5e50	; 0x5e50 <TFT_string>
      sbi(PORTD,7);
    7dd6:	97 9a       	sbi	0x12, 7	; 18
      Beep();
    7dd8:	0e 94 31 25 	call	0x4a62	; 0x4a62 <Beep>
      Delay_ms(500);
    7ddc:	84 ef       	ldi	r24, 0xF4	; 244
    7dde:	91 e0       	ldi	r25, 0x01	; 1
    7de0:	0e 94 14 25 	call	0x4a28	; 0x4a28 <Delay_ms>
      cbi(PORTD,7);
    7de4:	97 98       	cbi	0x12, 7	; 18
  Rectangle(1,1, 238,318, Green);
  Rectangle(2,2, 237,317, Green);
  TFT_string(3,10,Green,Magenta,"(5) LED/  ");
  Delay_ms(500);

  for(i = 0; i < 2; i++)			// repeat 2 times
    7de6:	f3 94       	inc	r15
    7de8:	82 e0       	ldi	r24, 0x02	; 2
    7dea:	f8 16       	cp	r15, r24
    7dec:	09 f0       	breq	.+2      	; 0x7df0 <Test5+0x14a>
    7dee:	91 cf       	rjmp	.-222    	; 0x7d12 <Test5+0x6c>
      sbi(PORTD,7);
      Beep();
      Delay_ms(500);
      cbi(PORTD,7);
    }
}
    7df0:	1f 91       	pop	r17
    7df2:	0f 91       	pop	r16
    7df4:	ff 90       	pop	r15
    7df6:	08 95       	ret

00007df8 <Set_tempo>:

unsigned char tempo;

void Set_tempo(unsigned char number)            /* set tempo */
{
  tempo = number;                               // set tempo
    7df8:	80 93 52 0b 	sts	0x0B52, r24
  TCCR1A = 0x40;                                // CTC mode(12), use OC1A
    7dfc:	80 e4       	ldi	r24, 0x40	; 64
    7dfe:	8f bd       	out	0x2f, r24	; 47
  TCCR1B = 0x18;                                // speaker off
    7e00:	88 e1       	ldi	r24, 0x18	; 24
    7e02:	8e bd       	out	0x2e, r24	; 46
  TCCR1C = 0x00;
    7e04:	10 92 7a 00 	sts	0x007A, r1
}
    7e08:	08 95       	ret

00007e0a <Play_note>:

void Play_note(unsigned int sound, unsigned int note) /* play note */
{
  ICR1 = sound;					// set ICR1
    7e0a:	97 bd       	out	0x27, r25	; 39
    7e0c:	86 bd       	out	0x26, r24	; 38
  TCNT1 = 0x0000;                               // clear Timer/Counter 1
    7e0e:	1d bc       	out	0x2d, r1	; 45
    7e10:	1c bc       	out	0x2c, r1	; 44
  TCCR1B = 0x1A;                                // start CTC mode(prescaler = 8)
    7e12:	8a e1       	ldi	r24, 0x1A	; 26
    7e14:	8e bd       	out	0x2e, r24	; 46

  Delay_ms(note*tempo*7);                       // note play time
    7e16:	80 91 52 0b 	lds	r24, 0x0B52
    7e1a:	27 e0       	ldi	r18, 0x07	; 7
    7e1c:	82 9f       	mul	r24, r18
    7e1e:	c0 01       	movw	r24, r0
    7e20:	11 24       	eor	r1, r1
    7e22:	9c 01       	movw	r18, r24
    7e24:	26 9f       	mul	r18, r22
    7e26:	c0 01       	movw	r24, r0
    7e28:	27 9f       	mul	r18, r23
    7e2a:	90 0d       	add	r25, r0
    7e2c:	36 9f       	mul	r19, r22
    7e2e:	90 0d       	add	r25, r0
    7e30:	11 24       	eor	r1, r1
    7e32:	0e 94 14 25 	call	0x4a28	; 0x4a28 <Delay_ms>

  TCCR1B = 0x18;                                // speaker off
    7e36:	88 e1       	ldi	r24, 0x18	; 24
    7e38:	8e bd       	out	0x2e, r24	; 46
}
    7e3a:	08 95       	ret

00007e3c <Play_rest>:

void Play_rest(unsigned int rest)               /* play rest */
{
  Delay_ms(rest*tempo*7);                       // rest play time
    7e3c:	20 91 52 0b 	lds	r18, 0x0B52
    7e40:	47 e0       	ldi	r20, 0x07	; 7
    7e42:	24 9f       	mul	r18, r20
    7e44:	90 01       	movw	r18, r0
    7e46:	11 24       	eor	r1, r1
    7e48:	ac 01       	movw	r20, r24
    7e4a:	24 9f       	mul	r18, r20
    7e4c:	c0 01       	movw	r24, r0
    7e4e:	25 9f       	mul	r18, r21
    7e50:	90 0d       	add	r25, r0
    7e52:	34 9f       	mul	r19, r20
    7e54:	90 0d       	add	r25, r0
    7e56:	11 24       	eor	r1, r1
    7e58:	0e 94 14 25 	call	0x4a28	; 0x4a28 <Delay_ms>
}
    7e5c:	08 95       	ret

00007e5e <Test6>:
#define	REST2	16*3
#define	REST2D	24*3
#define	REST1	32*3

void Test6(void)				/* Test 6 */
{
    7e5e:	0f 93       	push	r16
    7e60:	1f 93       	push	r17
  TFT_clear_screen();				// clear screen
    7e62:	0e 94 cf 28 	call	0x519e	; 0x519e <TFT_clear_screen>
  TFT_portrait();				// portrait mode
    7e66:	0e 94 a0 2a 	call	0x5540	; 0x5540 <TFT_portrait>

  Rectangle(0,0, 239,319, Green);		// display title
    7e6a:	80 e0       	ldi	r24, 0x00	; 0
    7e6c:	90 e0       	ldi	r25, 0x00	; 0
    7e6e:	60 e0       	ldi	r22, 0x00	; 0
    7e70:	70 e0       	ldi	r23, 0x00	; 0
    7e72:	4f ee       	ldi	r20, 0xEF	; 239
    7e74:	50 e0       	ldi	r21, 0x00	; 0
    7e76:	2f e3       	ldi	r18, 0x3F	; 63
    7e78:	31 e0       	ldi	r19, 0x01	; 1
    7e7a:	00 ee       	ldi	r16, 0xE0	; 224
    7e7c:	17 e0       	ldi	r17, 0x07	; 7
    7e7e:	0e 94 14 33 	call	0x6628	; 0x6628 <Rectangle>
  Rectangle(1,1, 238,318, Green);
    7e82:	81 e0       	ldi	r24, 0x01	; 1
    7e84:	90 e0       	ldi	r25, 0x00	; 0
    7e86:	61 e0       	ldi	r22, 0x01	; 1
    7e88:	70 e0       	ldi	r23, 0x00	; 0
    7e8a:	4e ee       	ldi	r20, 0xEE	; 238
    7e8c:	50 e0       	ldi	r21, 0x00	; 0
    7e8e:	2e e3       	ldi	r18, 0x3E	; 62
    7e90:	31 e0       	ldi	r19, 0x01	; 1
    7e92:	0e 94 14 33 	call	0x6628	; 0x6628 <Rectangle>
  Rectangle(2,2, 237,317, Green);
    7e96:	82 e0       	ldi	r24, 0x02	; 2
    7e98:	90 e0       	ldi	r25, 0x00	; 0
    7e9a:	62 e0       	ldi	r22, 0x02	; 2
    7e9c:	70 e0       	ldi	r23, 0x00	; 0
    7e9e:	4d ee       	ldi	r20, 0xED	; 237
    7ea0:	50 e0       	ldi	r21, 0x00	; 0
    7ea2:	2d e3       	ldi	r18, 0x3D	; 61
    7ea4:	31 e0       	ldi	r19, 0x01	; 1
    7ea6:	0e 94 14 33 	call	0x6628	; 0x6628 <Rectangle>
  TFT_string(4,10,Green,Magenta,"(6)   ");
    7eaa:	84 e0       	ldi	r24, 0x04	; 4
    7eac:	6a e0       	ldi	r22, 0x0A	; 10
    7eae:	40 ee       	ldi	r20, 0xE0	; 224
    7eb0:	57 e0       	ldi	r21, 0x07	; 7
    7eb2:	2f e1       	ldi	r18, 0x1F	; 31
    7eb4:	38 ef       	ldi	r19, 0xF8	; 248
    7eb6:	0d ec       	ldi	r16, 0xCD	; 205
    7eb8:	17 e0       	ldi	r17, 0x07	; 7
    7eba:	0e 94 28 2f 	call	0x5e50	; 0x5e50 <TFT_string>
  Delay_ms(500);
    7ebe:	84 ef       	ldi	r24, 0xF4	; 244
    7ec0:	91 e0       	ldi	r25, 0x01	; 1
    7ec2:	0e 94 14 25 	call	0x4a28	; 0x4a28 <Delay_ms>

unsigned char tempo;

void Set_tempo(unsigned char number)            /* set tempo */
{
  tempo = number;                               // set tempo
    7ec6:	84 e0       	ldi	r24, 0x04	; 4
    7ec8:	80 93 52 0b 	sts	0x0B52, r24
  TCCR1A = 0x40;                                // CTC mode(12), use OC1A
    7ecc:	80 e4       	ldi	r24, 0x40	; 64
    7ece:	8f bd       	out	0x2f, r24	; 47
  TCCR1B = 0x18;                                // speaker off
    7ed0:	88 e1       	ldi	r24, 0x18	; 24
    7ed2:	8e bd       	out	0x2e, r24	; 46
  TCCR1C = 0x00;
    7ed4:	10 92 7a 00 	sts	0x007A, r1
  TFT_string(4,10,Green,Magenta,"(6)   ");
  Delay_ms(500);

  Set_tempo(4);					// set tempo

  TFT_string(11,20,Green,Black," 4");
    7ed8:	8b e0       	ldi	r24, 0x0B	; 11
    7eda:	64 e1       	ldi	r22, 0x14	; 20
    7edc:	40 ee       	ldi	r20, 0xE0	; 224
    7ede:	57 e0       	ldi	r21, 0x07	; 7
    7ee0:	20 e0       	ldi	r18, 0x00	; 0
    7ee2:	30 e0       	ldi	r19, 0x00	; 0
    7ee4:	04 ee       	ldi	r16, 0xE4	; 228
    7ee6:	17 e0       	ldi	r17, 0x07	; 7
    7ee8:	0e 94 28 2f 	call	0x5e50	; 0x5e50 <TFT_string>
  TFT_string(3,24,White,Black,"       ~");
    7eec:	83 e0       	ldi	r24, 0x03	; 3
    7eee:	68 e1       	ldi	r22, 0x18	; 24
    7ef0:	4f ef       	ldi	r20, 0xFF	; 255
    7ef2:	5f ef       	ldi	r21, 0xFF	; 255
    7ef4:	20 e0       	ldi	r18, 0x00	; 0
    7ef6:	30 e0       	ldi	r19, 0x00	; 0
    7ef8:	0d ee       	ldi	r16, 0xED	; 237
    7efa:	17 e0       	ldi	r17, 0x07	; 7
    7efc:	0e 94 28 2f 	call	0x5e50	; 0x5e50 <TFT_string>

  Play_note(MIC,NOTE8);	             		// play
    7f00:	8d ee       	ldi	r24, 0xED	; 237
    7f02:	9e e0       	ldi	r25, 0x0E	; 14
    7f04:	6c e0       	ldi	r22, 0x0C	; 12
    7f06:	70 e0       	ldi	r23, 0x00	; 0
    7f08:	0e 94 05 3f 	call	0x7e0a	; 0x7e0a <Play_note>
  Play_note(MID,NOTE8);
    7f0c:	8c e4       	ldi	r24, 0x4C	; 76
    7f0e:	9d e0       	ldi	r25, 0x0D	; 13
    7f10:	6c e0       	ldi	r22, 0x0C	; 12
    7f12:	70 e0       	ldi	r23, 0x00	; 0
    7f14:	0e 94 05 3f 	call	0x7e0a	; 0x7e0a <Play_note>
  Play_note(MIE,NOTE8);
    7f18:	89 ed       	ldi	r24, 0xD9	; 217
    7f1a:	9b e0       	ldi	r25, 0x0B	; 11
    7f1c:	6c e0       	ldi	r22, 0x0C	; 12
    7f1e:	70 e0       	ldi	r23, 0x00	; 0
    7f20:	0e 94 05 3f 	call	0x7e0a	; 0x7e0a <Play_note>
  Play_note(MIF,NOTE8);
    7f24:	8e e2       	ldi	r24, 0x2E	; 46
    7f26:	9b e0       	ldi	r25, 0x0B	; 11
    7f28:	6c e0       	ldi	r22, 0x0C	; 12
    7f2a:	70 e0       	ldi	r23, 0x00	; 0
    7f2c:	0e 94 05 3f 	call	0x7e0a	; 0x7e0a <Play_note>
  Play_note(MIG,NOTE8);
    7f30:	86 ef       	ldi	r24, 0xF6	; 246
    7f32:	99 e0       	ldi	r25, 0x09	; 9
    7f34:	6c e0       	ldi	r22, 0x0C	; 12
    7f36:	70 e0       	ldi	r23, 0x00	; 0
    7f38:	0e 94 05 3f 	call	0x7e0a	; 0x7e0a <Play_note>
  Play_note(MIA,NOTE8);
    7f3c:	80 ee       	ldi	r24, 0xE0	; 224
    7f3e:	98 e0       	ldi	r25, 0x08	; 8
    7f40:	6c e0       	ldi	r22, 0x0C	; 12
    7f42:	70 e0       	ldi	r23, 0x00	; 0
    7f44:	0e 94 05 3f 	call	0x7e0a	; 0x7e0a <Play_note>
  Play_note(MIB,NOTE8);
    7f48:	88 ee       	ldi	r24, 0xE8	; 232
    7f4a:	97 e0       	ldi	r25, 0x07	; 7
    7f4c:	6c e0       	ldi	r22, 0x0C	; 12
    7f4e:	70 e0       	ldi	r23, 0x00	; 0
    7f50:	0e 94 05 3f 	call	0x7e0a	; 0x7e0a <Play_note>
  Play_note(HIC,NOTE4);
    7f54:	86 e7       	ldi	r24, 0x76	; 118
    7f56:	97 e0       	ldi	r25, 0x07	; 7
    7f58:	68 e1       	ldi	r22, 0x18	; 24
    7f5a:	70 e0       	ldi	r23, 0x00	; 0
    7f5c:	0e 94 05 3f 	call	0x7e0a	; 0x7e0a <Play_note>
  Play_rest(REST4);
    7f60:	88 e1       	ldi	r24, 0x18	; 24
    7f62:	90 e0       	ldi	r25, 0x00	; 0
    7f64:	0e 94 1e 3f 	call	0x7e3c	; 0x7e3c <Play_rest>

  TFT_string(3,27,White,Black,"       ~");
    7f68:	83 e0       	ldi	r24, 0x03	; 3
    7f6a:	6b e1       	ldi	r22, 0x1B	; 27
    7f6c:	4f ef       	ldi	r20, 0xFF	; 255
    7f6e:	5f ef       	ldi	r21, 0xFF	; 255
    7f70:	20 e0       	ldi	r18, 0x00	; 0
    7f72:	30 e0       	ldi	r19, 0x00	; 0
    7f74:	06 e0       	ldi	r16, 0x06	; 6
    7f76:	18 e0       	ldi	r17, 0x08	; 8
    7f78:	0e 94 28 2f 	call	0x5e50	; 0x5e50 <TFT_string>

  Play_note(HIC,NOTE8);	             		// play
    7f7c:	86 e7       	ldi	r24, 0x76	; 118
    7f7e:	97 e0       	ldi	r25, 0x07	; 7
    7f80:	6c e0       	ldi	r22, 0x0C	; 12
    7f82:	70 e0       	ldi	r23, 0x00	; 0
    7f84:	0e 94 05 3f 	call	0x7e0a	; 0x7e0a <Play_note>
  Play_note(MIB,NOTE8);
    7f88:	88 ee       	ldi	r24, 0xE8	; 232
    7f8a:	97 e0       	ldi	r25, 0x07	; 7
    7f8c:	6c e0       	ldi	r22, 0x0C	; 12
    7f8e:	70 e0       	ldi	r23, 0x00	; 0
    7f90:	0e 94 05 3f 	call	0x7e0a	; 0x7e0a <Play_note>
  Play_note(MIA,NOTE8);
    7f94:	80 ee       	ldi	r24, 0xE0	; 224
    7f96:	98 e0       	ldi	r25, 0x08	; 8
    7f98:	6c e0       	ldi	r22, 0x0C	; 12
    7f9a:	70 e0       	ldi	r23, 0x00	; 0
    7f9c:	0e 94 05 3f 	call	0x7e0a	; 0x7e0a <Play_note>
  Play_note(MIG,NOTE8);
    7fa0:	86 ef       	ldi	r24, 0xF6	; 246
    7fa2:	99 e0       	ldi	r25, 0x09	; 9
    7fa4:	6c e0       	ldi	r22, 0x0C	; 12
    7fa6:	70 e0       	ldi	r23, 0x00	; 0
    7fa8:	0e 94 05 3f 	call	0x7e0a	; 0x7e0a <Play_note>
  Play_note(MIF,NOTE8);
    7fac:	8e e2       	ldi	r24, 0x2E	; 46
    7fae:	9b e0       	ldi	r25, 0x0B	; 11
    7fb0:	6c e0       	ldi	r22, 0x0C	; 12
    7fb2:	70 e0       	ldi	r23, 0x00	; 0
    7fb4:	0e 94 05 3f 	call	0x7e0a	; 0x7e0a <Play_note>
  Play_note(MIE,NOTE8);
    7fb8:	89 ed       	ldi	r24, 0xD9	; 217
    7fba:	9b e0       	ldi	r25, 0x0B	; 11
    7fbc:	6c e0       	ldi	r22, 0x0C	; 12
    7fbe:	70 e0       	ldi	r23, 0x00	; 0
    7fc0:	0e 94 05 3f 	call	0x7e0a	; 0x7e0a <Play_note>
  Play_note(MID,NOTE8);
    7fc4:	8c e4       	ldi	r24, 0x4C	; 76
    7fc6:	9d e0       	ldi	r25, 0x0D	; 13
    7fc8:	6c e0       	ldi	r22, 0x0C	; 12
    7fca:	70 e0       	ldi	r23, 0x00	; 0
    7fcc:	0e 94 05 3f 	call	0x7e0a	; 0x7e0a <Play_note>
  Play_note(MIC,NOTE4);
    7fd0:	8d ee       	ldi	r24, 0xED	; 237
    7fd2:	9e e0       	ldi	r25, 0x0E	; 14
    7fd4:	68 e1       	ldi	r22, 0x18	; 24
    7fd6:	70 e0       	ldi	r23, 0x00	; 0
    7fd8:	0e 94 05 3f 	call	0x7e0a	; 0x7e0a <Play_note>
  Play_rest(REST4);
    7fdc:	88 e1       	ldi	r24, 0x18	; 24
    7fde:	90 e0       	ldi	r25, 0x00	; 0
    7fe0:	0e 94 1e 3f 	call	0x7e3c	; 0x7e3c <Play_rest>
}
    7fe4:	1f 91       	pop	r17
    7fe6:	0f 91       	pop	r16
    7fe8:	08 95       	ret

00007fea <Test7>:
}

/* ---------------------------------------------------------------------------- */

void Test7(void)				/* Test 7 */
{
    7fea:	2f 92       	push	r2
    7fec:	3f 92       	push	r3
    7fee:	4f 92       	push	r4
    7ff0:	5f 92       	push	r5
    7ff2:	6f 92       	push	r6
    7ff4:	7f 92       	push	r7
    7ff6:	8f 92       	push	r8
    7ff8:	9f 92       	push	r9
    7ffa:	af 92       	push	r10
    7ffc:	bf 92       	push	r11
    7ffe:	cf 92       	push	r12
    8000:	df 92       	push	r13
    8002:	ef 92       	push	r14
    8004:	ff 92       	push	r15
    8006:	0f 93       	push	r16
    8008:	1f 93       	push	r17
    800a:	cf 93       	push	r28
    800c:	df 93       	push	r29
  unsigned char i, time;
  signed int result;

  TFT_clear_screen();				// clear screen
    800e:	0e 94 cf 28 	call	0x519e	; 0x519e <TFT_clear_screen>
  TFT_portrait();				// portrait mode
    8012:	0e 94 a0 2a 	call	0x5540	; 0x5540 <TFT_portrait>

  Rectangle(0,0, 239,319, Green);		// display title
    8016:	80 e0       	ldi	r24, 0x00	; 0
    8018:	90 e0       	ldi	r25, 0x00	; 0
    801a:	60 e0       	ldi	r22, 0x00	; 0
    801c:	70 e0       	ldi	r23, 0x00	; 0
    801e:	4f ee       	ldi	r20, 0xEF	; 239
    8020:	50 e0       	ldi	r21, 0x00	; 0
    8022:	2f e3       	ldi	r18, 0x3F	; 63
    8024:	31 e0       	ldi	r19, 0x01	; 1
    8026:	00 ee       	ldi	r16, 0xE0	; 224
    8028:	17 e0       	ldi	r17, 0x07	; 7
    802a:	0e 94 14 33 	call	0x6628	; 0x6628 <Rectangle>
  Rectangle(1,1, 238,318, Green);
    802e:	81 e0       	ldi	r24, 0x01	; 1
    8030:	90 e0       	ldi	r25, 0x00	; 0
    8032:	61 e0       	ldi	r22, 0x01	; 1
    8034:	70 e0       	ldi	r23, 0x00	; 0
    8036:	4e ee       	ldi	r20, 0xEE	; 238
    8038:	50 e0       	ldi	r21, 0x00	; 0
    803a:	2e e3       	ldi	r18, 0x3E	; 62
    803c:	31 e0       	ldi	r19, 0x01	; 1
    803e:	0e 94 14 33 	call	0x6628	; 0x6628 <Rectangle>
  Rectangle(2,2, 237,317, Green);
    8042:	82 e0       	ldi	r24, 0x02	; 2
    8044:	90 e0       	ldi	r25, 0x00	; 0
    8046:	62 e0       	ldi	r22, 0x02	; 2
    8048:	70 e0       	ldi	r23, 0x00	; 0
    804a:	4d ee       	ldi	r20, 0xED	; 237
    804c:	50 e0       	ldi	r21, 0x00	; 0
    804e:	2d e3       	ldi	r18, 0x3D	; 61
    8050:	31 e0       	ldi	r19, 0x01	; 1
    8052:	0e 94 14 33 	call	0x6628	; 0x6628 <Rectangle>
  TFT_string(2,10,Green,Magenta,"(7) A/D   ");
    8056:	82 e0       	ldi	r24, 0x02	; 2
    8058:	6a e0       	ldi	r22, 0x0A	; 10
    805a:	40 ee       	ldi	r20, 0xE0	; 224
    805c:	57 e0       	ldi	r21, 0x07	; 7
    805e:	2f e1       	ldi	r18, 0x1F	; 31
    8060:	38 ef       	ldi	r19, 0xF8	; 248
    8062:	0f e1       	ldi	r16, 0x1F	; 31
    8064:	18 e0       	ldi	r17, 0x08	; 8
    8066:	0e 94 28 2f 	call	0x5e50	; 0x5e50 <TFT_string>

  TFT_string(5,20,White,Black,"ADC1() = 00.0 C");
    806a:	85 e0       	ldi	r24, 0x05	; 5
    806c:	64 e1       	ldi	r22, 0x14	; 20
    806e:	4f ef       	ldi	r20, 0xFF	; 255
    8070:	5f ef       	ldi	r21, 0xFF	; 255
    8072:	20 e0       	ldi	r18, 0x00	; 0
    8074:	30 e0       	ldi	r19, 0x00	; 0
    8076:	0a e3       	ldi	r16, 0x3A	; 58
    8078:	18 e0       	ldi	r17, 0x08	; 8
    807a:	0e 94 28 2f 	call	0x5e50	; 0x5e50 <TFT_string>
  TFT_command(0x22);
}

void TFT_xy(U08 xChar, U08 yChar)		/* set character position (x,y) */
{
  Xcharacter = xChar;
    807e:	86 e1       	ldi	r24, 0x16	; 22
    8080:	f8 2e       	mov	r15, r24
    8082:	f0 92 3c 0c 	sts	0x0C3C, r15
  Ycharacter = yChar;
    8086:	84 e1       	ldi	r24, 0x14	; 20
    8088:	80 93 45 0b 	sts	0x0B45, r24
  TFT_xy(22,20);
  TFT_English(0x7F);
    808c:	8f e7       	ldi	r24, 0x7F	; 127
    808e:	0e 94 3e 2b 	call	0x567c	; 0x567c <TFT_English>
  TFT_string(5,24,White,Black,"ADC2() = 00.0 C");
    8092:	85 e0       	ldi	r24, 0x05	; 5
    8094:	68 e1       	ldi	r22, 0x18	; 24
    8096:	4f ef       	ldi	r20, 0xFF	; 255
    8098:	5f ef       	ldi	r21, 0xFF	; 255
    809a:	20 e0       	ldi	r18, 0x00	; 0
    809c:	30 e0       	ldi	r19, 0x00	; 0
    809e:	0e e4       	ldi	r16, 0x4E	; 78
    80a0:	18 e0       	ldi	r17, 0x08	; 8
    80a2:	0e 94 28 2f 	call	0x5e50	; 0x5e50 <TFT_string>
  TFT_command(0x22);
}

void TFT_xy(U08 xChar, U08 yChar)		/* set character position (x,y) */
{
  Xcharacter = xChar;
    80a6:	f0 92 3c 0c 	sts	0x0C3C, r15
  Ycharacter = yChar;
    80aa:	88 e1       	ldi	r24, 0x18	; 24
    80ac:	80 93 45 0b 	sts	0x0B45, r24
  TFT_xy(22,24);
  TFT_English(0x7F);
    80b0:	8f e7       	ldi	r24, 0x7F	; 127
    80b2:	0e 94 3e 2b 	call	0x567c	; 0x567c <TFT_English>
  TFT_string(5,28,White,Black,"ADC3() = 0.00V");
    80b6:	85 e0       	ldi	r24, 0x05	; 5
    80b8:	6c e1       	ldi	r22, 0x1C	; 28
    80ba:	4f ef       	ldi	r20, 0xFF	; 255
    80bc:	5f ef       	ldi	r21, 0xFF	; 255
    80be:	20 e0       	ldi	r18, 0x00	; 0
    80c0:	30 e0       	ldi	r19, 0x00	; 0
    80c2:	02 e6       	ldi	r16, 0x62	; 98
    80c4:	18 e0       	ldi	r17, 0x08	; 8
    80c6:	0e 94 28 2f 	call	0x5e50	; 0x5e50 <TFT_string>
    80ca:	ee 24       	eor	r14, r14


  for(time = 0; time < 40; time++)		// 10 sec
    { ADCSRA = 0x84;				// ADC enable, 1MHz
    80cc:	04 e8       	ldi	r16, 0x84	; 132
    80ce:	50 2e       	mov	r5, r16
      ADMUX = 0xC1;				// select ADC1 with 2.56V
      Delay_us(150);

      result = 0;
      for(i = 0; i < 16; i++)			// read ADC by 16 times
        { ADCSRA = 0xD4;			// start conversion and clear ADIF
    80d0:	14 ed       	ldi	r17, 0xD4	; 212
    80d2:	61 2e       	mov	r6, r17
  TFT_command(0x22);
}

void TFT_xy(U08 xChar, U08 yChar)		/* set character position (x,y) */
{
  Xcharacter = xChar;
    80d4:	b2 e1       	ldi	r27, 0x12	; 18
    80d6:	7b 2e       	mov	r7, r27
  Ycharacter = yChar;
}

void TFT_color(U16 colorfore, U16 colorback)	/* set foreground and background color */
{
  foreground = colorfore;
    80d8:	af ef       	ldi	r26, 0xFF	; 255
    80da:	8a 2e       	mov	r8, r26
    80dc:	a7 e0       	ldi	r26, 0x07	; 7
    80de:	9a 2e       	mov	r9, r26
}

void TFT_xy(U08 xChar, U08 yChar)		/* set character position (x,y) */
{
  Xcharacter = xChar;
  Ycharacter = yChar;
    80e0:	f8 e1       	ldi	r31, 0x18	; 24
    80e2:	3f 2e       	mov	r3, r31
      TFT_xy(18,24);				// display temperature
      TFT_color(Cyan,Black);
      TFT_unsigned_float(result*51.2/1024., 2, 1); // Temp = result*51.2/1024

      ADCSRA = 0x84;				// ADC enable, 1MHz
      ADMUX = 0x43;				// select ADC3 with AVCC
    80e4:	e3 e4       	ldi	r30, 0x43	; 67
    80e6:	2e 2e       	mov	r2, r30
    80e8:	7c e1       	ldi	r23, 0x1C	; 28
    80ea:	47 2e       	mov	r4, r23
  TFT_English(0x7F);
  TFT_string(5,28,White,Black,"ADC3() = 0.00V");


  for(time = 0; time < 40; time++)		// 10 sec
    { ADCSRA = 0x84;				// ADC enable, 1MHz
    80ec:	56 b8       	out	0x06, r5	; 6
      ADMUX = 0xC1;				// select ADC1 with 2.56V
    80ee:	21 ec       	ldi	r18, 0xC1	; 193
    80f0:	27 b9       	out	0x07, r18	; 7
      Delay_us(150);
    80f2:	86 e9       	ldi	r24, 0x96	; 150
    80f4:	0e 94 08 25 	call	0x4a10	; 0x4a10 <Delay_us>
    80f8:	ff 24       	eor	r15, r15
    80fa:	00 e0       	ldi	r16, 0x00	; 0
    80fc:	10 e0       	ldi	r17, 0x00	; 0

      result = 0;
      for(i = 0; i < 16; i++)			// read ADC by 16 times
        { ADCSRA = 0xD4;			// start conversion and clear ADIF
    80fe:	66 b8       	out	0x06, r6	; 6
          while((ADCSRA & 0x10) != 0x10);
    8100:	34 9b       	sbis	0x06, 4	; 6
    8102:	fe cf       	rjmp	.-4      	; 0x8100 <Test7+0x116>
          result += ADCL + ADCH*256;		// add A/D result 16 times
    8104:	94 b1       	in	r25, 0x04	; 4
    8106:	85 b1       	in	r24, 0x05	; 5
    8108:	d8 2f       	mov	r29, r24
    810a:	c0 e0       	ldi	r28, 0x00	; 0
    810c:	9e 01       	movw	r18, r28
    810e:	29 0f       	add	r18, r25
    8110:	31 1d       	adc	r19, r1
    8112:	02 0f       	add	r16, r18
    8114:	13 1f       	adc	r17, r19
          Delay_ms(1);
    8116:	81 e0       	ldi	r24, 0x01	; 1
    8118:	90 e0       	ldi	r25, 0x00	; 0
    811a:	0e 94 14 25 	call	0x4a28	; 0x4a28 <Delay_ms>
    { ADCSRA = 0x84;				// ADC enable, 1MHz
      ADMUX = 0xC1;				// select ADC1 with 2.56V
      Delay_us(150);

      result = 0;
      for(i = 0; i < 16; i++)			// read ADC by 16 times
    811e:	f3 94       	inc	r15
    8120:	30 e1       	ldi	r19, 0x10	; 16
    8122:	f3 16       	cp	r15, r19
    8124:	61 f7       	brne	.-40     	; 0x80fe <Test7+0x114>
  TFT_command(0x22);
}

void TFT_xy(U08 xChar, U08 yChar)		/* set character position (x,y) */
{
  Xcharacter = xChar;
    8126:	70 92 3c 0c 	sts	0x0C3C, r7
  Ycharacter = yChar;
    812a:	84 e1       	ldi	r24, 0x14	; 20
    812c:	80 93 45 0b 	sts	0x0B45, r24
}

void TFT_color(U16 colorfore, U16 colorback)	/* set foreground and background color */
{
  foreground = colorfore;
    8130:	90 92 50 0b 	sts	0x0B50, r9
    8134:	80 92 4f 0b 	sts	0x0B4F, r8
  background = colorback;
    8138:	10 92 56 0b 	sts	0x0B56, r1
    813c:	10 92 55 0b 	sts	0x0B55, r1

      result >>= 4;				// divide result by 16

      TFT_xy(18,20);				// display temperature
      TFT_color(Cyan,Black);
      TFT_unsigned_float(result*256./1024., 2, 1); // Temp = result*256/1024
    8140:	64 e0       	ldi	r22, 0x04	; 4
    8142:	15 95       	asr	r17
    8144:	07 95       	ror	r16
    8146:	6a 95       	dec	r22
    8148:	e1 f7       	brne	.-8      	; 0x8142 <Test7+0x158>
    814a:	b8 01       	movw	r22, r16
    814c:	88 27       	eor	r24, r24
    814e:	77 fd       	sbrc	r23, 7
    8150:	80 95       	com	r24
    8152:	98 2f       	mov	r25, r24
    8154:	0e 94 55 5b 	call	0xb6aa	; 0xb6aa <__floatsisf>
    8158:	20 e0       	ldi	r18, 0x00	; 0
    815a:	30 e0       	ldi	r19, 0x00	; 0
    815c:	40 e8       	ldi	r20, 0x80	; 128
    815e:	53 e4       	ldi	r21, 0x43	; 67
    8160:	0e 94 1e 5c 	call	0xb83c	; 0xb83c <__mulsf3>
    8164:	20 e0       	ldi	r18, 0x00	; 0
    8166:	30 e0       	ldi	r19, 0x00	; 0
    8168:	40 e8       	ldi	r20, 0x80	; 128
    816a:	5a e3       	ldi	r21, 0x3A	; 58
    816c:	0e 94 1e 5c 	call	0xb83c	; 0xb83c <__mulsf3>
    8170:	42 e0       	ldi	r20, 0x02	; 2
    8172:	21 e0       	ldi	r18, 0x01	; 1
    8174:	0e 94 bd 30 	call	0x617a	; 0x617a <TFT_unsigned_float>

      ADCSRA = 0x84;				// ADC enable, 1MHz
    8178:	56 b8       	out	0x06, r5	; 6
      ADMUX = 0xC2;				// select ADC2 with 2.56V
    817a:	22 ec       	ldi	r18, 0xC2	; 194
    817c:	27 b9       	out	0x07, r18	; 7
      Delay_us(150);
    817e:	86 e9       	ldi	r24, 0x96	; 150
    8180:	0e 94 08 25 	call	0x4a10	; 0x4a10 <Delay_us>
    8184:	ff 24       	eor	r15, r15
    8186:	00 e0       	ldi	r16, 0x00	; 0
    8188:	10 e0       	ldi	r17, 0x00	; 0

      result = 0;
      for(i = 0; i < 16; i++)			// read ADC by 16 times
        { ADCSRA = 0xD4;			// start conversion and clear ADIF
    818a:	66 b8       	out	0x06, r6	; 6
          while((ADCSRA & 0x10) != 0x10);
    818c:	34 9b       	sbis	0x06, 4	; 6
    818e:	fe cf       	rjmp	.-4      	; 0x818c <Test7+0x1a2>
          result += ADCL + ADCH*256;		// add A/D result 16 times
    8190:	94 b1       	in	r25, 0x04	; 4
    8192:	85 b1       	in	r24, 0x05	; 5
    8194:	d8 2e       	mov	r13, r24
    8196:	cc 24       	eor	r12, r12
    8198:	96 01       	movw	r18, r12
    819a:	29 0f       	add	r18, r25
    819c:	31 1d       	adc	r19, r1
    819e:	02 0f       	add	r16, r18
    81a0:	13 1f       	adc	r17, r19
          Delay_ms(1);
    81a2:	81 e0       	ldi	r24, 0x01	; 1
    81a4:	90 e0       	ldi	r25, 0x00	; 0
    81a6:	0e 94 14 25 	call	0x4a28	; 0x4a28 <Delay_ms>
      ADCSRA = 0x84;				// ADC enable, 1MHz
      ADMUX = 0xC2;				// select ADC2 with 2.56V
      Delay_us(150);

      result = 0;
      for(i = 0; i < 16; i++)			// read ADC by 16 times
    81aa:	f3 94       	inc	r15
    81ac:	30 e1       	ldi	r19, 0x10	; 16
    81ae:	f3 16       	cp	r15, r19
    81b0:	61 f7       	brne	.-40     	; 0x818a <Test7+0x1a0>
  TFT_command(0x22);
}

void TFT_xy(U08 xChar, U08 yChar)		/* set character position (x,y) */
{
  Xcharacter = xChar;
    81b2:	70 92 3c 0c 	sts	0x0C3C, r7
  Ycharacter = yChar;
    81b6:	30 92 45 0b 	sts	0x0B45, r3
}

void TFT_color(U16 colorfore, U16 colorback)	/* set foreground and background color */
{
  foreground = colorfore;
    81ba:	90 92 50 0b 	sts	0x0B50, r9
    81be:	80 92 4f 0b 	sts	0x0B4F, r8
  background = colorback;
    81c2:	10 92 56 0b 	sts	0x0B56, r1
    81c6:	10 92 55 0b 	sts	0x0B55, r1

      result >>= 4;				// divide result by 16

      TFT_xy(18,24);				// display temperature
      TFT_color(Cyan,Black);
      TFT_unsigned_float(result*51.2/1024., 2, 1); // Temp = result*51.2/1024
    81ca:	54 e0       	ldi	r21, 0x04	; 4
    81cc:	15 95       	asr	r17
    81ce:	07 95       	ror	r16
    81d0:	5a 95       	dec	r21
    81d2:	e1 f7       	brne	.-8      	; 0x81cc <Test7+0x1e2>
    81d4:	b8 01       	movw	r22, r16
    81d6:	88 27       	eor	r24, r24
    81d8:	77 fd       	sbrc	r23, 7
    81da:	80 95       	com	r24
    81dc:	98 2f       	mov	r25, r24
    81de:	0e 94 55 5b 	call	0xb6aa	; 0xb6aa <__floatsisf>
    81e2:	2d ec       	ldi	r18, 0xCD	; 205
    81e4:	3c ec       	ldi	r19, 0xCC	; 204
    81e6:	4c e4       	ldi	r20, 0x4C	; 76
    81e8:	52 e4       	ldi	r21, 0x42	; 66
    81ea:	0e 94 1e 5c 	call	0xb83c	; 0xb83c <__mulsf3>
    81ee:	20 e0       	ldi	r18, 0x00	; 0
    81f0:	30 e0       	ldi	r19, 0x00	; 0
    81f2:	40 e8       	ldi	r20, 0x80	; 128
    81f4:	5a e3       	ldi	r21, 0x3A	; 58
    81f6:	0e 94 1e 5c 	call	0xb83c	; 0xb83c <__mulsf3>
    81fa:	42 e0       	ldi	r20, 0x02	; 2
    81fc:	21 e0       	ldi	r18, 0x01	; 1
    81fe:	0e 94 bd 30 	call	0x617a	; 0x617a <TFT_unsigned_float>

      ADCSRA = 0x84;				// ADC enable, 1MHz
    8202:	56 b8       	out	0x06, r5	; 6
      ADMUX = 0x43;				// select ADC3 with AVCC
    8204:	27 b8       	out	0x07, r2	; 7
      Delay_us(150);
    8206:	86 e9       	ldi	r24, 0x96	; 150
    8208:	0e 94 08 25 	call	0x4a10	; 0x4a10 <Delay_us>
    820c:	ff 24       	eor	r15, r15
    820e:	00 e0       	ldi	r16, 0x00	; 0
    8210:	10 e0       	ldi	r17, 0x00	; 0

      result = 0;
      for(i = 0; i < 16; i++)			// read ADC by 16 times
        { ADCSRA = 0xD4;			// start conversion and clear ADIF
    8212:	66 b8       	out	0x06, r6	; 6
          while((ADCSRA & 0x10) != 0x10);
    8214:	34 9b       	sbis	0x06, 4	; 6
    8216:	fe cf       	rjmp	.-4      	; 0x8214 <Test7+0x22a>
          result += ADCL + ADCH*256;		// add A/D result 16 times
    8218:	94 b1       	in	r25, 0x04	; 4
    821a:	85 b1       	in	r24, 0x05	; 5
    821c:	b8 2e       	mov	r11, r24
    821e:	aa 24       	eor	r10, r10
    8220:	95 01       	movw	r18, r10
    8222:	29 0f       	add	r18, r25
    8224:	31 1d       	adc	r19, r1
    8226:	02 0f       	add	r16, r18
    8228:	13 1f       	adc	r17, r19
          Delay_ms(1);
    822a:	81 e0       	ldi	r24, 0x01	; 1
    822c:	90 e0       	ldi	r25, 0x00	; 0
    822e:	0e 94 14 25 	call	0x4a28	; 0x4a28 <Delay_ms>
      ADCSRA = 0x84;				// ADC enable, 1MHz
      ADMUX = 0x43;				// select ADC3 with AVCC
      Delay_us(150);

      result = 0;
      for(i = 0; i < 16; i++)			// read ADC by 16 times
    8232:	f3 94       	inc	r15
    8234:	30 e1       	ldi	r19, 0x10	; 16
    8236:	f3 16       	cp	r15, r19
    8238:	61 f7       	brne	.-40     	; 0x8212 <Test7+0x228>
  TFT_command(0x22);
}

void TFT_xy(U08 xChar, U08 yChar)		/* set character position (x,y) */
{
  Xcharacter = xChar;
    823a:	70 92 3c 0c 	sts	0x0C3C, r7
  Ycharacter = yChar;
    823e:	40 92 45 0b 	sts	0x0B45, r4
}

void TFT_color(U16 colorfore, U16 colorback)	/* set foreground and background color */
{
  foreground = colorfore;
    8242:	90 92 50 0b 	sts	0x0B50, r9
    8246:	80 92 4f 0b 	sts	0x0B4F, r8
  background = colorback;
    824a:	10 92 56 0b 	sts	0x0B56, r1
    824e:	10 92 55 0b 	sts	0x0B55, r1

      result >>= 4;				// divide result by 16

      TFT_xy(18,28);				// display voltage
      TFT_color(Cyan,Black);
      TFT_unsigned_float(result*5./1024., 1, 2); // Volt = result*5/1024
    8252:	44 e0       	ldi	r20, 0x04	; 4
    8254:	15 95       	asr	r17
    8256:	07 95       	ror	r16
    8258:	4a 95       	dec	r20
    825a:	e1 f7       	brne	.-8      	; 0x8254 <Test7+0x26a>
    825c:	b8 01       	movw	r22, r16
    825e:	88 27       	eor	r24, r24
    8260:	77 fd       	sbrc	r23, 7
    8262:	80 95       	com	r24
    8264:	98 2f       	mov	r25, r24
    8266:	0e 94 55 5b 	call	0xb6aa	; 0xb6aa <__floatsisf>
    826a:	20 e0       	ldi	r18, 0x00	; 0
    826c:	30 e0       	ldi	r19, 0x00	; 0
    826e:	40 ea       	ldi	r20, 0xA0	; 160
    8270:	50 e4       	ldi	r21, 0x40	; 64
    8272:	0e 94 1e 5c 	call	0xb83c	; 0xb83c <__mulsf3>
    8276:	20 e0       	ldi	r18, 0x00	; 0
    8278:	30 e0       	ldi	r19, 0x00	; 0
    827a:	40 e8       	ldi	r20, 0x80	; 128
    827c:	5a e3       	ldi	r21, 0x3A	; 58
    827e:	0e 94 1e 5c 	call	0xb83c	; 0xb83c <__mulsf3>
    8282:	41 e0       	ldi	r20, 0x01	; 1
    8284:	22 e0       	ldi	r18, 0x02	; 2
    8286:	0e 94 bd 30 	call	0x617a	; 0x617a <TFT_unsigned_float>

      Delay_ms(200);
    828a:	88 ec       	ldi	r24, 0xC8	; 200
    828c:	90 e0       	ldi	r25, 0x00	; 0
    828e:	0e 94 14 25 	call	0x4a28	; 0x4a28 <Delay_ms>
  TFT_xy(22,24);
  TFT_English(0x7F);
  TFT_string(5,28,White,Black,"ADC3() = 0.00V");


  for(time = 0; time < 40; time++)		// 10 sec
    8292:	e3 94       	inc	r14
    8294:	88 e2       	ldi	r24, 0x28	; 40
    8296:	e8 16       	cp	r14, r24
    8298:	09 f0       	breq	.+2      	; 0x829c <Test7+0x2b2>
    829a:	28 cf       	rjmp	.-432    	; 0x80ec <Test7+0x102>
      TFT_color(Cyan,Black);
      TFT_unsigned_float(result*5./1024., 1, 2); // Volt = result*5/1024

      Delay_ms(200);
    }
}
    829c:	df 91       	pop	r29
    829e:	cf 91       	pop	r28
    82a0:	1f 91       	pop	r17
    82a2:	0f 91       	pop	r16
    82a4:	ff 90       	pop	r15
    82a6:	ef 90       	pop	r14
    82a8:	df 90       	pop	r13
    82aa:	cf 90       	pop	r12
    82ac:	bf 90       	pop	r11
    82ae:	af 90       	pop	r10
    82b0:	9f 90       	pop	r9
    82b2:	8f 90       	pop	r8
    82b4:	7f 90       	pop	r7
    82b6:	6f 90       	pop	r6
    82b8:	5f 90       	pop	r5
    82ba:	4f 90       	pop	r4
    82bc:	3f 90       	pop	r3
    82be:	2f 90       	pop	r2
    82c0:	08 95       	ret

000082c2 <__vector_12>:
  while(period_count < 5000);			// wait 5 sec
  cli();
}

ISR(TIMER1_COMPA_vect)				/* OC1A interrupt function */
{
    82c2:	1f 92       	push	r1
    82c4:	0f 92       	push	r0
    82c6:	0f b6       	in	r0, 0x3f	; 63
    82c8:	0f 92       	push	r0
    82ca:	0b b6       	in	r0, 0x3b	; 59
    82cc:	0f 92       	push	r0
    82ce:	11 24       	eor	r1, r1
    82d0:	8f 93       	push	r24
    82d2:	9f 93       	push	r25
    82d4:	ef 93       	push	r30
    82d6:	ff 93       	push	r31
  PORTA = DAC_data[data_count];
    82d8:	e0 91 57 0b 	lds	r30, 0x0B57
    82dc:	f0 e0       	ldi	r31, 0x00	; 0
    82de:	e0 5a       	subi	r30, 0xA0	; 160
    82e0:	f4 4f       	sbci	r31, 0xF4	; 244
    82e2:	80 81       	ld	r24, Z
    82e4:	8b bb       	out	0x1b, r24	; 27

  data_count++;
    82e6:	80 91 57 0b 	lds	r24, 0x0B57
    82ea:	8f 5f       	subi	r24, 0xFF	; 255
    82ec:	80 93 57 0b 	sts	0x0B57, r24
  if(data_count == 200)
    82f0:	80 91 57 0b 	lds	r24, 0x0B57
    82f4:	88 3c       	cpi	r24, 0xC8	; 200
    82f6:	59 f4       	brne	.+22     	; 0x830e <__vector_12+0x4c>
    { data_count = 0;
    82f8:	10 92 57 0b 	sts	0x0B57, r1
      period_count++;
    82fc:	80 91 53 0b 	lds	r24, 0x0B53
    8300:	90 91 54 0b 	lds	r25, 0x0B54
    8304:	01 96       	adiw	r24, 0x01	; 1
    8306:	90 93 54 0b 	sts	0x0B54, r25
    830a:	80 93 53 0b 	sts	0x0B53, r24
    }
}
    830e:	ff 91       	pop	r31
    8310:	ef 91       	pop	r30
    8312:	9f 91       	pop	r25
    8314:	8f 91       	pop	r24
    8316:	0f 90       	pop	r0
    8318:	0b be       	out	0x3b, r0	; 59
    831a:	0f 90       	pop	r0
    831c:	0f be       	out	0x3f, r0	; 63
    831e:	0f 90       	pop	r0
    8320:	1f 90       	pop	r1
    8322:	18 95       	reti

00008324 <Waveform_start>:

void Waveform_start(void)			/* start waveform by OC1A interrupt */
{
  data_count = 0;
    8324:	10 92 57 0b 	sts	0x0B57, r1
  period_count = 0;
    8328:	10 92 54 0b 	sts	0x0B54, r1
    832c:	10 92 53 0b 	sts	0x0B53, r1

  TCCR1A = 0x00;				// CTC mode(4), don't output OC1A
    8330:	1f bc       	out	0x2f, r1	; 47
  TCCR1B = 0x0A;				// 16MHz/8/(1+9) = 200kHz
    8332:	8a e0       	ldi	r24, 0x0A	; 10
    8334:	8e bd       	out	0x2e, r24	; 46
  TCCR1C = 0x00;
    8336:	10 92 7a 00 	sts	0x007A, r1
  OCR1A = 9;
    833a:	89 e0       	ldi	r24, 0x09	; 9
    833c:	90 e0       	ldi	r25, 0x00	; 0
    833e:	9b bd       	out	0x2b, r25	; 43
    8340:	8a bd       	out	0x2a, r24	; 42
  TCNT1 = 0x0000;
    8342:	1d bc       	out	0x2d, r1	; 45
    8344:	1c bc       	out	0x2c, r1	; 44

  TIMSK = 0x10;					// enable OC1A interrupt
    8346:	80 e1       	ldi	r24, 0x10	; 16
    8348:	87 bf       	out	0x37, r24	; 55
  ETIMSK = 0x00;
    834a:	10 92 7d 00 	sts	0x007D, r1
  TIFR = 0x3C;					// clear all interrupt flags
    834e:	8c e3       	ldi	r24, 0x3C	; 60
    8350:	86 bf       	out	0x36, r24	; 54
  ETIFR = 0x01;
    8352:	81 e0       	ldi	r24, 0x01	; 1
    8354:	80 93 7c 00 	sts	0x007C, r24
  sei();					// global interrupt enable
    8358:	78 94       	sei
}
    835a:	08 95       	ret

0000835c <Test9>:

/* ---------------------------------------------------------------------------- */

void Test9(void)				/* Test 9 */
{
    835c:	6f 92       	push	r6
    835e:	7f 92       	push	r7
    8360:	8f 92       	push	r8
    8362:	9f 92       	push	r9
    8364:	af 92       	push	r10
    8366:	bf 92       	push	r11
    8368:	cf 92       	push	r12
    836a:	df 92       	push	r13
    836c:	ef 92       	push	r14
    836e:	ff 92       	push	r15
    8370:	0f 93       	push	r16
    8372:	1f 93       	push	r17
    8374:	df 93       	push	r29
    8376:	cf 93       	push	r28
    8378:	cd b7       	in	r28, 0x3d	; 61
    837a:	de b7       	in	r29, 0x3e	; 62
    837c:	29 97       	sbiw	r28, 0x09	; 9
    837e:	0f b6       	in	r0, 0x3f	; 63
    8380:	f8 94       	cli
    8382:	de bf       	out	0x3e, r29	; 62
    8384:	0f be       	out	0x3f, r0	; 63
    8386:	cd bf       	out	0x3d, r28	; 61
  unsigned char i, test_flag, RxD;
  unsigned char character[9] = { "OK-128TFT" };
    8388:	de 01       	movw	r26, r28
    838a:	11 96       	adiw	r26, 0x01	; 1
    838c:	e0 e0       	ldi	r30, 0x00	; 0
    838e:	f9 e0       	ldi	r31, 0x09	; 9
    8390:	89 e0       	ldi	r24, 0x09	; 9
    8392:	01 90       	ld	r0, Z+
    8394:	0d 92       	st	X+, r0
    8396:	81 50       	subi	r24, 0x01	; 1
    8398:	e1 f7       	brne	.-8      	; 0x8392 <Test9+0x36>

  TFT_clear_screen();				// clear screen
    839a:	0e 94 cf 28 	call	0x519e	; 0x519e <TFT_clear_screen>
  TFT_portrait();				// portrait mode
    839e:	0e 94 a0 2a 	call	0x5540	; 0x5540 <TFT_portrait>

  Rectangle(0,0, 239,319, Green);		// display title
    83a2:	80 e0       	ldi	r24, 0x00	; 0
    83a4:	90 e0       	ldi	r25, 0x00	; 0
    83a6:	60 e0       	ldi	r22, 0x00	; 0
    83a8:	70 e0       	ldi	r23, 0x00	; 0
    83aa:	4f ee       	ldi	r20, 0xEF	; 239
    83ac:	50 e0       	ldi	r21, 0x00	; 0
    83ae:	2f e3       	ldi	r18, 0x3F	; 63
    83b0:	31 e0       	ldi	r19, 0x01	; 1
    83b2:	00 ee       	ldi	r16, 0xE0	; 224
    83b4:	17 e0       	ldi	r17, 0x07	; 7
    83b6:	0e 94 14 33 	call	0x6628	; 0x6628 <Rectangle>
  Rectangle(1,1, 238,318, Green);
    83ba:	81 e0       	ldi	r24, 0x01	; 1
    83bc:	90 e0       	ldi	r25, 0x00	; 0
    83be:	61 e0       	ldi	r22, 0x01	; 1
    83c0:	70 e0       	ldi	r23, 0x00	; 0
    83c2:	4e ee       	ldi	r20, 0xEE	; 238
    83c4:	50 e0       	ldi	r21, 0x00	; 0
    83c6:	2e e3       	ldi	r18, 0x3E	; 62
    83c8:	31 e0       	ldi	r19, 0x01	; 1
    83ca:	0e 94 14 33 	call	0x6628	; 0x6628 <Rectangle>
  Rectangle(2,2, 237,317, Green);
    83ce:	82 e0       	ldi	r24, 0x02	; 2
    83d0:	90 e0       	ldi	r25, 0x00	; 0
    83d2:	62 e0       	ldi	r22, 0x02	; 2
    83d4:	70 e0       	ldi	r23, 0x00	; 0
    83d6:	4d ee       	ldi	r20, 0xED	; 237
    83d8:	50 e0       	ldi	r21, 0x00	; 0
    83da:	2d e3       	ldi	r18, 0x3D	; 61
    83dc:	31 e0       	ldi	r19, 0x01	; 1
    83de:	0e 94 14 33 	call	0x6628	; 0x6628 <Rectangle>
  TFT_string(3,10,Green,Magenta,"(9) RS-232C  ");
    83e2:	83 e0       	ldi	r24, 0x03	; 3
    83e4:	6a e0       	ldi	r22, 0x0A	; 10
    83e6:	40 ee       	ldi	r20, 0xE0	; 224
    83e8:	57 e0       	ldi	r21, 0x07	; 7
    83ea:	2f e1       	ldi	r18, 0x1F	; 31
    83ec:	38 ef       	ldi	r19, 0xF8	; 248
    83ee:	05 e7       	ldi	r16, 0x75	; 117
    83f0:	18 e0       	ldi	r17, 0x08	; 8
    83f2:	0e 94 28 2f 	call	0x5e50	; 0x5e50 <TFT_string>

  TFT_string(9,13,White,Black,"CN5 ");
    83f6:	89 e0       	ldi	r24, 0x09	; 9
    83f8:	6d e0       	ldi	r22, 0x0D	; 13
    83fa:	4f ef       	ldi	r20, 0xFF	; 255
    83fc:	5f ef       	ldi	r21, 0xFF	; 255
    83fe:	20 e0       	ldi	r18, 0x00	; 0
    8400:	30 e0       	ldi	r19, 0x00	; 0
    8402:	0d e8       	ldi	r16, 0x8D	; 141
    8404:	18 e0       	ldi	r17, 0x08	; 8
    8406:	0e 94 28 2f 	call	0x5e50	; 0x5e50 <TFT_string>
  TFT_string(2,15,White,Black,"RS-232C  ");
    840a:	82 e0       	ldi	r24, 0x02	; 2
    840c:	6f e0       	ldi	r22, 0x0F	; 15
    840e:	4f ef       	ldi	r20, 0xFF	; 255
    8410:	5f ef       	ldi	r21, 0xFF	; 255
    8412:	20 e0       	ldi	r18, 0x00	; 0
    8414:	30 e0       	ldi	r19, 0x00	; 0
    8416:	0a e9       	ldi	r16, 0x9A	; 154
    8418:	18 e0       	ldi	r17, 0x08	; 8
    841a:	0e 94 28 2f 	call	0x5e50	; 0x5e50 <TFT_string>
  TFT_string(1,17,White,Black,"2 3 !");
    841e:	81 e0       	ldi	r24, 0x01	; 1
    8420:	61 e1       	ldi	r22, 0x11	; 17
    8422:	4f ef       	ldi	r20, 0xFF	; 255
    8424:	5f ef       	ldi	r21, 0xFF	; 255
    8426:	20 e0       	ldi	r18, 0x00	; 0
    8428:	30 e0       	ldi	r19, 0x00	; 0
    842a:	04 eb       	ldi	r16, 0xB4	; 180
    842c:	18 e0       	ldi	r17, 0x08	; 8
    842e:	0e 94 28 2f 	call	0x5e50	; 0x5e50 <TFT_string>

  TFT_string( 4,22,Cyan, Black,"  : ");
    8432:	84 e0       	ldi	r24, 0x04	; 4
    8434:	66 e1       	ldi	r22, 0x16	; 22
    8436:	4f ef       	ldi	r20, 0xFF	; 255
    8438:	57 e0       	ldi	r21, 0x07	; 7
    843a:	20 e0       	ldi	r18, 0x00	; 0
    843c:	30 e0       	ldi	r19, 0x00	; 0
    843e:	00 ed       	ldi	r16, 0xD0	; 208
    8440:	18 e0       	ldi	r17, 0x08	; 8
    8442:	0e 94 28 2f 	call	0x5e50	; 0x5e50 <TFT_string>
  TFT_string( 4,25,Cyan, Black,"  : ");
    8446:	84 e0       	ldi	r24, 0x04	; 4
    8448:	69 e1       	ldi	r22, 0x19	; 25
    844a:	4f ef       	ldi	r20, 0xFF	; 255
    844c:	57 e0       	ldi	r21, 0x07	; 7
    844e:	20 e0       	ldi	r18, 0x00	; 0
    8450:	30 e0       	ldi	r19, 0x00	; 0
    8452:	0d ed       	ldi	r16, 0xDD	; 221
    8454:	18 e0       	ldi	r17, 0x08	; 8
    8456:	0e 94 28 2f 	call	0x5e50	; 0x5e50 <TFT_string>
  Delay_ms(500);
    845a:	84 ef       	ldi	r24, 0xF4	; 244
    845c:	91 e0       	ldi	r25, 0x01	; 1
    845e:	0e 94 14 25 	call	0x4a28	; 0x4a28 <Delay_ms>

  UBRR1H = 0;					// 19200 bps
    8462:	10 92 98 00 	sts	0x0098, r1
  UBRR1L = 51;
    8466:	83 e3       	ldi	r24, 0x33	; 51
    8468:	80 93 99 00 	sts	0x0099, r24
  UCSR1A = 0x00;				// asynchronous normal mode
    846c:	10 92 9b 00 	sts	0x009B, r1
  UCSR1B = 0x18;				// Rx/Tx enable, 8 data
    8470:	88 e1       	ldi	r24, 0x18	; 24
    8472:	80 93 9a 00 	sts	0x009A, r24
  UCSR1C = 0x06;				// no parity, 1 stop, 8 data
    8476:	86 e0       	ldi	r24, 0x06	; 6
    8478:	80 93 9d 00 	sts	0x009D, r24
  Delay_ms(1);
    847c:	81 e0       	ldi	r24, 0x01	; 1
    847e:	90 e0       	ldi	r25, 0x00	; 0
    8480:	0e 94 14 25 	call	0x4a28	; 0x4a28 <Delay_ms>
  RxD = UDR1;					// dummy read
    8484:	80 91 9c 00 	lds	r24, 0x009C
    8488:	7e 01       	movw	r14, r28
    848a:	08 94       	sec
    848c:	e1 1c       	adc	r14, r1
    848e:	f1 1c       	adc	r15, r1
    8490:	cc 24       	eor	r12, r12
    8492:	50 e1       	ldi	r21, 0x10	; 16
    8494:	d5 2e       	mov	r13, r21
}

void TFT_xy(U08 xChar, U08 yChar)		/* set character position (x,y) */
{
  Xcharacter = xChar;
  Ycharacter = yChar;
    8496:	46 e1       	ldi	r20, 0x16	; 22
    8498:	64 2e       	mov	r6, r20
}

void TFT_color(U16 colorfore, U16 colorback)	/* set foreground and background color */
{
  foreground = colorfore;
    849a:	30 ee       	ldi	r19, 0xE0	; 224
    849c:	83 2e       	mov	r8, r19
    849e:	37 e0       	ldi	r19, 0x07	; 7
    84a0:	93 2e       	mov	r9, r19
}

void TFT_xy(U08 xChar, U08 yChar)		/* set character position (x,y) */
{
  Xcharacter = xChar;
  Ycharacter = yChar;
    84a2:	29 e1       	ldi	r18, 0x19	; 25
    84a4:	72 2e       	mov	r7, r18
}

void TFT_color(U16 colorfore, U16 colorback)	/* set foreground and background color */
{
  foreground = colorfore;
    84a6:	9f e1       	ldi	r25, 0x1F	; 31
    84a8:	a9 2e       	mov	r10, r25
    84aa:	98 ef       	ldi	r25, 0xF8	; 248
    84ac:	b9 2e       	mov	r11, r25

  test_flag = 0;
  for(i = 0; i < 9; i++)
    { UDR1 = character[i];			// transmit test data
    84ae:	f7 01       	movw	r30, r14
    84b0:	10 81       	ld	r17, Z
    84b2:	10 93 9c 00 	sts	0x009C, r17
  TFT_command(0x22);
}

void TFT_xy(U08 xChar, U08 yChar)		/* set character position (x,y) */
{
  Xcharacter = xChar;
    84b6:	d0 92 3c 0c 	sts	0x0C3C, r13
  Ycharacter = yChar;
    84ba:	60 92 45 0b 	sts	0x0B45, r6
}

void TFT_color(U16 colorfore, U16 colorback)	/* set foreground and background color */
{
  foreground = colorfore;
    84be:	90 92 50 0b 	sts	0x0B50, r9
    84c2:	80 92 4f 0b 	sts	0x0B4F, r8
  background = colorback;
    84c6:	10 92 56 0b 	sts	0x0B56, r1
    84ca:	10 92 55 0b 	sts	0x0B55, r1
      TFT_xy(16+i,22);				// display transmitted test data
      TFT_color(Green,Black);
      TFT_English(character[i]);
    84ce:	81 2f       	mov	r24, r17
    84d0:	0e 94 3e 2b 	call	0x567c	; 0x567c <TFT_English>
      Delay_ms(10);
    84d4:	8a e0       	ldi	r24, 0x0A	; 10
    84d6:	90 e0       	ldi	r25, 0x00	; 0
    84d8:	0e 94 14 25 	call	0x4a28	; 0x4a28 <Delay_ms>

      RxD = UDR1;				// receive test data
    84dc:	00 91 9c 00 	lds	r16, 0x009C
  TFT_command(0x22);
}

void TFT_xy(U08 xChar, U08 yChar)		/* set character position (x,y) */
{
  Xcharacter = xChar;
    84e0:	d0 92 3c 0c 	sts	0x0C3C, r13
  Ycharacter = yChar;
    84e4:	70 92 45 0b 	sts	0x0B45, r7
}

void TFT_color(U16 colorfore, U16 colorback)	/* set foreground and background color */
{
  foreground = colorfore;
    84e8:	b0 92 50 0b 	sts	0x0B50, r11
    84ec:	a0 92 4f 0b 	sts	0x0B4F, r10
  background = colorback;
    84f0:	10 92 56 0b 	sts	0x0B56, r1
    84f4:	10 92 55 0b 	sts	0x0B55, r1
      TFT_xy(16+i,25);				// display transmitted test data
      TFT_color(Magenta,Black);
      TFT_English(RxD);
    84f8:	80 2f       	mov	r24, r16
    84fa:	0e 94 3e 2b 	call	0x567c	; 0x567c <TFT_English>

      if(RxD == character[i])			// data OK ?
    84fe:	01 17       	cp	r16, r17
    8500:	09 f4       	brne	.+2      	; 0x8504 <Test9+0x1a8>
        test_flag++;
    8502:	c3 94       	inc	r12

      Delay_ms(500);
    8504:	84 ef       	ldi	r24, 0xF4	; 244
    8506:	91 e0       	ldi	r25, 0x01	; 1
    8508:	0e 94 14 25 	call	0x4a28	; 0x4a28 <Delay_ms>
    850c:	08 94       	sec
    850e:	e1 1c       	adc	r14, r1
    8510:	f1 1c       	adc	r15, r1
    8512:	d3 94       	inc	r13
  UCSR1C = 0x06;				// no parity, 1 stop, 8 data
  Delay_ms(1);
  RxD = UDR1;					// dummy read

  test_flag = 0;
  for(i = 0; i < 9; i++)
    8514:	f9 e1       	ldi	r31, 0x19	; 25
    8516:	df 16       	cp	r13, r31
    8518:	51 f6       	brne	.-108    	; 0x84ae <Test9+0x152>
        test_flag++;

      Delay_ms(500);
    }

  if(test_flag == 9)
    851a:	89 e0       	ldi	r24, 0x09	; 9
    851c:	c8 16       	cp	r12, r24
    851e:	69 f4       	brne	.+26     	; 0x853a <Test9+0x1de>
    { TFT_string(10,30,Green,Black," OK !");
    8520:	8a e0       	ldi	r24, 0x0A	; 10
    8522:	6e e1       	ldi	r22, 0x1E	; 30
    8524:	40 ee       	ldi	r20, 0xE0	; 224
    8526:	57 e0       	ldi	r21, 0x07	; 7
    8528:	20 e0       	ldi	r18, 0x00	; 0
    852a:	30 e0       	ldi	r19, 0x00	; 0
    852c:	0a ee       	ldi	r16, 0xEA	; 234
    852e:	18 e0       	ldi	r17, 0x08	; 8
    8530:	0e 94 28 2f 	call	0x5e50	; 0x5e50 <TFT_string>
      Beep();
    8534:	0e 94 31 25 	call	0x4a62	; 0x4a62 <Beep>
    8538:	0c c0       	rjmp	.+24     	; 0x8552 <Test9+0x1f6>
    }
  else
    { TFT_string(9,30,Magenta,Black,"  !");
    853a:	89 e0       	ldi	r24, 0x09	; 9
    853c:	6e e1       	ldi	r22, 0x1E	; 30
    853e:	4f e1       	ldi	r20, 0x1F	; 31
    8540:	58 ef       	ldi	r21, 0xF8	; 248
    8542:	20 e0       	ldi	r18, 0x00	; 0
    8544:	30 e0       	ldi	r19, 0x00	; 0
    8546:	04 ef       	ldi	r16, 0xF4	; 244
    8548:	18 e0       	ldi	r17, 0x08	; 8
    854a:	0e 94 28 2f 	call	0x5e50	; 0x5e50 <TFT_string>
      Beep_3times();
    854e:	0e 94 38 25 	call	0x4a70	; 0x4a70 <Beep_3times>
    }

  Delay_ms(2000);
    8552:	80 ed       	ldi	r24, 0xD0	; 208
    8554:	97 e0       	ldi	r25, 0x07	; 7
    8556:	0e 94 14 25 	call	0x4a28	; 0x4a28 <Delay_ms>
}
    855a:	29 96       	adiw	r28, 0x09	; 9
    855c:	0f b6       	in	r0, 0x3f	; 63
    855e:	f8 94       	cli
    8560:	de bf       	out	0x3e, r29	; 62
    8562:	0f be       	out	0x3f, r0	; 63
    8564:	cd bf       	out	0x3d, r28	; 61
    8566:	cf 91       	pop	r28
    8568:	df 91       	pop	r29
    856a:	1f 91       	pop	r17
    856c:	0f 91       	pop	r16
    856e:	ff 90       	pop	r15
    8570:	ef 90       	pop	r14
    8572:	df 90       	pop	r13
    8574:	cf 90       	pop	r12
    8576:	bf 90       	pop	r11
    8578:	af 90       	pop	r10
    857a:	9f 90       	pop	r9
    857c:	8f 90       	pop	r8
    857e:	7f 90       	pop	r7
    8580:	6f 90       	pop	r6
    8582:	08 95       	ret

00008584 <DS1307_read>:
      DS1307_write(0x06, 0x10);			// year = 0x2010
    }
}

unsigned char DS1307_read(U08 address)		/* read DS1307 */
{
    8584:	1f 93       	push	r17
    8586:	98 2f       	mov	r25, r24
  unsigned char RxD;

  TWCR = 0xA4;					// START condition
    8588:	84 ea       	ldi	r24, 0xA4	; 164
    858a:	80 93 74 00 	sts	0x0074, r24
  while(((TWCR & 0x80) == 0x00) || ((TWSR & 0xF8) != 0x08)); // START complete ?
    858e:	80 91 74 00 	lds	r24, 0x0074
    8592:	87 ff       	sbrs	r24, 7
    8594:	fc cf       	rjmp	.-8      	; 0x858e <DS1307_read+0xa>
    8596:	80 91 71 00 	lds	r24, 0x0071
    859a:	88 7f       	andi	r24, 0xF8	; 248
    859c:	88 30       	cpi	r24, 0x08	; 8
    859e:	b9 f7       	brne	.-18     	; 0x858e <DS1307_read+0xa>

  TWDR = 0xD0;					// SLA+W
    85a0:	80 ed       	ldi	r24, 0xD0	; 208
    85a2:	80 93 73 00 	sts	0x0073, r24
  TWCR = 0x84;
    85a6:	84 e8       	ldi	r24, 0x84	; 132
    85a8:	80 93 74 00 	sts	0x0074, r24
  while(((TWCR & 0x80) == 0x00) || ((TWSR & 0xF8) != 0x18)); // SLA+W complete ?
    85ac:	80 91 74 00 	lds	r24, 0x0074
    85b0:	87 ff       	sbrs	r24, 7
    85b2:	fc cf       	rjmp	.-8      	; 0x85ac <DS1307_read+0x28>
    85b4:	80 91 71 00 	lds	r24, 0x0071
    85b8:	88 7f       	andi	r24, 0xF8	; 248
    85ba:	88 31       	cpi	r24, 0x18	; 24
    85bc:	b9 f7       	brne	.-18     	; 0x85ac <DS1307_read+0x28>

  TWDR = address;				// DS1307 address
    85be:	90 93 73 00 	sts	0x0073, r25
  TWCR = 0x84;
    85c2:	84 e8       	ldi	r24, 0x84	; 132
    85c4:	80 93 74 00 	sts	0x0074, r24
  while(((TWCR & 0x80) == 0x00) || ((TWSR & 0xF8) != 0x28)); // address complete ?
    85c8:	80 91 74 00 	lds	r24, 0x0074
    85cc:	87 ff       	sbrs	r24, 7
    85ce:	fc cf       	rjmp	.-8      	; 0x85c8 <DS1307_read+0x44>
    85d0:	80 91 71 00 	lds	r24, 0x0071
    85d4:	88 7f       	andi	r24, 0xF8	; 248
    85d6:	88 32       	cpi	r24, 0x28	; 40
    85d8:	b9 f7       	brne	.-18     	; 0x85c8 <DS1307_read+0x44>

  TWCR = 0xA4;					// REPEATED START condition
    85da:	84 ea       	ldi	r24, 0xA4	; 164
    85dc:	80 93 74 00 	sts	0x0074, r24
  while(((TWCR & 0x80) == 0x00) || ((TWSR & 0xF8) != 0x10)); // START complete ?
    85e0:	80 91 74 00 	lds	r24, 0x0074
    85e4:	87 ff       	sbrs	r24, 7
    85e6:	fc cf       	rjmp	.-8      	; 0x85e0 <DS1307_read+0x5c>
    85e8:	80 91 71 00 	lds	r24, 0x0071
    85ec:	88 7f       	andi	r24, 0xF8	; 248
    85ee:	80 31       	cpi	r24, 0x10	; 16
    85f0:	b9 f7       	brne	.-18     	; 0x85e0 <DS1307_read+0x5c>

  TWDR = 0xD1;					// SLA+R
    85f2:	81 ed       	ldi	r24, 0xD1	; 209
    85f4:	80 93 73 00 	sts	0x0073, r24
  TWCR = 0x84;
    85f8:	84 e8       	ldi	r24, 0x84	; 132
    85fa:	80 93 74 00 	sts	0x0074, r24
  while(((TWCR & 0x80) == 0x00) || ((TWSR & 0xF8) != 0x40)); // SLA+R complete ?
    85fe:	80 91 74 00 	lds	r24, 0x0074
    8602:	87 ff       	sbrs	r24, 7
    8604:	fc cf       	rjmp	.-8      	; 0x85fe <DS1307_read+0x7a>
    8606:	80 91 71 00 	lds	r24, 0x0071
    860a:	88 7f       	andi	r24, 0xF8	; 248
    860c:	80 34       	cpi	r24, 0x40	; 64
    860e:	b9 f7       	brne	.-18     	; 0x85fe <DS1307_read+0x7a>

  TWCR = 0x84;					// read time data with no acknowledge
    8610:	84 e8       	ldi	r24, 0x84	; 132
    8612:	80 93 74 00 	sts	0x0074, r24
  while(((TWCR & 0x80) == 0x00) || ((TWSR & 0xF8) != 0x58)); // data complete ?
    8616:	80 91 74 00 	lds	r24, 0x0074
    861a:	87 ff       	sbrs	r24, 7
    861c:	fc cf       	rjmp	.-8      	; 0x8616 <DS1307_read+0x92>
    861e:	80 91 71 00 	lds	r24, 0x0071
    8622:	88 7f       	andi	r24, 0xF8	; 248
    8624:	88 35       	cpi	r24, 0x58	; 88
    8626:	b9 f7       	brne	.-18     	; 0x8616 <DS1307_read+0x92>
  RxD = TWDR;					// read data
    8628:	10 91 73 00 	lds	r17, 0x0073

  TWCR = 0x94;   		                // STOP condition
    862c:	84 e9       	ldi	r24, 0x94	; 148
    862e:	80 93 74 00 	sts	0x0074, r24
  Delay_us(10);
    8632:	8a e0       	ldi	r24, 0x0A	; 10
    8634:	0e 94 08 25 	call	0x4a10	; 0x4a10 <Delay_us>

  return RxD;
}
    8638:	81 2f       	mov	r24, r17
    863a:	1f 91       	pop	r17
    863c:	08 95       	ret

0000863e <DS1307_write>:

void DS1307_write(U08 address, U08 TxD)		/* write DS1307 */
{
    863e:	98 2f       	mov	r25, r24
  TWCR = 0xA4;					// START condition
    8640:	84 ea       	ldi	r24, 0xA4	; 164
    8642:	80 93 74 00 	sts	0x0074, r24
  while(((TWCR & 0x80) == 0x00) || ((TWSR & 0xF8) != 0x08)); // START complete ?
    8646:	80 91 74 00 	lds	r24, 0x0074
    864a:	87 ff       	sbrs	r24, 7
    864c:	fc cf       	rjmp	.-8      	; 0x8646 <DS1307_write+0x8>
    864e:	80 91 71 00 	lds	r24, 0x0071
    8652:	88 7f       	andi	r24, 0xF8	; 248
    8654:	88 30       	cpi	r24, 0x08	; 8
    8656:	b9 f7       	brne	.-18     	; 0x8646 <DS1307_write+0x8>

  TWDR = 0xD0;					// SLA+W
    8658:	80 ed       	ldi	r24, 0xD0	; 208
    865a:	80 93 73 00 	sts	0x0073, r24
  TWCR = 0x84;
    865e:	84 e8       	ldi	r24, 0x84	; 132
    8660:	80 93 74 00 	sts	0x0074, r24
  while(((TWCR & 0x80) == 0x00) || ((TWSR & 0xF8) != 0x18)); // SLA+W complete ?
    8664:	80 91 74 00 	lds	r24, 0x0074
    8668:	87 ff       	sbrs	r24, 7
    866a:	fc cf       	rjmp	.-8      	; 0x8664 <DS1307_write+0x26>
    866c:	80 91 71 00 	lds	r24, 0x0071
    8670:	88 7f       	andi	r24, 0xF8	; 248
    8672:	88 31       	cpi	r24, 0x18	; 24
    8674:	b9 f7       	brne	.-18     	; 0x8664 <DS1307_write+0x26>

  TWDR = address;				// DS1307 address
    8676:	90 93 73 00 	sts	0x0073, r25
  TWCR = 0x84;
    867a:	84 e8       	ldi	r24, 0x84	; 132
    867c:	80 93 74 00 	sts	0x0074, r24
  while(((TWCR & 0x80) == 0x00) || ((TWSR & 0xF8) != 0x28)); // address complete ?
    8680:	80 91 74 00 	lds	r24, 0x0074
    8684:	87 ff       	sbrs	r24, 7
    8686:	fc cf       	rjmp	.-8      	; 0x8680 <DS1307_write+0x42>
    8688:	80 91 71 00 	lds	r24, 0x0071
    868c:	88 7f       	andi	r24, 0xF8	; 248
    868e:	88 32       	cpi	r24, 0x28	; 40
    8690:	b9 f7       	brne	.-18     	; 0x8680 <DS1307_write+0x42>

  TWDR = TxD;					// write time data
    8692:	60 93 73 00 	sts	0x0073, r22
  TWCR = 0x84;
    8696:	84 e8       	ldi	r24, 0x84	; 132
    8698:	80 93 74 00 	sts	0x0074, r24
  while(((TWCR & 0x80) == 0x00) || ((TWSR & 0xF8) != 0x28)); // data complete ?
    869c:	80 91 74 00 	lds	r24, 0x0074
    86a0:	87 ff       	sbrs	r24, 7
    86a2:	fc cf       	rjmp	.-8      	; 0x869c <DS1307_write+0x5e>
    86a4:	80 91 71 00 	lds	r24, 0x0071
    86a8:	88 7f       	andi	r24, 0xF8	; 248
    86aa:	88 32       	cpi	r24, 0x28	; 40
    86ac:	b9 f7       	brne	.-18     	; 0x869c <DS1307_write+0x5e>

  TWCR = 0x94;					// STOP condition
    86ae:	84 e9       	ldi	r24, 0x94	; 148
    86b0:	80 93 74 00 	sts	0x0074, r24
  Delay_us(10);
    86b4:	8a e0       	ldi	r24, 0x0A	; 10
    86b6:	0e 94 08 25 	call	0x4a10	; 0x4a10 <Delay_us>
}
    86ba:	08 95       	ret

000086bc <DS1307_initialize>:

unsigned char year, month, date, weekday, hour, minute, second;

void DS1307_initialize(void)			/* initialize DS1307 RTC */
{
  TWBR = 18;					// 100kHz(TWBR=18, TWPS=1)
    86bc:	82 e1       	ldi	r24, 0x12	; 18
    86be:	80 93 70 00 	sts	0x0070, r24
  TWSR = 0x01;
    86c2:	81 e0       	ldi	r24, 0x01	; 1
    86c4:	80 93 71 00 	sts	0x0071, r24

  second =  DS1307_read(0x00);			// if CH = 1, initialize
    86c8:	80 e0       	ldi	r24, 0x00	; 0
    86ca:	0e 94 c2 42 	call	0x8584	; 0x8584 <DS1307_read>
    86ce:	80 93 5f 0b 	sts	0x0B5F, r24
  hour =  DS1307_read(0x02);			// if 24 hour system, initialize
    86d2:	82 e0       	ldi	r24, 0x02	; 2
    86d4:	0e 94 c2 42 	call	0x8584	; 0x8584 <DS1307_read>
    86d8:	98 2f       	mov	r25, r24
    86da:	80 93 33 0c 	sts	0x0C33, r24

  if(((second & 0x80) == 0x80) || ((hour & 0x40) == 0x00))
    86de:	80 91 5f 0b 	lds	r24, 0x0B5F
    86e2:	87 fd       	sbrc	r24, 7
    86e4:	02 c0       	rjmp	.+4      	; 0x86ea <DS1307_initialize+0x2e>
    86e6:	96 fd       	sbrc	r25, 6
    86e8:	1c c0       	rjmp	.+56     	; 0x8722 <DS1307_initialize+0x66>
    { DS1307_write(0x00, 0x00);			// second = 0x00
    86ea:	80 e0       	ldi	r24, 0x00	; 0
    86ec:	60 e0       	ldi	r22, 0x00	; 0
    86ee:	0e 94 1f 43 	call	0x863e	; 0x863e <DS1307_write>
      DS1307_write(0x01, 0x00);			// minute = 0x00
    86f2:	81 e0       	ldi	r24, 0x01	; 1
    86f4:	60 e0       	ldi	r22, 0x00	; 0
    86f6:	0e 94 1f 43 	call	0x863e	; 0x863e <DS1307_write>
      DS1307_write(0x02, 0x12 | 0x40);		// hour = 0x12 AM (12 hour system)
    86fa:	82 e0       	ldi	r24, 0x02	; 2
    86fc:	62 e5       	ldi	r22, 0x52	; 82
    86fe:	0e 94 1f 43 	call	0x863e	; 0x863e <DS1307_write>
      DS1307_write(0x03, 0x01);			// weekday = 0x01(Sunday)
    8702:	83 e0       	ldi	r24, 0x03	; 3
    8704:	61 e0       	ldi	r22, 0x01	; 1
    8706:	0e 94 1f 43 	call	0x863e	; 0x863e <DS1307_write>
      DS1307_write(0x04, 0x05);			// date = 0x05
    870a:	84 e0       	ldi	r24, 0x04	; 4
    870c:	65 e0       	ldi	r22, 0x05	; 5
    870e:	0e 94 1f 43 	call	0x863e	; 0x863e <DS1307_write>
      DS1307_write(0x05, 0x12);			// month = 0x12
    8712:	85 e0       	ldi	r24, 0x05	; 5
    8714:	62 e1       	ldi	r22, 0x12	; 18
    8716:	0e 94 1f 43 	call	0x863e	; 0x863e <DS1307_write>
      DS1307_write(0x06, 0x10);			// year = 0x2010
    871a:	86 e0       	ldi	r24, 0x06	; 6
    871c:	60 e1       	ldi	r22, 0x10	; 16
    871e:	0e 94 1f 43 	call	0x863e	; 0x863e <DS1307_write>
    8722:	08 95       	ret

00008724 <Display_time>:
}

unsigned char time_flag = 0;

void Display_time(void)				/* display DS1307 time */
{
    8724:	ff 92       	push	r15
    8726:	0f 93       	push	r16
    8728:	1f 93       	push	r17
  TFT_command(0x22);
}

void TFT_xy(U08 xChar, U08 yChar)		/* set character position (x,y) */
{
  Xcharacter = xChar;
    872a:	85 e0       	ldi	r24, 0x05	; 5
    872c:	80 93 3c 0c 	sts	0x0C3C, r24
  Ycharacter = yChar;
    8730:	74 e1       	ldi	r23, 0x14	; 20
    8732:	f7 2e       	mov	r15, r23
    8734:	f0 92 45 0b 	sts	0x0B45, r15
}

void TFT_color(U16 colorfore, U16 colorback)	/* set foreground and background color */
{
  foreground = colorfore;
    8738:	0f ef       	ldi	r16, 0xFF	; 255
    873a:	17 e0       	ldi	r17, 0x07	; 7
    873c:	10 93 50 0b 	sts	0x0B50, r17
    8740:	00 93 4f 0b 	sts	0x0B4F, r16
  background = colorback;
    8744:	10 92 56 0b 	sts	0x0B56, r1
    8748:	10 92 55 0b 	sts	0x0B55, r1
  TFT_xy(5,20); TFT_color(Cyan,Black);		// display year
  TFT_hexadecimal(0x20, 2);
    874c:	60 e2       	ldi	r22, 0x20	; 32
    874e:	70 e0       	ldi	r23, 0x00	; 0
    8750:	80 e0       	ldi	r24, 0x00	; 0
    8752:	90 e0       	ldi	r25, 0x00	; 0
    8754:	42 e0       	ldi	r20, 0x02	; 2
    8756:	0e 94 57 30 	call	0x60ae	; 0x60ae <TFT_hexadecimal>
  year = DS1307_read(0x06);
    875a:	86 e0       	ldi	r24, 0x06	; 6
    875c:	0e 94 c2 42 	call	0x8584	; 0x8584 <DS1307_read>
    8760:	80 93 3f 0c 	sts	0x0C3F, r24
  TFT_hexadecimal(year,2);
    8764:	90 e0       	ldi	r25, 0x00	; 0
    8766:	a0 e0       	ldi	r26, 0x00	; 0
    8768:	b0 e0       	ldi	r27, 0x00	; 0
    876a:	bc 01       	movw	r22, r24
    876c:	cd 01       	movw	r24, r26
    876e:	42 e0       	ldi	r20, 0x02	; 2
    8770:	0e 94 57 30 	call	0x60ae	; 0x60ae <TFT_hexadecimal>
  TFT_command(0x22);
}

void TFT_xy(U08 xChar, U08 yChar)		/* set character position (x,y) */
{
  Xcharacter = xChar;
    8774:	8c e0       	ldi	r24, 0x0C	; 12
    8776:	80 93 3c 0c 	sts	0x0C3C, r24
  Ycharacter = yChar;
    877a:	f0 92 45 0b 	sts	0x0B45, r15
}

void TFT_color(U16 colorfore, U16 colorback)	/* set foreground and background color */
{
  foreground = colorfore;
    877e:	10 93 50 0b 	sts	0x0B50, r17
    8782:	00 93 4f 0b 	sts	0x0B4F, r16
  background = colorback;
    8786:	10 92 56 0b 	sts	0x0B56, r1
    878a:	10 92 55 0b 	sts	0x0B55, r1
  TFT_xy(12,20); TFT_color(Cyan,Black);		// display month
  month = DS1307_read(0x05);
    878e:	85 e0       	ldi	r24, 0x05	; 5
    8790:	0e 94 c2 42 	call	0x8584	; 0x8584 <DS1307_read>
    8794:	80 93 5c 0b 	sts	0x0B5C, r24
  TFT_hexadecimal(month,2);
    8798:	90 e0       	ldi	r25, 0x00	; 0
    879a:	a0 e0       	ldi	r26, 0x00	; 0
    879c:	b0 e0       	ldi	r27, 0x00	; 0
    879e:	bc 01       	movw	r22, r24
    87a0:	cd 01       	movw	r24, r26
    87a2:	42 e0       	ldi	r20, 0x02	; 2
    87a4:	0e 94 57 30 	call	0x60ae	; 0x60ae <TFT_hexadecimal>
  TFT_command(0x22);
}

void TFT_xy(U08 xChar, U08 yChar)		/* set character position (x,y) */
{
  Xcharacter = xChar;
    87a8:	81 e1       	ldi	r24, 0x11	; 17
    87aa:	80 93 3c 0c 	sts	0x0C3C, r24
  Ycharacter = yChar;
    87ae:	f0 92 45 0b 	sts	0x0B45, r15
}

void TFT_color(U16 colorfore, U16 colorback)	/* set foreground and background color */
{
  foreground = colorfore;
    87b2:	10 93 50 0b 	sts	0x0B50, r17
    87b6:	00 93 4f 0b 	sts	0x0B4F, r16
  background = colorback;
    87ba:	10 92 56 0b 	sts	0x0B56, r1
    87be:	10 92 55 0b 	sts	0x0B55, r1
  TFT_xy(17,20); TFT_color(Cyan,Black);		// display date
  date = DS1307_read(0x04);
    87c2:	84 e0       	ldi	r24, 0x04	; 4
    87c4:	0e 94 c2 42 	call	0x8584	; 0x8584 <DS1307_read>
    87c8:	80 93 45 0c 	sts	0x0C45, r24
  TFT_hexadecimal(date,2);
    87cc:	90 e0       	ldi	r25, 0x00	; 0
    87ce:	a0 e0       	ldi	r26, 0x00	; 0
    87d0:	b0 e0       	ldi	r27, 0x00	; 0
    87d2:	bc 01       	movw	r22, r24
    87d4:	cd 01       	movw	r24, r26
    87d6:	42 e0       	ldi	r20, 0x02	; 2
    87d8:	0e 94 57 30 	call	0x60ae	; 0x60ae <TFT_hexadecimal>
  weekday = DS1307_read(0x03);			// display weekday
    87dc:	83 e0       	ldi	r24, 0x03	; 3
    87de:	0e 94 c2 42 	call	0x8584	; 0x8584 <DS1307_read>
    87e2:	80 93 4e 0c 	sts	0x0C4E, r24
  if(weekday == 0x01)      TFT_string(22,20,White,Black,"");
    87e6:	81 30       	cpi	r24, 0x01	; 1
    87e8:	49 f4       	brne	.+18     	; 0x87fc <Display_time+0xd8>
    87ea:	86 e1       	ldi	r24, 0x16	; 22
    87ec:	64 e1       	ldi	r22, 0x14	; 20
    87ee:	4f ef       	ldi	r20, 0xFF	; 255
    87f0:	5f ef       	ldi	r21, 0xFF	; 255
    87f2:	20 e0       	ldi	r18, 0x00	; 0
    87f4:	30 e0       	ldi	r19, 0x00	; 0
    87f6:	0a e0       	ldi	r16, 0x0A	; 10
    87f8:	19 e0       	ldi	r17, 0x09	; 9
    87fa:	41 c0       	rjmp	.+130    	; 0x887e <Display_time+0x15a>
  else if(weekday == 0x02) TFT_string(22,20,White,Black,"");
    87fc:	82 30       	cpi	r24, 0x02	; 2
    87fe:	49 f4       	brne	.+18     	; 0x8812 <Display_time+0xee>
    8800:	86 e1       	ldi	r24, 0x16	; 22
    8802:	64 e1       	ldi	r22, 0x14	; 20
    8804:	4f ef       	ldi	r20, 0xFF	; 255
    8806:	5f ef       	ldi	r21, 0xFF	; 255
    8808:	20 e0       	ldi	r18, 0x00	; 0
    880a:	30 e0       	ldi	r19, 0x00	; 0
    880c:	0d e0       	ldi	r16, 0x0D	; 13
    880e:	19 e0       	ldi	r17, 0x09	; 9
    8810:	36 c0       	rjmp	.+108    	; 0x887e <Display_time+0x15a>
  else if(weekday == 0x03) TFT_string(22,20,White,Black,"");
    8812:	83 30       	cpi	r24, 0x03	; 3
    8814:	49 f4       	brne	.+18     	; 0x8828 <Display_time+0x104>
    8816:	86 e1       	ldi	r24, 0x16	; 22
    8818:	64 e1       	ldi	r22, 0x14	; 20
    881a:	4f ef       	ldi	r20, 0xFF	; 255
    881c:	5f ef       	ldi	r21, 0xFF	; 255
    881e:	20 e0       	ldi	r18, 0x00	; 0
    8820:	30 e0       	ldi	r19, 0x00	; 0
    8822:	00 e1       	ldi	r16, 0x10	; 16
    8824:	19 e0       	ldi	r17, 0x09	; 9
    8826:	2b c0       	rjmp	.+86     	; 0x887e <Display_time+0x15a>
  else if(weekday == 0x04) TFT_string(22,20,White,Black,"");
    8828:	84 30       	cpi	r24, 0x04	; 4
    882a:	49 f4       	brne	.+18     	; 0x883e <Display_time+0x11a>
    882c:	86 e1       	ldi	r24, 0x16	; 22
    882e:	64 e1       	ldi	r22, 0x14	; 20
    8830:	4f ef       	ldi	r20, 0xFF	; 255
    8832:	5f ef       	ldi	r21, 0xFF	; 255
    8834:	20 e0       	ldi	r18, 0x00	; 0
    8836:	30 e0       	ldi	r19, 0x00	; 0
    8838:	03 e1       	ldi	r16, 0x13	; 19
    883a:	19 e0       	ldi	r17, 0x09	; 9
    883c:	20 c0       	rjmp	.+64     	; 0x887e <Display_time+0x15a>
  else if(weekday == 0x05) TFT_string(22,20,White,Black,"");
    883e:	85 30       	cpi	r24, 0x05	; 5
    8840:	49 f4       	brne	.+18     	; 0x8854 <Display_time+0x130>
    8842:	86 e1       	ldi	r24, 0x16	; 22
    8844:	64 e1       	ldi	r22, 0x14	; 20
    8846:	4f ef       	ldi	r20, 0xFF	; 255
    8848:	5f ef       	ldi	r21, 0xFF	; 255
    884a:	20 e0       	ldi	r18, 0x00	; 0
    884c:	30 e0       	ldi	r19, 0x00	; 0
    884e:	06 e1       	ldi	r16, 0x16	; 22
    8850:	19 e0       	ldi	r17, 0x09	; 9
    8852:	15 c0       	rjmp	.+42     	; 0x887e <Display_time+0x15a>
  else if(weekday == 0x06) TFT_string(22,20,White,Black,"");
    8854:	86 30       	cpi	r24, 0x06	; 6
    8856:	49 f4       	brne	.+18     	; 0x886a <Display_time+0x146>
    8858:	86 e1       	ldi	r24, 0x16	; 22
    885a:	64 e1       	ldi	r22, 0x14	; 20
    885c:	4f ef       	ldi	r20, 0xFF	; 255
    885e:	5f ef       	ldi	r21, 0xFF	; 255
    8860:	20 e0       	ldi	r18, 0x00	; 0
    8862:	30 e0       	ldi	r19, 0x00	; 0
    8864:	09 e1       	ldi	r16, 0x19	; 25
    8866:	19 e0       	ldi	r17, 0x09	; 9
    8868:	0a c0       	rjmp	.+20     	; 0x887e <Display_time+0x15a>
  else if(weekday == 0x07) TFT_string(22,20,White,Black,"");
    886a:	87 30       	cpi	r24, 0x07	; 7
    886c:	51 f4       	brne	.+20     	; 0x8882 <Display_time+0x15e>
    886e:	86 e1       	ldi	r24, 0x16	; 22
    8870:	64 e1       	ldi	r22, 0x14	; 20
    8872:	4f ef       	ldi	r20, 0xFF	; 255
    8874:	5f ef       	ldi	r21, 0xFF	; 255
    8876:	20 e0       	ldi	r18, 0x00	; 0
    8878:	30 e0       	ldi	r19, 0x00	; 0
    887a:	0c e1       	ldi	r16, 0x1C	; 28
    887c:	19 e0       	ldi	r17, 0x09	; 9
    887e:	0e 94 28 2f 	call	0x5e50	; 0x5e50 <TFT_string>
  TFT_command(0x22);
}

void TFT_xy(U08 xChar, U08 yChar)		/* set character position (x,y) */
{
  Xcharacter = xChar;
    8882:	8d e0       	ldi	r24, 0x0D	; 13
    8884:	80 93 3c 0c 	sts	0x0C3C, r24
  Ycharacter = yChar;
    8888:	87 e1       	ldi	r24, 0x17	; 23
    888a:	80 93 45 0b 	sts	0x0B45, r24
}

void TFT_color(U16 colorfore, U16 colorback)	/* set foreground and background color */
{
  foreground = colorfore;
    888e:	80 ee       	ldi	r24, 0xE0	; 224
    8890:	97 e0       	ldi	r25, 0x07	; 7
    8892:	90 93 50 0b 	sts	0x0B50, r25
    8896:	80 93 4f 0b 	sts	0x0B4F, r24
  background = colorback;
    889a:	10 92 56 0b 	sts	0x0B56, r1
    889e:	10 92 55 0b 	sts	0x0B55, r1
  TFT_xy(13,23); TFT_color(Green,Black);	// display hour
  hour = DS1307_read(0x02);
    88a2:	82 e0       	ldi	r24, 0x02	; 2
    88a4:	0e 94 c2 42 	call	0x8584	; 0x8584 <DS1307_read>
    88a8:	80 93 33 0c 	sts	0x0C33, r24
  TFT_hexadecimal(hour & 0x1F,2);
    88ac:	90 e0       	ldi	r25, 0x00	; 0
    88ae:	a0 e0       	ldi	r26, 0x00	; 0
    88b0:	b0 e0       	ldi	r27, 0x00	; 0
    88b2:	8f 71       	andi	r24, 0x1F	; 31
    88b4:	90 70       	andi	r25, 0x00	; 0
    88b6:	a0 70       	andi	r26, 0x00	; 0
    88b8:	b0 70       	andi	r27, 0x00	; 0
    88ba:	bc 01       	movw	r22, r24
    88bc:	cd 01       	movw	r24, r26
    88be:	42 e0       	ldi	r20, 0x02	; 2
    88c0:	0e 94 57 30 	call	0x60ae	; 0x60ae <TFT_hexadecimal>
  if((hour & 0x20) == 0x00) TFT_string(10,23,White,Black,"");
    88c4:	80 91 33 0c 	lds	r24, 0x0C33
    88c8:	85 fd       	sbrc	r24, 5
    88ca:	09 c0       	rjmp	.+18     	; 0x88de <Display_time+0x1ba>
    88cc:	8a e0       	ldi	r24, 0x0A	; 10
    88ce:	67 e1       	ldi	r22, 0x17	; 23
    88d0:	4f ef       	ldi	r20, 0xFF	; 255
    88d2:	5f ef       	ldi	r21, 0xFF	; 255
    88d4:	20 e0       	ldi	r18, 0x00	; 0
    88d6:	30 e0       	ldi	r19, 0x00	; 0
    88d8:	0f e1       	ldi	r16, 0x1F	; 31
    88da:	19 e0       	ldi	r17, 0x09	; 9
    88dc:	08 c0       	rjmp	.+16     	; 0x88ee <Display_time+0x1ca>
  else                      TFT_string(10,23,White,Black,"");
    88de:	8a e0       	ldi	r24, 0x0A	; 10
    88e0:	67 e1       	ldi	r22, 0x17	; 23
    88e2:	4f ef       	ldi	r20, 0xFF	; 255
    88e4:	5f ef       	ldi	r21, 0xFF	; 255
    88e6:	20 e0       	ldi	r18, 0x00	; 0
    88e8:	30 e0       	ldi	r19, 0x00	; 0
    88ea:	02 e2       	ldi	r16, 0x22	; 34
    88ec:	19 e0       	ldi	r17, 0x09	; 9
    88ee:	0e 94 28 2f 	call	0x5e50	; 0x5e50 <TFT_string>
  TFT_command(0x22);
}

void TFT_xy(U08 xChar, U08 yChar)		/* set character position (x,y) */
{
  Xcharacter = xChar;
    88f2:	80 e1       	ldi	r24, 0x10	; 16
    88f4:	80 93 3c 0c 	sts	0x0C3C, r24
  Ycharacter = yChar;
    88f8:	67 e1       	ldi	r22, 0x17	; 23
    88fa:	f6 2e       	mov	r15, r22
    88fc:	f0 92 45 0b 	sts	0x0B45, r15
}

void TFT_color(U16 colorfore, U16 colorback)	/* set foreground and background color */
{
  foreground = colorfore;
    8900:	00 ee       	ldi	r16, 0xE0	; 224
    8902:	17 e0       	ldi	r17, 0x07	; 7
    8904:	10 93 50 0b 	sts	0x0B50, r17
    8908:	00 93 4f 0b 	sts	0x0B4F, r16
  background = colorback;
    890c:	10 92 56 0b 	sts	0x0B56, r1
    8910:	10 92 55 0b 	sts	0x0B55, r1
  TFT_xy(16,23); TFT_color(Green,Black);	// display minute
  minute = DS1307_read(0x01);
    8914:	81 e0       	ldi	r24, 0x01	; 1
    8916:	0e 94 c2 42 	call	0x8584	; 0x8584 <DS1307_read>
    891a:	80 93 2c 0c 	sts	0x0C2C, r24
  TFT_hexadecimal(minute,2);
    891e:	90 e0       	ldi	r25, 0x00	; 0
    8920:	a0 e0       	ldi	r26, 0x00	; 0
    8922:	b0 e0       	ldi	r27, 0x00	; 0
    8924:	bc 01       	movw	r22, r24
    8926:	cd 01       	movw	r24, r26
    8928:	42 e0       	ldi	r20, 0x02	; 2
    892a:	0e 94 57 30 	call	0x60ae	; 0x60ae <TFT_hexadecimal>
  TFT_command(0x22);
}

void TFT_xy(U08 xChar, U08 yChar)		/* set character position (x,y) */
{
  Xcharacter = xChar;
    892e:	83 e1       	ldi	r24, 0x13	; 19
    8930:	80 93 3c 0c 	sts	0x0C3C, r24
  Ycharacter = yChar;
    8934:	f0 92 45 0b 	sts	0x0B45, r15
}

void TFT_color(U16 colorfore, U16 colorback)	/* set foreground and background color */
{
  foreground = colorfore;
    8938:	10 93 50 0b 	sts	0x0B50, r17
    893c:	00 93 4f 0b 	sts	0x0B4F, r16
  background = colorback;
    8940:	10 92 56 0b 	sts	0x0B56, r1
    8944:	10 92 55 0b 	sts	0x0B55, r1
  TFT_xy(19,23); TFT_color(Green,Black);	// display second
  second = DS1307_read(0x00);
    8948:	80 e0       	ldi	r24, 0x00	; 0
    894a:	0e 94 c2 42 	call	0x8584	; 0x8584 <DS1307_read>
    894e:	80 93 5f 0b 	sts	0x0B5F, r24
  TFT_hexadecimal(second & 0x7F,2);
    8952:	90 e0       	ldi	r25, 0x00	; 0
    8954:	a0 e0       	ldi	r26, 0x00	; 0
    8956:	b0 e0       	ldi	r27, 0x00	; 0
    8958:	8f 77       	andi	r24, 0x7F	; 127
    895a:	90 70       	andi	r25, 0x00	; 0
    895c:	a0 70       	andi	r26, 0x00	; 0
    895e:	b0 70       	andi	r27, 0x00	; 0
    8960:	bc 01       	movw	r22, r24
    8962:	cd 01       	movw	r24, r26
    8964:	42 e0       	ldi	r20, 0x02	; 2
    8966:	0e 94 57 30 	call	0x60ae	; 0x60ae <TFT_hexadecimal>
  TFT_command(0x22);
}

void TFT_xy(U08 xChar, U08 yChar)		/* set character position (x,y) */
{
  Xcharacter = xChar;
    896a:	88 e1       	ldi	r24, 0x18	; 24
    896c:	80 93 3c 0c 	sts	0x0C3C, r24
  Ycharacter = yChar;
    8970:	f0 92 45 0b 	sts	0x0B45, r15
}

void TFT_color(U16 colorfore, U16 colorback)	/* set foreground and background color */
{
  foreground = colorfore;
    8974:	10 93 50 0b 	sts	0x0B50, r17
    8978:	00 93 4f 0b 	sts	0x0B4F, r16
  background = colorback;
    897c:	10 92 56 0b 	sts	0x0B56, r1
    8980:	10 92 55 0b 	sts	0x0B55, r1
  TFT_xy(24,23); TFT_color(Green,Black);	// display home
  TFT_English(' ');
    8984:	80 e2       	ldi	r24, 0x20	; 32
    8986:	0e 94 3e 2b 	call	0x567c	; 0x567c <TFT_English>

  if((Xcursor == 24) && (Ycursor == 23))
    898a:	80 91 4a 0c 	lds	r24, 0x0C4A
    898e:	88 31       	cpi	r24, 0x18	; 24
    8990:	b9 f4       	brne	.+46     	; 0x89c0 <Display_time+0x29c>
    8992:	80 91 48 0b 	lds	r24, 0x0B48
    8996:	87 31       	cpi	r24, 0x17	; 23
    8998:	99 f4       	brne	.+38     	; 0x89c0 <Display_time+0x29c>
    { TFT_string(3,35,White,Black,"KEY4 :   ");
    899a:	83 e0       	ldi	r24, 0x03	; 3
    899c:	63 e2       	ldi	r22, 0x23	; 35
    899e:	4f ef       	ldi	r20, 0xFF	; 255
    89a0:	5f ef       	ldi	r21, 0xFF	; 255
    89a2:	20 e0       	ldi	r18, 0x00	; 0
    89a4:	30 e0       	ldi	r19, 0x00	; 0
    89a6:	05 e2       	ldi	r16, 0x25	; 37
    89a8:	19 e0       	ldi	r17, 0x09	; 9
    89aa:	0e 94 28 2f 	call	0x5e50	; 0x5e50 <TFT_string>
      TFT_string(3,37,White,Black,"                         ");
    89ae:	83 e0       	ldi	r24, 0x03	; 3
    89b0:	65 e2       	ldi	r22, 0x25	; 37
    89b2:	4f ef       	ldi	r20, 0xFF	; 255
    89b4:	5f ef       	ldi	r21, 0xFF	; 255
    89b6:	20 e0       	ldi	r18, 0x00	; 0
    89b8:	30 e0       	ldi	r19, 0x00	; 0
    89ba:	0f e3       	ldi	r16, 0x3F	; 63
    89bc:	19 e0       	ldi	r17, 0x09	; 9
    89be:	12 c0       	rjmp	.+36     	; 0x89e4 <Display_time+0x2c0>
    }
  else
    { TFT_string(3,35,White,Black,"KEY1 : , KEY3 :  ");
    89c0:	83 e0       	ldi	r24, 0x03	; 3
    89c2:	63 e2       	ldi	r22, 0x23	; 35
    89c4:	4f ef       	ldi	r20, 0xFF	; 255
    89c6:	5f ef       	ldi	r21, 0xFF	; 255
    89c8:	20 e0       	ldi	r18, 0x00	; 0
    89ca:	30 e0       	ldi	r19, 0x00	; 0
    89cc:	09 e5       	ldi	r16, 0x59	; 89
    89ce:	19 e0       	ldi	r17, 0x09	; 9
    89d0:	0e 94 28 2f 	call	0x5e50	; 0x5e50 <TFT_string>
      TFT_string(3,37,White,Black,"KEY2 : , KEY4 :  ");
    89d4:	83 e0       	ldi	r24, 0x03	; 3
    89d6:	65 e2       	ldi	r22, 0x25	; 37
    89d8:	4f ef       	ldi	r20, 0xFF	; 255
    89da:	5f ef       	ldi	r21, 0xFF	; 255
    89dc:	20 e0       	ldi	r18, 0x00	; 0
    89de:	30 e0       	ldi	r19, 0x00	; 0
    89e0:	03 e7       	ldi	r16, 0x73	; 115
    89e2:	19 e0       	ldi	r17, 0x09	; 9
    89e4:	0e 94 28 2f 	call	0x5e50	; 0x5e50 <TFT_string>
    }

  if((minute == 0x00) && (second == 0x00) && (time_flag == 0))
    89e8:	80 91 2c 0c 	lds	r24, 0x0C2C
    89ec:	88 23       	and	r24, r24
    89ee:	71 f4       	brne	.+28     	; 0x8a0c <Display_time+0x2e8>
    89f0:	80 91 5f 0b 	lds	r24, 0x0B5F
    89f4:	88 23       	and	r24, r24
    89f6:	51 f4       	brne	.+20     	; 0x8a0c <Display_time+0x2e8>
    89f8:	80 91 42 0b 	lds	r24, 0x0B42
    89fc:	88 23       	and	r24, r24
    89fe:	41 f4       	brne	.+16     	; 0x8a10 <Display_time+0x2ec>
    { time_flag = 1;
    8a00:	81 e0       	ldi	r24, 0x01	; 1
    8a02:	80 93 42 0b 	sts	0x0B42, r24
      Beep();
    8a06:	0e 94 31 25 	call	0x4a62	; 0x4a62 <Beep>
    8a0a:	02 c0       	rjmp	.+4      	; 0x8a10 <Display_time+0x2ec>
    }
  else if((minute != 0x00) || (second != 0x00))
    time_flag = 0;
    8a0c:	10 92 42 0b 	sts	0x0B42, r1
}
    8a10:	1f 91       	pop	r17
    8a12:	0f 91       	pop	r16
    8a14:	ff 90       	pop	r15
    8a16:	08 95       	ret

00008a18 <BCD_increment>:

unsigned char BCD_increment(U08 number)		/* BCD increment */
{ unsigned char i;

  i = (number >> 4)*10 + (number & 0x0F);       // convert BCD to binary
    8a18:	38 2f       	mov	r19, r24
    8a1a:	3f 70       	andi	r19, 0x0F	; 15
    8a1c:	3f 5f       	subi	r19, 0xFF	; 255
  i++;                                          // incrment
    8a1e:	82 95       	swap	r24
    8a20:	8f 70       	andi	r24, 0x0F	; 15
    8a22:	2a e0       	ldi	r18, 0x0A	; 10
    8a24:	82 9f       	mul	r24, r18
    8a26:	c0 01       	movw	r24, r0
    8a28:	11 24       	eor	r1, r1
    8a2a:	38 0f       	add	r19, r24
  i = ((i/10) << 4) + (i % 10);                 // convert binary to BCD
    8a2c:	83 2f       	mov	r24, r19
    8a2e:	6a e0       	ldi	r22, 0x0A	; 10
    8a30:	0e 94 07 61 	call	0xc20e	; 0xc20e <__udivmodqi4>
    8a34:	28 2f       	mov	r18, r24
    8a36:	22 95       	swap	r18
    8a38:	20 7f       	andi	r18, 0xF0	; 240
    8a3a:	83 2f       	mov	r24, r19
    8a3c:	0e 94 07 61 	call	0xc20e	; 0xc20e <__udivmodqi4>
  return i;
}
    8a40:	82 2f       	mov	r24, r18
    8a42:	89 0f       	add	r24, r25
    8a44:	08 95       	ret

00008a46 <BCD_decrement>:

unsigned char BCD_decrement(U08 number)		/* BCD decrement */
{ unsigned char i;

  i = (number >> 4)*10 + (number & 0x0F);       // convert BCD to binary
    8a46:	38 2f       	mov	r19, r24
    8a48:	3f 70       	andi	r19, 0x0F	; 15
    8a4a:	31 50       	subi	r19, 0x01	; 1
  i--;                                          // decrement
    8a4c:	82 95       	swap	r24
    8a4e:	8f 70       	andi	r24, 0x0F	; 15
    8a50:	2a e0       	ldi	r18, 0x0A	; 10
    8a52:	82 9f       	mul	r24, r18
    8a54:	c0 01       	movw	r24, r0
    8a56:	11 24       	eor	r1, r1
    8a58:	38 0f       	add	r19, r24
  i = ((i/10) << 4) + (i % 10);                 // convert binary to BCD
    8a5a:	83 2f       	mov	r24, r19
    8a5c:	6a e0       	ldi	r22, 0x0A	; 10
    8a5e:	0e 94 07 61 	call	0xc20e	; 0xc20e <__udivmodqi4>
    8a62:	28 2f       	mov	r18, r24
    8a64:	22 95       	swap	r18
    8a66:	20 7f       	andi	r18, 0xF0	; 240
    8a68:	83 2f       	mov	r24, r19
    8a6a:	0e 94 07 61 	call	0xc20e	; 0xc20e <__udivmodqi4>
  return i;
}
    8a6e:	82 2f       	mov	r24, r18
    8a70:	89 0f       	add	r24, r25
    8a72:	08 95       	ret

00008a74 <Cursor_left>:

void Cursor_left(void)			        /* go cursor left */
{
  if     ((Xcursor == 24) && (Ycursor == 23)) { Xcursor = 20; Ycursor = 23; }
    8a74:	80 91 4a 0c 	lds	r24, 0x0C4A
    8a78:	88 31       	cpi	r24, 0x18	; 24
    8a7a:	39 f4       	brne	.+14     	; 0x8a8a <Cursor_left+0x16>
    8a7c:	90 91 48 0b 	lds	r25, 0x0B48
    8a80:	97 31       	cpi	r25, 0x17	; 23
    8a82:	09 f0       	breq	.+2      	; 0x8a86 <Cursor_left+0x12>
    8a84:	4e c0       	rjmp	.+156    	; 0x8b22 <Cursor_left+0xae>
    8a86:	84 e1       	ldi	r24, 0x14	; 20
    8a88:	3d c0       	rjmp	.+122    	; 0x8b04 <Cursor_left+0x90>
  else if((Xcursor == 20) && (Ycursor == 23)) { Xcursor = 17; Ycursor = 23; }
    8a8a:	84 31       	cpi	r24, 0x14	; 20
    8a8c:	39 f4       	brne	.+14     	; 0x8a9c <Cursor_left+0x28>
    8a8e:	90 91 48 0b 	lds	r25, 0x0B48
    8a92:	97 31       	cpi	r25, 0x17	; 23
    8a94:	09 f0       	breq	.+2      	; 0x8a98 <Cursor_left+0x24>
    8a96:	45 c0       	rjmp	.+138    	; 0x8b22 <Cursor_left+0xae>
    8a98:	81 e1       	ldi	r24, 0x11	; 17
    8a9a:	34 c0       	rjmp	.+104    	; 0x8b04 <Cursor_left+0x90>
  else if((Xcursor == 17) && (Ycursor == 23)) { Xcursor = 14; Ycursor = 23; }
    8a9c:	81 31       	cpi	r24, 0x11	; 17
    8a9e:	31 f4       	brne	.+12     	; 0x8aac <Cursor_left+0x38>
    8aa0:	90 91 48 0b 	lds	r25, 0x0B48
    8aa4:	97 31       	cpi	r25, 0x17	; 23
    8aa6:	e9 f5       	brne	.+122    	; 0x8b22 <Cursor_left+0xae>
    8aa8:	8e e0       	ldi	r24, 0x0E	; 14
    8aaa:	2c c0       	rjmp	.+88     	; 0x8b04 <Cursor_left+0x90>
  else if((Xcursor == 14) && (Ycursor == 23)) { Xcursor = 10; Ycursor = 23; }
    8aac:	8e 30       	cpi	r24, 0x0E	; 14
    8aae:	31 f4       	brne	.+12     	; 0x8abc <Cursor_left+0x48>
    8ab0:	90 91 48 0b 	lds	r25, 0x0B48
    8ab4:	97 31       	cpi	r25, 0x17	; 23
    8ab6:	a9 f5       	brne	.+106    	; 0x8b22 <Cursor_left+0xae>
    8ab8:	8a e0       	ldi	r24, 0x0A	; 10
    8aba:	24 c0       	rjmp	.+72     	; 0x8b04 <Cursor_left+0x90>
  else if((Xcursor == 10) && (Ycursor == 23)) { Xcursor = 22; Ycursor = 20; }
    8abc:	8a 30       	cpi	r24, 0x0A	; 10
    8abe:	59 f4       	brne	.+22     	; 0x8ad6 <Cursor_left+0x62>
    8ac0:	80 91 48 0b 	lds	r24, 0x0B48
    8ac4:	87 31       	cpi	r24, 0x17	; 23
    8ac6:	69 f5       	brne	.+90     	; 0x8b22 <Cursor_left+0xae>
    8ac8:	86 e1       	ldi	r24, 0x16	; 22
    8aca:	80 93 4a 0c 	sts	0x0C4A, r24
    8ace:	84 e1       	ldi	r24, 0x14	; 20
    8ad0:	80 93 48 0b 	sts	0x0B48, r24
    8ad4:	08 95       	ret
  else if((Xcursor == 22) && (Ycursor == 20)) { Xcursor = 18; Ycursor = 20; }
    8ad6:	86 31       	cpi	r24, 0x16	; 22
    8ad8:	31 f4       	brne	.+12     	; 0x8ae6 <Cursor_left+0x72>
    8ada:	90 91 48 0b 	lds	r25, 0x0B48
    8ade:	94 31       	cpi	r25, 0x14	; 20
    8ae0:	01 f5       	brne	.+64     	; 0x8b22 <Cursor_left+0xae>
    8ae2:	82 e1       	ldi	r24, 0x12	; 18
    8ae4:	0f c0       	rjmp	.+30     	; 0x8b04 <Cursor_left+0x90>
  else if((Xcursor == 18) && (Ycursor == 20)) { Xcursor = 13; Ycursor = 20; }
    8ae6:	82 31       	cpi	r24, 0x12	; 18
    8ae8:	31 f4       	brne	.+12     	; 0x8af6 <Cursor_left+0x82>
    8aea:	90 91 48 0b 	lds	r25, 0x0B48
    8aee:	94 31       	cpi	r25, 0x14	; 20
    8af0:	c1 f4       	brne	.+48     	; 0x8b22 <Cursor_left+0xae>
    8af2:	8d e0       	ldi	r24, 0x0D	; 13
    8af4:	07 c0       	rjmp	.+14     	; 0x8b04 <Cursor_left+0x90>
  else if((Xcursor == 13) && (Ycursor == 20)) { Xcursor =  8; Ycursor = 20; }
    8af6:	8d 30       	cpi	r24, 0x0D	; 13
    8af8:	41 f4       	brne	.+16     	; 0x8b0a <Cursor_left+0x96>
    8afa:	90 91 48 0b 	lds	r25, 0x0B48
    8afe:	94 31       	cpi	r25, 0x14	; 20
    8b00:	81 f4       	brne	.+32     	; 0x8b22 <Cursor_left+0xae>
    8b02:	88 e0       	ldi	r24, 0x08	; 8
    8b04:	80 93 4a 0c 	sts	0x0C4A, r24
    8b08:	08 95       	ret
  else if((Xcursor ==  8) && (Ycursor == 20)) { Xcursor = 24; Ycursor = 23; }
    8b0a:	88 30       	cpi	r24, 0x08	; 8
    8b0c:	51 f4       	brne	.+20     	; 0x8b22 <Cursor_left+0xae>
    8b0e:	80 91 48 0b 	lds	r24, 0x0B48
    8b12:	84 31       	cpi	r24, 0x14	; 20
    8b14:	31 f4       	brne	.+12     	; 0x8b22 <Cursor_left+0xae>
    8b16:	88 e1       	ldi	r24, 0x18	; 24
    8b18:	80 93 4a 0c 	sts	0x0C4A, r24
    8b1c:	87 e1       	ldi	r24, 0x17	; 23
    8b1e:	80 93 48 0b 	sts	0x0B48, r24
    8b22:	08 95       	ret

00008b24 <Cursor_right>:
}

void Cursor_right(void)             		/* go cursor right */
{
  if     ((Xcursor ==  8) && (Ycursor == 20)) { Xcursor = 13; Ycursor = 20; }
    8b24:	80 91 4a 0c 	lds	r24, 0x0C4A
    8b28:	88 30       	cpi	r24, 0x08	; 8
    8b2a:	39 f4       	brne	.+14     	; 0x8b3a <Cursor_right+0x16>
    8b2c:	90 91 48 0b 	lds	r25, 0x0B48
    8b30:	94 31       	cpi	r25, 0x14	; 20
    8b32:	09 f0       	breq	.+2      	; 0x8b36 <Cursor_right+0x12>
    8b34:	4e c0       	rjmp	.+156    	; 0x8bd2 <Cursor_right+0xae>
    8b36:	8d e0       	ldi	r24, 0x0D	; 13
    8b38:	3d c0       	rjmp	.+122    	; 0x8bb4 <Cursor_right+0x90>
  else if((Xcursor == 13) && (Ycursor == 20)) { Xcursor = 18; Ycursor = 20; }
    8b3a:	8d 30       	cpi	r24, 0x0D	; 13
    8b3c:	39 f4       	brne	.+14     	; 0x8b4c <Cursor_right+0x28>
    8b3e:	90 91 48 0b 	lds	r25, 0x0B48
    8b42:	94 31       	cpi	r25, 0x14	; 20
    8b44:	09 f0       	breq	.+2      	; 0x8b48 <Cursor_right+0x24>
    8b46:	45 c0       	rjmp	.+138    	; 0x8bd2 <Cursor_right+0xae>
    8b48:	82 e1       	ldi	r24, 0x12	; 18
    8b4a:	34 c0       	rjmp	.+104    	; 0x8bb4 <Cursor_right+0x90>
  else if((Xcursor == 18) && (Ycursor == 20)) { Xcursor = 22; Ycursor = 20; }
    8b4c:	82 31       	cpi	r24, 0x12	; 18
    8b4e:	31 f4       	brne	.+12     	; 0x8b5c <Cursor_right+0x38>
    8b50:	90 91 48 0b 	lds	r25, 0x0B48
    8b54:	94 31       	cpi	r25, 0x14	; 20
    8b56:	e9 f5       	brne	.+122    	; 0x8bd2 <Cursor_right+0xae>
    8b58:	86 e1       	ldi	r24, 0x16	; 22
    8b5a:	2c c0       	rjmp	.+88     	; 0x8bb4 <Cursor_right+0x90>
  else if((Xcursor == 22) && (Ycursor == 20)) { Xcursor = 10; Ycursor = 23; }
    8b5c:	86 31       	cpi	r24, 0x16	; 22
    8b5e:	59 f4       	brne	.+22     	; 0x8b76 <Cursor_right+0x52>
    8b60:	80 91 48 0b 	lds	r24, 0x0B48
    8b64:	84 31       	cpi	r24, 0x14	; 20
    8b66:	a9 f5       	brne	.+106    	; 0x8bd2 <Cursor_right+0xae>
    8b68:	8a e0       	ldi	r24, 0x0A	; 10
    8b6a:	80 93 4a 0c 	sts	0x0C4A, r24
    8b6e:	87 e1       	ldi	r24, 0x17	; 23
    8b70:	80 93 48 0b 	sts	0x0B48, r24
    8b74:	08 95       	ret
  else if((Xcursor == 10) && (Ycursor == 23)) { Xcursor = 14; Ycursor = 23; }
    8b76:	8a 30       	cpi	r24, 0x0A	; 10
    8b78:	31 f4       	brne	.+12     	; 0x8b86 <Cursor_right+0x62>
    8b7a:	90 91 48 0b 	lds	r25, 0x0B48
    8b7e:	97 31       	cpi	r25, 0x17	; 23
    8b80:	41 f5       	brne	.+80     	; 0x8bd2 <Cursor_right+0xae>
    8b82:	8e e0       	ldi	r24, 0x0E	; 14
    8b84:	17 c0       	rjmp	.+46     	; 0x8bb4 <Cursor_right+0x90>
  else if((Xcursor == 14) && (Ycursor == 23)) { Xcursor = 17; Ycursor = 23; }
    8b86:	8e 30       	cpi	r24, 0x0E	; 14
    8b88:	31 f4       	brne	.+12     	; 0x8b96 <Cursor_right+0x72>
    8b8a:	90 91 48 0b 	lds	r25, 0x0B48
    8b8e:	97 31       	cpi	r25, 0x17	; 23
    8b90:	01 f5       	brne	.+64     	; 0x8bd2 <Cursor_right+0xae>
    8b92:	81 e1       	ldi	r24, 0x11	; 17
    8b94:	0f c0       	rjmp	.+30     	; 0x8bb4 <Cursor_right+0x90>
  else if((Xcursor == 17) && (Ycursor == 23)) { Xcursor = 20; Ycursor = 23; }
    8b96:	81 31       	cpi	r24, 0x11	; 17
    8b98:	31 f4       	brne	.+12     	; 0x8ba6 <Cursor_right+0x82>
    8b9a:	90 91 48 0b 	lds	r25, 0x0B48
    8b9e:	97 31       	cpi	r25, 0x17	; 23
    8ba0:	c1 f4       	brne	.+48     	; 0x8bd2 <Cursor_right+0xae>
    8ba2:	84 e1       	ldi	r24, 0x14	; 20
    8ba4:	07 c0       	rjmp	.+14     	; 0x8bb4 <Cursor_right+0x90>
  else if((Xcursor == 20) && (Ycursor == 23)) { Xcursor = 24; Ycursor = 23; }
    8ba6:	84 31       	cpi	r24, 0x14	; 20
    8ba8:	41 f4       	brne	.+16     	; 0x8bba <Cursor_right+0x96>
    8baa:	90 91 48 0b 	lds	r25, 0x0B48
    8bae:	97 31       	cpi	r25, 0x17	; 23
    8bb0:	81 f4       	brne	.+32     	; 0x8bd2 <Cursor_right+0xae>
    8bb2:	88 e1       	ldi	r24, 0x18	; 24
    8bb4:	80 93 4a 0c 	sts	0x0C4A, r24
    8bb8:	08 95       	ret
  else if((Xcursor == 24) && (Ycursor == 23)) { Xcursor =  8; Ycursor = 20; }
    8bba:	88 31       	cpi	r24, 0x18	; 24
    8bbc:	51 f4       	brne	.+20     	; 0x8bd2 <Cursor_right+0xae>
    8bbe:	80 91 48 0b 	lds	r24, 0x0B48
    8bc2:	87 31       	cpi	r24, 0x17	; 23
    8bc4:	31 f4       	brne	.+12     	; 0x8bd2 <Cursor_right+0xae>
    8bc6:	88 e0       	ldi	r24, 0x08	; 8
    8bc8:	80 93 4a 0c 	sts	0x0C4A, r24
    8bcc:	84 e1       	ldi	r24, 0x14	; 20
    8bce:	80 93 48 0b 	sts	0x0B48, r24
    8bd2:	08 95       	ret

00008bd4 <Increment>:
}

void Increment(void)	               		/* increment time */
{
  if((Xcursor ==  8) && (Ycursor == 20))	// in case of year
    8bd4:	80 91 4a 0c 	lds	r24, 0x0C4A
    8bd8:	88 30       	cpi	r24, 0x08	; 8
    8bda:	a9 f4       	brne	.+42     	; 0x8c06 <Increment+0x32>
    8bdc:	80 91 48 0b 	lds	r24, 0x0B48
    8be0:	84 31       	cpi	r24, 0x14	; 20
    8be2:	09 f0       	breq	.+2      	; 0x8be6 <Increment+0x12>
    8be4:	ac c0       	rjmp	.+344    	; 0x8d3e <Increment+0x16a>
    { year = DS1307_read(0x06);
    8be6:	86 e0       	ldi	r24, 0x06	; 6
    8be8:	0e 94 c2 42 	call	0x8584	; 0x8584 <DS1307_read>
      if(year == 0x99)      year = 0x00;
    8bec:	89 39       	cpi	r24, 0x99	; 153
    8bee:	19 f4       	brne	.+6      	; 0x8bf6 <Increment+0x22>
    8bf0:	10 92 3f 0c 	sts	0x0C3F, r1
    8bf4:	04 c0       	rjmp	.+8      	; 0x8bfe <Increment+0x2a>
      else                  year = BCD_increment(year);
    8bf6:	0e 94 0c 45 	call	0x8a18	; 0x8a18 <BCD_increment>
    8bfa:	80 93 3f 0c 	sts	0x0C3F, r24
      DS1307_write(0x06,year);
    8bfe:	86 e0       	ldi	r24, 0x06	; 6
    8c00:	60 91 3f 0c 	lds	r22, 0x0C3F
    8c04:	82 c0       	rjmp	.+260    	; 0x8d0a <Increment+0x136>
    }
  else if((Xcursor == 13) && (Ycursor == 20))	// in case of month
    8c06:	8d 30       	cpi	r24, 0x0D	; 13
    8c08:	a1 f4       	brne	.+40     	; 0x8c32 <Increment+0x5e>
    8c0a:	80 91 48 0b 	lds	r24, 0x0B48
    8c0e:	84 31       	cpi	r24, 0x14	; 20
    8c10:	09 f0       	breq	.+2      	; 0x8c14 <Increment+0x40>
    8c12:	95 c0       	rjmp	.+298    	; 0x8d3e <Increment+0x16a>
    { month = DS1307_read(0x05);
    8c14:	85 e0       	ldi	r24, 0x05	; 5
    8c16:	0e 94 c2 42 	call	0x8584	; 0x8584 <DS1307_read>
      if(month == 0x12)     month = 0x01;
    8c1a:	82 31       	cpi	r24, 0x12	; 18
    8c1c:	11 f4       	brne	.+4      	; 0x8c22 <Increment+0x4e>
    8c1e:	81 e0       	ldi	r24, 0x01	; 1
    8c20:	02 c0       	rjmp	.+4      	; 0x8c26 <Increment+0x52>
      else                  month = BCD_increment(month);
    8c22:	0e 94 0c 45 	call	0x8a18	; 0x8a18 <BCD_increment>
    8c26:	80 93 5c 0b 	sts	0x0B5C, r24
      DS1307_write(0x05,month);
    8c2a:	85 e0       	ldi	r24, 0x05	; 5
    8c2c:	60 91 5c 0b 	lds	r22, 0x0B5C
    8c30:	6c c0       	rjmp	.+216    	; 0x8d0a <Increment+0x136>
    }
  else if((Xcursor == 18) && (Ycursor == 20))	// in case of date
    8c32:	82 31       	cpi	r24, 0x12	; 18
    8c34:	a1 f4       	brne	.+40     	; 0x8c5e <Increment+0x8a>
    8c36:	80 91 48 0b 	lds	r24, 0x0B48
    8c3a:	84 31       	cpi	r24, 0x14	; 20
    8c3c:	09 f0       	breq	.+2      	; 0x8c40 <Increment+0x6c>
    8c3e:	7f c0       	rjmp	.+254    	; 0x8d3e <Increment+0x16a>
    { date = DS1307_read(0x04);
    8c40:	84 e0       	ldi	r24, 0x04	; 4
    8c42:	0e 94 c2 42 	call	0x8584	; 0x8584 <DS1307_read>
      if(date == 0x31)      date = 0x01;
    8c46:	81 33       	cpi	r24, 0x31	; 49
    8c48:	11 f4       	brne	.+4      	; 0x8c4e <Increment+0x7a>
    8c4a:	81 e0       	ldi	r24, 0x01	; 1
    8c4c:	02 c0       	rjmp	.+4      	; 0x8c52 <Increment+0x7e>
      else                  date = BCD_increment(date);
    8c4e:	0e 94 0c 45 	call	0x8a18	; 0x8a18 <BCD_increment>
    8c52:	80 93 45 0c 	sts	0x0C45, r24
      DS1307_write(0x04,date);
    8c56:	84 e0       	ldi	r24, 0x04	; 4
    8c58:	60 91 45 0c 	lds	r22, 0x0C45
    8c5c:	56 c0       	rjmp	.+172    	; 0x8d0a <Increment+0x136>
    }
  else if((Xcursor == 22) && (Ycursor == 20))	// in case of weekday
    8c5e:	86 31       	cpi	r24, 0x16	; 22
    8c60:	99 f4       	brne	.+38     	; 0x8c88 <Increment+0xb4>
    8c62:	80 91 48 0b 	lds	r24, 0x0B48
    8c66:	84 31       	cpi	r24, 0x14	; 20
    8c68:	09 f0       	breq	.+2      	; 0x8c6c <Increment+0x98>
    8c6a:	69 c0       	rjmp	.+210    	; 0x8d3e <Increment+0x16a>
    { weekday = DS1307_read(0x03);
    8c6c:	83 e0       	ldi	r24, 0x03	; 3
    8c6e:	0e 94 c2 42 	call	0x8584	; 0x8584 <DS1307_read>
      if(weekday == 0x07)   weekday = 0x01;
    8c72:	87 30       	cpi	r24, 0x07	; 7
    8c74:	11 f4       	brne	.+4      	; 0x8c7a <Increment+0xa6>
    8c76:	81 e0       	ldi	r24, 0x01	; 1
    8c78:	01 c0       	rjmp	.+2      	; 0x8c7c <Increment+0xa8>
      else                  weekday++;
    8c7a:	8f 5f       	subi	r24, 0xFF	; 255
    8c7c:	80 93 4e 0c 	sts	0x0C4E, r24
      DS1307_write(0x03,weekday);
    8c80:	83 e0       	ldi	r24, 0x03	; 3
    8c82:	60 91 4e 0c 	lds	r22, 0x0C4E
    8c86:	41 c0       	rjmp	.+130    	; 0x8d0a <Increment+0x136>
    }
  else if((Xcursor == 10) && (Ycursor == 23))	// in case of AM/PM
    8c88:	8a 30       	cpi	r24, 0x0A	; 10
    8c8a:	99 f4       	brne	.+38     	; 0x8cb2 <Increment+0xde>
    8c8c:	80 91 48 0b 	lds	r24, 0x0B48
    8c90:	87 31       	cpi	r24, 0x17	; 23
    8c92:	09 f0       	breq	.+2      	; 0x8c96 <Increment+0xc2>
    8c94:	54 c0       	rjmp	.+168    	; 0x8d3e <Increment+0x16a>
    { hour = DS1307_read(0x02);
    8c96:	82 e0       	ldi	r24, 0x02	; 2
    8c98:	0e 94 c2 42 	call	0x8584	; 0x8584 <DS1307_read>
      if((hour & 0x20) == 0x00) hour |= 0x20;
    8c9c:	85 fd       	sbrc	r24, 5
    8c9e:	02 c0       	rjmp	.+4      	; 0x8ca4 <Increment+0xd0>
    8ca0:	80 62       	ori	r24, 0x20	; 32
    8ca2:	01 c0       	rjmp	.+2      	; 0x8ca6 <Increment+0xd2>
      else                      hour &= 0xDF;
    8ca4:	8f 7d       	andi	r24, 0xDF	; 223
    8ca6:	80 93 33 0c 	sts	0x0C33, r24
      DS1307_write(0x02,hour);
    8caa:	82 e0       	ldi	r24, 0x02	; 2
    8cac:	60 91 33 0c 	lds	r22, 0x0C33
    8cb0:	2c c0       	rjmp	.+88     	; 0x8d0a <Increment+0x136>
    }
  else if((Xcursor == 14) && (Ycursor == 23))	// in case of hour
    8cb2:	8e 30       	cpi	r24, 0x0E	; 14
    8cb4:	a9 f4       	brne	.+42     	; 0x8ce0 <Increment+0x10c>
    8cb6:	80 91 48 0b 	lds	r24, 0x0B48
    8cba:	87 31       	cpi	r24, 0x17	; 23
    8cbc:	09 f0       	breq	.+2      	; 0x8cc0 <Increment+0xec>
    8cbe:	3f c0       	rjmp	.+126    	; 0x8d3e <Increment+0x16a>
    { hour = DS1307_read(0x02);
    8cc0:	82 e0       	ldi	r24, 0x02	; 2
    8cc2:	0e 94 c2 42 	call	0x8584	; 0x8584 <DS1307_read>
    8cc6:	98 2f       	mov	r25, r24
      if((hour & 0x1F) == 0x12) hour = (hour & 0xE0) + 0x01;
    8cc8:	8f 71       	andi	r24, 0x1F	; 31
    8cca:	82 31       	cpi	r24, 0x12	; 18
    8ccc:	29 f4       	brne	.+10     	; 0x8cd8 <Increment+0x104>
    8cce:	90 7e       	andi	r25, 0xE0	; 224
    8cd0:	9f 5f       	subi	r25, 0xFF	; 255
    8cd2:	90 93 33 0c 	sts	0x0C33, r25
    8cd6:	e9 cf       	rjmp	.-46     	; 0x8caa <Increment+0xd6>
      else                      hour = BCD_increment(hour);
    8cd8:	89 2f       	mov	r24, r25
    8cda:	0e 94 0c 45 	call	0x8a18	; 0x8a18 <BCD_increment>
    8cde:	e3 cf       	rjmp	.-58     	; 0x8ca6 <Increment+0xd2>
      DS1307_write(0x02,hour);
    }
  else if((Xcursor == 17) && (Ycursor == 23))	// in case of minute
    8ce0:	81 31       	cpi	r24, 0x11	; 17
    8ce2:	b1 f4       	brne	.+44     	; 0x8d10 <Increment+0x13c>
    8ce4:	80 91 48 0b 	lds	r24, 0x0B48
    8ce8:	87 31       	cpi	r24, 0x17	; 23
    8cea:	49 f5       	brne	.+82     	; 0x8d3e <Increment+0x16a>
    { minute = DS1307_read(0x01);
    8cec:	81 e0       	ldi	r24, 0x01	; 1
    8cee:	0e 94 c2 42 	call	0x8584	; 0x8584 <DS1307_read>
      if(minute == 0x59)    minute = 0x00;
    8cf2:	89 35       	cpi	r24, 0x59	; 89
    8cf4:	19 f4       	brne	.+6      	; 0x8cfc <Increment+0x128>
    8cf6:	10 92 2c 0c 	sts	0x0C2C, r1
    8cfa:	04 c0       	rjmp	.+8      	; 0x8d04 <Increment+0x130>
      else                  minute = BCD_increment(minute);
    8cfc:	0e 94 0c 45 	call	0x8a18	; 0x8a18 <BCD_increment>
    8d00:	80 93 2c 0c 	sts	0x0C2C, r24
      DS1307_write(0x01,minute);
    8d04:	81 e0       	ldi	r24, 0x01	; 1
    8d06:	60 91 2c 0c 	lds	r22, 0x0C2C
    8d0a:	0e 94 1f 43 	call	0x863e	; 0x863e <DS1307_write>
    8d0e:	08 95       	ret
    }
  else if((Xcursor == 20) && (Ycursor == 23))	// in case of second
    8d10:	84 31       	cpi	r24, 0x14	; 20
    8d12:	a9 f4       	brne	.+42     	; 0x8d3e <Increment+0x16a>
    8d14:	80 91 48 0b 	lds	r24, 0x0B48
    8d18:	87 31       	cpi	r24, 0x17	; 23
    8d1a:	89 f4       	brne	.+34     	; 0x8d3e <Increment+0x16a>
    { second = DS1307_read(0x00);
    8d1c:	80 e0       	ldi	r24, 0x00	; 0
    8d1e:	0e 94 c2 42 	call	0x8584	; 0x8584 <DS1307_read>
      if(second == 0x59)    second = 0x00;
    8d22:	89 35       	cpi	r24, 0x59	; 89
    8d24:	19 f4       	brne	.+6      	; 0x8d2c <Increment+0x158>
    8d26:	10 92 5f 0b 	sts	0x0B5F, r1
    8d2a:	04 c0       	rjmp	.+8      	; 0x8d34 <Increment+0x160>
      else                  second = BCD_increment(second);
    8d2c:	0e 94 0c 45 	call	0x8a18	; 0x8a18 <BCD_increment>
    8d30:	80 93 5f 0b 	sts	0x0B5F, r24
      DS1307_write(0x00,second);
    8d34:	80 e0       	ldi	r24, 0x00	; 0
    8d36:	60 91 5f 0b 	lds	r22, 0x0B5F
    8d3a:	0e 94 1f 43 	call	0x863e	; 0x863e <DS1307_write>
    8d3e:	08 95       	ret

00008d40 <Decrement>:
    }
}

void Decrement(void)	               		/* decrement time */
{
  if((Xcursor ==  8) && (Ycursor == 20))	// in case of year
    8d40:	80 91 4a 0c 	lds	r24, 0x0C4A
    8d44:	88 30       	cpi	r24, 0x08	; 8
    8d46:	a1 f4       	brne	.+40     	; 0x8d70 <Decrement+0x30>
    8d48:	80 91 48 0b 	lds	r24, 0x0B48
    8d4c:	84 31       	cpi	r24, 0x14	; 20
    8d4e:	09 f0       	breq	.+2      	; 0x8d52 <Decrement+0x12>
    8d50:	a8 c0       	rjmp	.+336    	; 0x8ea2 <Decrement+0x162>
    { year = DS1307_read(0x06);
    8d52:	86 e0       	ldi	r24, 0x06	; 6
    8d54:	0e 94 c2 42 	call	0x8584	; 0x8584 <DS1307_read>
      if(year == 0x00)      year = 0x99;
    8d58:	88 23       	and	r24, r24
    8d5a:	11 f4       	brne	.+4      	; 0x8d60 <Decrement+0x20>
    8d5c:	89 e9       	ldi	r24, 0x99	; 153
    8d5e:	02 c0       	rjmp	.+4      	; 0x8d64 <Decrement+0x24>
      else                  year = BCD_decrement(year);
    8d60:	0e 94 23 45 	call	0x8a46	; 0x8a46 <BCD_decrement>
    8d64:	80 93 3f 0c 	sts	0x0C3F, r24
      DS1307_write(0x06,year);
    8d68:	86 e0       	ldi	r24, 0x06	; 6
    8d6a:	60 91 3f 0c 	lds	r22, 0x0C3F
    8d6e:	80 c0       	rjmp	.+256    	; 0x8e70 <Decrement+0x130>
    }
  else if((Xcursor == 13) && (Ycursor == 20))	// in case of month
    8d70:	8d 30       	cpi	r24, 0x0D	; 13
    8d72:	a1 f4       	brne	.+40     	; 0x8d9c <Decrement+0x5c>
    8d74:	80 91 48 0b 	lds	r24, 0x0B48
    8d78:	84 31       	cpi	r24, 0x14	; 20
    8d7a:	09 f0       	breq	.+2      	; 0x8d7e <Decrement+0x3e>
    8d7c:	92 c0       	rjmp	.+292    	; 0x8ea2 <Decrement+0x162>
    { month = DS1307_read(0x05);
    8d7e:	85 e0       	ldi	r24, 0x05	; 5
    8d80:	0e 94 c2 42 	call	0x8584	; 0x8584 <DS1307_read>
      if(month == 0x01)     month = 0x12;
    8d84:	81 30       	cpi	r24, 0x01	; 1
    8d86:	11 f4       	brne	.+4      	; 0x8d8c <Decrement+0x4c>
    8d88:	82 e1       	ldi	r24, 0x12	; 18
    8d8a:	02 c0       	rjmp	.+4      	; 0x8d90 <Decrement+0x50>
      else                  month = BCD_decrement(month);
    8d8c:	0e 94 23 45 	call	0x8a46	; 0x8a46 <BCD_decrement>
    8d90:	80 93 5c 0b 	sts	0x0B5C, r24
      DS1307_write(0x05,month);
    8d94:	85 e0       	ldi	r24, 0x05	; 5
    8d96:	60 91 5c 0b 	lds	r22, 0x0B5C
    8d9a:	6a c0       	rjmp	.+212    	; 0x8e70 <Decrement+0x130>
    }
  else if((Xcursor == 18) && (Ycursor == 20))	// in case of date
    8d9c:	82 31       	cpi	r24, 0x12	; 18
    8d9e:	a1 f4       	brne	.+40     	; 0x8dc8 <Decrement+0x88>
    8da0:	80 91 48 0b 	lds	r24, 0x0B48
    8da4:	84 31       	cpi	r24, 0x14	; 20
    8da6:	09 f0       	breq	.+2      	; 0x8daa <Decrement+0x6a>
    8da8:	7c c0       	rjmp	.+248    	; 0x8ea2 <Decrement+0x162>
    { date = DS1307_read(0x04);
    8daa:	84 e0       	ldi	r24, 0x04	; 4
    8dac:	0e 94 c2 42 	call	0x8584	; 0x8584 <DS1307_read>
      if(date == 0x01)      date = 0x31;
    8db0:	81 30       	cpi	r24, 0x01	; 1
    8db2:	11 f4       	brne	.+4      	; 0x8db8 <Decrement+0x78>
    8db4:	81 e3       	ldi	r24, 0x31	; 49
    8db6:	02 c0       	rjmp	.+4      	; 0x8dbc <Decrement+0x7c>
      else                  date = BCD_decrement(date);
    8db8:	0e 94 23 45 	call	0x8a46	; 0x8a46 <BCD_decrement>
    8dbc:	80 93 45 0c 	sts	0x0C45, r24
      DS1307_write(0x04,date);
    8dc0:	84 e0       	ldi	r24, 0x04	; 4
    8dc2:	60 91 45 0c 	lds	r22, 0x0C45
    8dc6:	54 c0       	rjmp	.+168    	; 0x8e70 <Decrement+0x130>
    }
  else if((Xcursor == 22) && (Ycursor == 20))	// in case of weekday
    8dc8:	86 31       	cpi	r24, 0x16	; 22
    8dca:	99 f4       	brne	.+38     	; 0x8df2 <Decrement+0xb2>
    8dcc:	80 91 48 0b 	lds	r24, 0x0B48
    8dd0:	84 31       	cpi	r24, 0x14	; 20
    8dd2:	09 f0       	breq	.+2      	; 0x8dd6 <Decrement+0x96>
    8dd4:	66 c0       	rjmp	.+204    	; 0x8ea2 <Decrement+0x162>
    { weekday = DS1307_read(0x03);
    8dd6:	83 e0       	ldi	r24, 0x03	; 3
    8dd8:	0e 94 c2 42 	call	0x8584	; 0x8584 <DS1307_read>
      if(weekday == 0x01)   weekday = 0x07;
    8ddc:	81 30       	cpi	r24, 0x01	; 1
    8dde:	11 f4       	brne	.+4      	; 0x8de4 <Decrement+0xa4>
    8de0:	87 e0       	ldi	r24, 0x07	; 7
    8de2:	01 c0       	rjmp	.+2      	; 0x8de6 <Decrement+0xa6>
      else                  weekday--;
    8de4:	81 50       	subi	r24, 0x01	; 1
    8de6:	80 93 4e 0c 	sts	0x0C4E, r24
      DS1307_write(0x03,weekday);
    8dea:	83 e0       	ldi	r24, 0x03	; 3
    8dec:	60 91 4e 0c 	lds	r22, 0x0C4E
    8df0:	3f c0       	rjmp	.+126    	; 0x8e70 <Decrement+0x130>
    }
  else if((Xcursor == 10) && (Ycursor == 23))	// in case of AM/PM
    8df2:	8a 30       	cpi	r24, 0x0A	; 10
    8df4:	99 f4       	brne	.+38     	; 0x8e1c <Decrement+0xdc>
    8df6:	80 91 48 0b 	lds	r24, 0x0B48
    8dfa:	87 31       	cpi	r24, 0x17	; 23
    8dfc:	09 f0       	breq	.+2      	; 0x8e00 <Decrement+0xc0>
    8dfe:	51 c0       	rjmp	.+162    	; 0x8ea2 <Decrement+0x162>
    { hour = DS1307_read(0x02);
    8e00:	82 e0       	ldi	r24, 0x02	; 2
    8e02:	0e 94 c2 42 	call	0x8584	; 0x8584 <DS1307_read>
      if((hour & 0x20) == 0x00) hour |= 0x20;
    8e06:	85 fd       	sbrc	r24, 5
    8e08:	02 c0       	rjmp	.+4      	; 0x8e0e <Decrement+0xce>
    8e0a:	80 62       	ori	r24, 0x20	; 32
    8e0c:	01 c0       	rjmp	.+2      	; 0x8e10 <Decrement+0xd0>
      else                      hour &= 0xDF;
    8e0e:	8f 7d       	andi	r24, 0xDF	; 223
    8e10:	80 93 33 0c 	sts	0x0C33, r24
      DS1307_write(0x02,hour);
    8e14:	82 e0       	ldi	r24, 0x02	; 2
    8e16:	60 91 33 0c 	lds	r22, 0x0C33
    8e1a:	2a c0       	rjmp	.+84     	; 0x8e70 <Decrement+0x130>
    }
  else if((Xcursor == 14) && (Ycursor == 23))	// in case of hour
    8e1c:	8e 30       	cpi	r24, 0x0E	; 14
    8e1e:	a1 f4       	brne	.+40     	; 0x8e48 <Decrement+0x108>
    8e20:	80 91 48 0b 	lds	r24, 0x0B48
    8e24:	87 31       	cpi	r24, 0x17	; 23
    8e26:	e9 f5       	brne	.+122    	; 0x8ea2 <Decrement+0x162>
    { hour = DS1307_read(0x02);
    8e28:	82 e0       	ldi	r24, 0x02	; 2
    8e2a:	0e 94 c2 42 	call	0x8584	; 0x8584 <DS1307_read>
    8e2e:	98 2f       	mov	r25, r24
      if((hour & 0x1F) == 0x01) hour = (hour & 0xE0) + 0x12;
    8e30:	8f 71       	andi	r24, 0x1F	; 31
    8e32:	81 30       	cpi	r24, 0x01	; 1
    8e34:	29 f4       	brne	.+10     	; 0x8e40 <Decrement+0x100>
    8e36:	90 7e       	andi	r25, 0xE0	; 224
    8e38:	9e 5e       	subi	r25, 0xEE	; 238
    8e3a:	90 93 33 0c 	sts	0x0C33, r25
    8e3e:	ea cf       	rjmp	.-44     	; 0x8e14 <Decrement+0xd4>
      else                      hour = BCD_decrement(hour);
    8e40:	89 2f       	mov	r24, r25
    8e42:	0e 94 23 45 	call	0x8a46	; 0x8a46 <BCD_decrement>
    8e46:	e4 cf       	rjmp	.-56     	; 0x8e10 <Decrement+0xd0>
      DS1307_write(0x02,hour);
    }
  else if((Xcursor == 17) && (Ycursor == 23))	// in case of minute
    8e48:	81 31       	cpi	r24, 0x11	; 17
    8e4a:	a9 f4       	brne	.+42     	; 0x8e76 <Decrement+0x136>
    8e4c:	80 91 48 0b 	lds	r24, 0x0B48
    8e50:	87 31       	cpi	r24, 0x17	; 23
    8e52:	39 f5       	brne	.+78     	; 0x8ea2 <Decrement+0x162>
    { minute = DS1307_read(0x01);
    8e54:	81 e0       	ldi	r24, 0x01	; 1
    8e56:	0e 94 c2 42 	call	0x8584	; 0x8584 <DS1307_read>
      if(minute == 0x00)    minute = 0x59;
    8e5a:	88 23       	and	r24, r24
    8e5c:	11 f4       	brne	.+4      	; 0x8e62 <Decrement+0x122>
    8e5e:	89 e5       	ldi	r24, 0x59	; 89
    8e60:	02 c0       	rjmp	.+4      	; 0x8e66 <Decrement+0x126>
      else                  minute = BCD_decrement(minute);
    8e62:	0e 94 23 45 	call	0x8a46	; 0x8a46 <BCD_decrement>
    8e66:	80 93 2c 0c 	sts	0x0C2C, r24
      DS1307_write(0x01,minute);
    8e6a:	81 e0       	ldi	r24, 0x01	; 1
    8e6c:	60 91 2c 0c 	lds	r22, 0x0C2C
    8e70:	0e 94 1f 43 	call	0x863e	; 0x863e <DS1307_write>
    8e74:	08 95       	ret
    }
  else if((Xcursor == 20) && (Ycursor == 23))	// in case of second
    8e76:	84 31       	cpi	r24, 0x14	; 20
    8e78:	a1 f4       	brne	.+40     	; 0x8ea2 <Decrement+0x162>
    8e7a:	80 91 48 0b 	lds	r24, 0x0B48
    8e7e:	87 31       	cpi	r24, 0x17	; 23
    8e80:	81 f4       	brne	.+32     	; 0x8ea2 <Decrement+0x162>
    { second = DS1307_read(0x00);
    8e82:	80 e0       	ldi	r24, 0x00	; 0
    8e84:	0e 94 c2 42 	call	0x8584	; 0x8584 <DS1307_read>
      if(second == 0x00)    second = 0x59;
    8e88:	88 23       	and	r24, r24
    8e8a:	11 f4       	brne	.+4      	; 0x8e90 <Decrement+0x150>
    8e8c:	89 e5       	ldi	r24, 0x59	; 89
    8e8e:	02 c0       	rjmp	.+4      	; 0x8e94 <Decrement+0x154>
      else                  second = BCD_decrement(second);
    8e90:	0e 94 23 45 	call	0x8a46	; 0x8a46 <BCD_decrement>
    8e94:	80 93 5f 0b 	sts	0x0B5F, r24
      DS1307_write(0x00,second);
    8e98:	80 e0       	ldi	r24, 0x00	; 0
    8e9a:	60 91 5f 0b 	lds	r22, 0x0B5F
    8e9e:	0e 94 1f 43 	call	0x863e	; 0x863e <DS1307_write>
    8ea2:	08 95       	ret

00008ea4 <Test10>:
}

/* ---------------------------------------------------------------------------- */

void Test10(void)				/* Test 10 */
{
    8ea4:	0f 93       	push	r16
    8ea6:	1f 93       	push	r17
  unsigned char key;

  TFT_clear_screen();				// clear screen
    8ea8:	0e 94 cf 28 	call	0x519e	; 0x519e <TFT_clear_screen>
  TFT_portrait();				// portrait mode
    8eac:	0e 94 a0 2a 	call	0x5540	; 0x5540 <TFT_portrait>

  Rectangle(0,0, 239,319, Green);		// display title
    8eb0:	80 e0       	ldi	r24, 0x00	; 0
    8eb2:	90 e0       	ldi	r25, 0x00	; 0
    8eb4:	60 e0       	ldi	r22, 0x00	; 0
    8eb6:	70 e0       	ldi	r23, 0x00	; 0
    8eb8:	4f ee       	ldi	r20, 0xEF	; 239
    8eba:	50 e0       	ldi	r21, 0x00	; 0
    8ebc:	2f e3       	ldi	r18, 0x3F	; 63
    8ebe:	31 e0       	ldi	r19, 0x01	; 1
    8ec0:	00 ee       	ldi	r16, 0xE0	; 224
    8ec2:	17 e0       	ldi	r17, 0x07	; 7
    8ec4:	0e 94 14 33 	call	0x6628	; 0x6628 <Rectangle>
  Rectangle(1,1, 238,318, Green);
    8ec8:	81 e0       	ldi	r24, 0x01	; 1
    8eca:	90 e0       	ldi	r25, 0x00	; 0
    8ecc:	61 e0       	ldi	r22, 0x01	; 1
    8ece:	70 e0       	ldi	r23, 0x00	; 0
    8ed0:	4e ee       	ldi	r20, 0xEE	; 238
    8ed2:	50 e0       	ldi	r21, 0x00	; 0
    8ed4:	2e e3       	ldi	r18, 0x3E	; 62
    8ed6:	31 e0       	ldi	r19, 0x01	; 1
    8ed8:	0e 94 14 33 	call	0x6628	; 0x6628 <Rectangle>
  Rectangle(2,2, 237,317, Green);
    8edc:	82 e0       	ldi	r24, 0x02	; 2
    8ede:	90 e0       	ldi	r25, 0x00	; 0
    8ee0:	62 e0       	ldi	r22, 0x02	; 2
    8ee2:	70 e0       	ldi	r23, 0x00	; 0
    8ee4:	4d ee       	ldi	r20, 0xED	; 237
    8ee6:	50 e0       	ldi	r21, 0x00	; 0
    8ee8:	2d e3       	ldi	r18, 0x3D	; 61
    8eea:	31 e0       	ldi	r19, 0x01	; 1
    8eec:	0e 94 14 33 	call	0x6628	; 0x6628 <Rectangle>
  TFT_string(3,10,Green,Magenta,"(10)   ");
    8ef0:	83 e0       	ldi	r24, 0x03	; 3
    8ef2:	6a e0       	ldi	r22, 0x0A	; 10
    8ef4:	40 ee       	ldi	r20, 0xE0	; 224
    8ef6:	57 e0       	ldi	r21, 0x07	; 7
    8ef8:	2f e1       	ldi	r18, 0x1F	; 31
    8efa:	38 ef       	ldi	r19, 0xF8	; 248
    8efc:	0d e8       	ldi	r16, 0x8D	; 141
    8efe:	19 e0       	ldi	r17, 0x09	; 9
    8f00:	0e 94 28 2f 	call	0x5e50	; 0x5e50 <TFT_string>

  TFT_string(5,20,White,Black,"2010 12 05()");
    8f04:	85 e0       	ldi	r24, 0x05	; 5
    8f06:	64 e1       	ldi	r22, 0x14	; 20
    8f08:	4f ef       	ldi	r20, 0xFF	; 255
    8f0a:	5f ef       	ldi	r21, 0xFF	; 255
    8f0c:	20 e0       	ldi	r18, 0x00	; 0
    8f0e:	30 e0       	ldi	r19, 0x00	; 0
    8f10:	05 ea       	ldi	r16, 0xA5	; 165
    8f12:	19 e0       	ldi	r17, 0x09	; 9
    8f14:	0e 94 28 2f 	call	0x5e50	; 0x5e50 <TFT_string>
  TFT_string(5,23,White,Black,"    12:00:00    ");
    8f18:	85 e0       	ldi	r24, 0x05	; 5
    8f1a:	67 e1       	ldi	r22, 0x17	; 23
    8f1c:	4f ef       	ldi	r20, 0xFF	; 255
    8f1e:	5f ef       	ldi	r21, 0xFF	; 255
    8f20:	20 e0       	ldi	r18, 0x00	; 0
    8f22:	30 e0       	ldi	r19, 0x00	; 0
    8f24:	0a eb       	ldi	r16, 0xBA	; 186
    8f26:	19 e0       	ldi	r17, 0x09	; 9
    8f28:	0e 94 28 2f 	call	0x5e50	; 0x5e50 <TFT_string>

  DS1307_initialize();				// initialize DS1307 RTC
    8f2c:	0e 94 5e 43 	call	0x86bc	; 0x86bc <DS1307_initialize>
void TFT_cursor(U16 cursor_color)		/* set cursor and color */
{
  if(cursor_color == Transparent)		// disable cursor
    cursor_flag = 0;
  else						// enable cursor
    { cursor_flag = 1;
    8f30:	81 e0       	ldi	r24, 0x01	; 1
    8f32:	80 93 3f 0b 	sts	0x0B3F, r24
      cursor = cursor_color;
    8f36:	80 e0       	ldi	r24, 0x00	; 0
    8f38:	98 ef       	ldi	r25, 0xF8	; 248
    8f3a:	90 93 30 0c 	sts	0x0C30, r25
    8f3e:	80 93 2f 0c 	sts	0x0C2F, r24

  TFT_cursor(Red);				// display cursor
  Xcursor = 24;
    8f42:	88 e1       	ldi	r24, 0x18	; 24
    8f44:	80 93 4a 0c 	sts	0x0C4A, r24
  Ycursor = 23;
    8f48:	87 e1       	ldi	r24, 0x17	; 23
    8f4a:	80 93 48 0b 	sts	0x0B48, r24

  while(1)
    { Display_time();				// display clock
    8f4e:	0e 94 92 43 	call	0x8724	; 0x8724 <Display_time>

      key = Key_input();			// key input
    8f52:	0e 94 47 25 	call	0x4a8e	; 0x4a8e <Key_input>
      if((key == KEY4) && (Xcursor == 24) && (Ycursor == 23))
    8f56:	87 30       	cpi	r24, 0x07	; 7
    8f58:	49 f4       	brne	.+18     	; 0x8f6c <Test10+0xc8>
    8f5a:	80 91 4a 0c 	lds	r24, 0x0C4A
    8f5e:	88 31       	cpi	r24, 0x18	; 24
    8f60:	c9 f4       	brne	.+50     	; 0x8f94 <Test10+0xf0>
    8f62:	80 91 48 0b 	lds	r24, 0x0B48
    8f66:	87 31       	cpi	r24, 0x17	; 23
    8f68:	a9 f4       	brne	.+42     	; 0x8f94 <Test10+0xf0>
    8f6a:	17 c0       	rjmp	.+46     	; 0x8f9a <Test10+0xf6>
        return;

      switch(key)
    8f6c:	8b 30       	cpi	r24, 0x0B	; 11
    8f6e:	79 f0       	breq	.+30     	; 0x8f8e <Test10+0xea>
    8f70:	8c 30       	cpi	r24, 0x0C	; 12
    8f72:	18 f4       	brcc	.+6      	; 0x8f7a <Test10+0xd6>
    8f74:	87 30       	cpi	r24, 0x07	; 7
    8f76:	59 f7       	brne	.-42     	; 0x8f4e <Test10+0xaa>
    8f78:	0d c0       	rjmp	.+26     	; 0x8f94 <Test10+0xf0>
    8f7a:	8d 30       	cpi	r24, 0x0D	; 13
    8f7c:	29 f0       	breq	.+10     	; 0x8f88 <Test10+0xe4>
    8f7e:	8e 30       	cpi	r24, 0x0E	; 14
    8f80:	31 f7       	brne	.-52     	; 0x8f4e <Test10+0xaa>
        { case KEY1 : Cursor_left();		// if KEY1, go cursor left
    8f82:	0e 94 3a 45 	call	0x8a74	; 0x8a74 <Cursor_left>
    8f86:	e3 cf       	rjmp	.-58     	; 0x8f4e <Test10+0xaa>
                      break;
          case KEY2 : Cursor_right();		// if KEY2, go cursor right
    8f88:	0e 94 92 45 	call	0x8b24	; 0x8b24 <Cursor_right>
    8f8c:	e0 cf       	rjmp	.-64     	; 0x8f4e <Test10+0xaa>
                      break;
          case KEY3 : Increment();		// if KEY3, increment time
    8f8e:	0e 94 ea 45 	call	0x8bd4	; 0x8bd4 <Increment>
    8f92:	dd cf       	rjmp	.-70     	; 0x8f4e <Test10+0xaa>
                      break;
	  case KEY4 : Decrement();		// if KEY4, decrement time
    8f94:	0e 94 a0 46 	call	0x8d40	; 0x8d40 <Decrement>
    8f98:	da cf       	rjmp	.-76     	; 0x8f4e <Test10+0xaa>
                      break;
          default   : break;
        }
    }
}
    8f9a:	1f 91       	pop	r17
    8f9c:	0f 91       	pop	r16
    8f9e:	08 95       	ret

00008fa0 <Analog_increment>:
    }
}

void Analog_increment(void)			/* increment time */
{
  if((Xcursor == 10) && (Ycursor == 37))	// in case of AM/PM
    8fa0:	80 91 4a 0c 	lds	r24, 0x0C4A
    8fa4:	8a 30       	cpi	r24, 0x0A	; 10
    8fa6:	99 f4       	brne	.+38     	; 0x8fce <Analog_increment+0x2e>
    8fa8:	80 91 48 0b 	lds	r24, 0x0B48
    8fac:	85 32       	cpi	r24, 0x25	; 37
    8fae:	09 f0       	breq	.+2      	; 0x8fb2 <Analog_increment+0x12>
    8fb0:	ab c0       	rjmp	.+342    	; 0x9108 <Analog_increment+0x168>
    { hour = DS1307_read(0x02);
    8fb2:	82 e0       	ldi	r24, 0x02	; 2
    8fb4:	0e 94 c2 42 	call	0x8584	; 0x8584 <DS1307_read>
      if((hour & 0x20) == 0x00) hour |= 0x20;
    8fb8:	85 fd       	sbrc	r24, 5
    8fba:	02 c0       	rjmp	.+4      	; 0x8fc0 <Analog_increment+0x20>
    8fbc:	80 62       	ori	r24, 0x20	; 32
    8fbe:	01 c0       	rjmp	.+2      	; 0x8fc2 <Analog_increment+0x22>
      else                      hour &= 0xDF;
    8fc0:	8f 7d       	andi	r24, 0xDF	; 223
    8fc2:	80 93 33 0c 	sts	0x0C33, r24
      DS1307_write(0x02,hour);
    8fc6:	82 e0       	ldi	r24, 0x02	; 2
    8fc8:	60 91 33 0c 	lds	r22, 0x0C33
    8fcc:	85 c0       	rjmp	.+266    	; 0x90d8 <Analog_increment+0x138>
    }
  else if((Xcursor == 14) && (Ycursor == 37))	// in case of hour
    8fce:	8e 30       	cpi	r24, 0x0E	; 14
    8fd0:	a9 f4       	brne	.+42     	; 0x8ffc <Analog_increment+0x5c>
    8fd2:	80 91 48 0b 	lds	r24, 0x0B48
    8fd6:	85 32       	cpi	r24, 0x25	; 37
    8fd8:	09 f0       	breq	.+2      	; 0x8fdc <Analog_increment+0x3c>
    8fda:	57 c0       	rjmp	.+174    	; 0x908a <Analog_increment+0xea>
    { hour = DS1307_read(0x02);
    8fdc:	82 e0       	ldi	r24, 0x02	; 2
    8fde:	0e 94 c2 42 	call	0x8584	; 0x8584 <DS1307_read>
    8fe2:	98 2f       	mov	r25, r24
      if((hour & 0x1F) == 0x12) hour = (hour & 0xE0) + 0x01;
    8fe4:	8f 71       	andi	r24, 0x1F	; 31
    8fe6:	82 31       	cpi	r24, 0x12	; 18
    8fe8:	29 f4       	brne	.+10     	; 0x8ff4 <Analog_increment+0x54>
    8fea:	90 7e       	andi	r25, 0xE0	; 224
    8fec:	9f 5f       	subi	r25, 0xFF	; 255
    8fee:	90 93 33 0c 	sts	0x0C33, r25
    8ff2:	e9 cf       	rjmp	.-46     	; 0x8fc6 <Analog_increment+0x26>
      else                      hour = BCD_increment(hour);
    8ff4:	89 2f       	mov	r24, r25
    8ff6:	0e 94 0c 45 	call	0x8a18	; 0x8a18 <BCD_increment>
    8ffa:	e3 cf       	rjmp	.-58     	; 0x8fc2 <Analog_increment+0x22>
      DS1307_write(0x02,hour);
    }
  else if((Xcursor == 17) && (Ycursor == 37))	// in case of minute
    8ffc:	81 31       	cpi	r24, 0x11	; 17
    8ffe:	a9 f4       	brne	.+42     	; 0x902a <Analog_increment+0x8a>
    9000:	80 91 48 0b 	lds	r24, 0x0B48
    9004:	85 32       	cpi	r24, 0x25	; 37
    9006:	09 f0       	breq	.+2      	; 0x900a <Analog_increment+0x6a>
    9008:	55 c0       	rjmp	.+170    	; 0x90b4 <Analog_increment+0x114>
    { minute = DS1307_read(0x01);
    900a:	81 e0       	ldi	r24, 0x01	; 1
    900c:	0e 94 c2 42 	call	0x8584	; 0x8584 <DS1307_read>
      if(minute == 0x59)    minute = 0x00;
    9010:	89 35       	cpi	r24, 0x59	; 89
    9012:	19 f4       	brne	.+6      	; 0x901a <Analog_increment+0x7a>
    9014:	10 92 2c 0c 	sts	0x0C2C, r1
    9018:	04 c0       	rjmp	.+8      	; 0x9022 <Analog_increment+0x82>
      else                  minute = BCD_increment(minute);
    901a:	0e 94 0c 45 	call	0x8a18	; 0x8a18 <BCD_increment>
    901e:	80 93 2c 0c 	sts	0x0C2C, r24
      DS1307_write(0x01,minute);
    9022:	81 e0       	ldi	r24, 0x01	; 1
    9024:	60 91 2c 0c 	lds	r22, 0x0C2C
    9028:	57 c0       	rjmp	.+174    	; 0x90d8 <Analog_increment+0x138>
    }
  else if((Xcursor == 20) && (Ycursor == 37))	// in case of second
    902a:	84 31       	cpi	r24, 0x14	; 20
    902c:	a9 f4       	brne	.+42     	; 0x9058 <Analog_increment+0xb8>
    902e:	80 91 48 0b 	lds	r24, 0x0B48
    9032:	85 32       	cpi	r24, 0x25	; 37
    9034:	09 f0       	breq	.+2      	; 0x9038 <Analog_increment+0x98>
    9036:	68 c0       	rjmp	.+208    	; 0x9108 <Analog_increment+0x168>
    { second = DS1307_read(0x00);
    9038:	80 e0       	ldi	r24, 0x00	; 0
    903a:	0e 94 c2 42 	call	0x8584	; 0x8584 <DS1307_read>
      if(second == 0x59)    second = 0x00;
    903e:	89 35       	cpi	r24, 0x59	; 89
    9040:	19 f4       	brne	.+6      	; 0x9048 <Analog_increment+0xa8>
    9042:	10 92 5f 0b 	sts	0x0B5F, r1
    9046:	04 c0       	rjmp	.+8      	; 0x9050 <Analog_increment+0xb0>
      else                  second = BCD_increment(second);
    9048:	0e 94 0c 45 	call	0x8a18	; 0x8a18 <BCD_increment>
    904c:	80 93 5f 0b 	sts	0x0B5F, r24
      DS1307_write(0x00,second);
    9050:	80 e0       	ldi	r24, 0x00	; 0
    9052:	60 91 5f 0b 	lds	r22, 0x0B5F
    9056:	40 c0       	rjmp	.+128    	; 0x90d8 <Analog_increment+0x138>
    }
  else if((Xcursor == 11) && (Ycursor == 25))	// in case of year
    9058:	8b 30       	cpi	r24, 0x0B	; 11
    905a:	a9 f4       	brne	.+42     	; 0x9086 <Analog_increment+0xe6>
    905c:	80 91 48 0b 	lds	r24, 0x0B48
    9060:	89 31       	cpi	r24, 0x19	; 25
    9062:	09 f0       	breq	.+2      	; 0x9066 <Analog_increment+0xc6>
    9064:	51 c0       	rjmp	.+162    	; 0x9108 <Analog_increment+0x168>
    { year = DS1307_read(0x06);
    9066:	86 e0       	ldi	r24, 0x06	; 6
    9068:	0e 94 c2 42 	call	0x8584	; 0x8584 <DS1307_read>
      if(year == 0x99)      year = 0x00;
    906c:	89 39       	cpi	r24, 0x99	; 153
    906e:	19 f4       	brne	.+6      	; 0x9076 <Analog_increment+0xd6>
    9070:	10 92 3f 0c 	sts	0x0C3F, r1
    9074:	04 c0       	rjmp	.+8      	; 0x907e <Analog_increment+0xde>
      else                  year = BCD_increment(year);
    9076:	0e 94 0c 45 	call	0x8a18	; 0x8a18 <BCD_increment>
    907a:	80 93 3f 0c 	sts	0x0C3F, r24
      DS1307_write(0x06,year);
    907e:	86 e0       	ldi	r24, 0x06	; 6
    9080:	60 91 3f 0c 	lds	r22, 0x0C3F
    9084:	29 c0       	rjmp	.+82     	; 0x90d8 <Analog_increment+0x138>
    }
  else if((Xcursor == 14) && (Ycursor == 25))	// in case of month
    9086:	8e 30       	cpi	r24, 0x0E	; 14
    9088:	99 f4       	brne	.+38     	; 0x90b0 <Analog_increment+0x110>
    908a:	80 91 48 0b 	lds	r24, 0x0B48
    908e:	89 31       	cpi	r24, 0x19	; 25
    9090:	d9 f5       	brne	.+118    	; 0x9108 <Analog_increment+0x168>
    { month = DS1307_read(0x05);
    9092:	85 e0       	ldi	r24, 0x05	; 5
    9094:	0e 94 c2 42 	call	0x8584	; 0x8584 <DS1307_read>
      if(month == 0x12)     month = 0x01;
    9098:	82 31       	cpi	r24, 0x12	; 18
    909a:	11 f4       	brne	.+4      	; 0x90a0 <Analog_increment+0x100>
    909c:	81 e0       	ldi	r24, 0x01	; 1
    909e:	02 c0       	rjmp	.+4      	; 0x90a4 <Analog_increment+0x104>
      else                  month = BCD_increment(month);
    90a0:	0e 94 0c 45 	call	0x8a18	; 0x8a18 <BCD_increment>
    90a4:	80 93 5c 0b 	sts	0x0B5C, r24
      DS1307_write(0x05,month);
    90a8:	85 e0       	ldi	r24, 0x05	; 5
    90aa:	60 91 5c 0b 	lds	r22, 0x0B5C
    90ae:	14 c0       	rjmp	.+40     	; 0x90d8 <Analog_increment+0x138>
    }
  else if((Xcursor == 17) && (Ycursor == 25))	// in case of date
    90b0:	81 31       	cpi	r24, 0x11	; 17
    90b2:	a9 f4       	brne	.+42     	; 0x90de <Analog_increment+0x13e>
    90b4:	80 91 48 0b 	lds	r24, 0x0B48
    90b8:	89 31       	cpi	r24, 0x19	; 25
    90ba:	31 f5       	brne	.+76     	; 0x9108 <Analog_increment+0x168>
    { date = DS1307_read(0x04);
    90bc:	84 e0       	ldi	r24, 0x04	; 4
    90be:	0e 94 c2 42 	call	0x8584	; 0x8584 <DS1307_read>
      if(date == 0x31)      date = 0x01;
    90c2:	81 33       	cpi	r24, 0x31	; 49
    90c4:	11 f4       	brne	.+4      	; 0x90ca <Analog_increment+0x12a>
    90c6:	81 e0       	ldi	r24, 0x01	; 1
    90c8:	02 c0       	rjmp	.+4      	; 0x90ce <Analog_increment+0x12e>
      else                  date = BCD_increment(date);
    90ca:	0e 94 0c 45 	call	0x8a18	; 0x8a18 <BCD_increment>
    90ce:	80 93 45 0c 	sts	0x0C45, r24
      DS1307_write(0x04,date);
    90d2:	84 e0       	ldi	r24, 0x04	; 4
    90d4:	60 91 45 0c 	lds	r22, 0x0C45
    90d8:	0e 94 1f 43 	call	0x863e	; 0x863e <DS1307_write>
    90dc:	08 95       	ret
    }
  else if((Xcursor == 19) && (Ycursor == 25))	// in case of weekday
    90de:	83 31       	cpi	r24, 0x13	; 19
    90e0:	99 f4       	brne	.+38     	; 0x9108 <Analog_increment+0x168>
    90e2:	80 91 48 0b 	lds	r24, 0x0B48
    90e6:	89 31       	cpi	r24, 0x19	; 25
    90e8:	79 f4       	brne	.+30     	; 0x9108 <Analog_increment+0x168>
    { weekday = DS1307_read(0x03);
    90ea:	83 e0       	ldi	r24, 0x03	; 3
    90ec:	0e 94 c2 42 	call	0x8584	; 0x8584 <DS1307_read>
      if(weekday == 0x07)   weekday = 0x01;
    90f0:	87 30       	cpi	r24, 0x07	; 7
    90f2:	11 f4       	brne	.+4      	; 0x90f8 <Analog_increment+0x158>
    90f4:	81 e0       	ldi	r24, 0x01	; 1
    90f6:	01 c0       	rjmp	.+2      	; 0x90fa <Analog_increment+0x15a>
      else                  weekday++;
    90f8:	8f 5f       	subi	r24, 0xFF	; 255
    90fa:	80 93 4e 0c 	sts	0x0C4E, r24
      DS1307_write(0x03,weekday);
    90fe:	83 e0       	ldi	r24, 0x03	; 3
    9100:	60 91 4e 0c 	lds	r22, 0x0C4E
    9104:	0e 94 1f 43 	call	0x863e	; 0x863e <DS1307_write>
    9108:	08 95       	ret

0000910a <Analog_decrement>:
    }
}

void Analog_decrement(void)			/* decrement time */
{
  if ((Xcursor == 10) && (Ycursor == 37))	// in case of AM/PM
    910a:	80 91 4a 0c 	lds	r24, 0x0C4A
    910e:	8a 30       	cpi	r24, 0x0A	; 10
    9110:	99 f4       	brne	.+38     	; 0x9138 <Analog_decrement+0x2e>
    9112:	80 91 48 0b 	lds	r24, 0x0B48
    9116:	85 32       	cpi	r24, 0x25	; 37
    9118:	09 f0       	breq	.+2      	; 0x911c <Analog_decrement+0x12>
    911a:	a8 c0       	rjmp	.+336    	; 0x926c <Analog_decrement+0x162>
    { hour = DS1307_read(0x02);
    911c:	82 e0       	ldi	r24, 0x02	; 2
    911e:	0e 94 c2 42 	call	0x8584	; 0x8584 <DS1307_read>
      if((hour & 0x20) == 0x00) hour |= 0x20;
    9122:	85 fd       	sbrc	r24, 5
    9124:	02 c0       	rjmp	.+4      	; 0x912a <Analog_decrement+0x20>
    9126:	80 62       	ori	r24, 0x20	; 32
    9128:	01 c0       	rjmp	.+2      	; 0x912c <Analog_decrement+0x22>
      else                      hour &= 0xDF;
    912a:	8f 7d       	andi	r24, 0xDF	; 223
    912c:	80 93 33 0c 	sts	0x0C33, r24
      DS1307_write(0x02,hour);
    9130:	82 e0       	ldi	r24, 0x02	; 2
    9132:	60 91 33 0c 	lds	r22, 0x0C33
    9136:	82 c0       	rjmp	.+260    	; 0x923c <Analog_decrement+0x132>
    }
  else if((Xcursor == 14) && (Ycursor == 37))	// in case of hour
    9138:	8e 30       	cpi	r24, 0x0E	; 14
    913a:	a9 f4       	brne	.+42     	; 0x9166 <Analog_decrement+0x5c>
    913c:	80 91 48 0b 	lds	r24, 0x0B48
    9140:	85 32       	cpi	r24, 0x25	; 37
    9142:	09 f0       	breq	.+2      	; 0x9146 <Analog_decrement+0x3c>
    9144:	54 c0       	rjmp	.+168    	; 0x91ee <Analog_decrement+0xe4>
    { hour = DS1307_read(0x02);
    9146:	82 e0       	ldi	r24, 0x02	; 2
    9148:	0e 94 c2 42 	call	0x8584	; 0x8584 <DS1307_read>
    914c:	98 2f       	mov	r25, r24
      if((hour & 0x1F) == 0x01) hour = (hour & 0xE0) + 0x12;
    914e:	8f 71       	andi	r24, 0x1F	; 31
    9150:	81 30       	cpi	r24, 0x01	; 1
    9152:	29 f4       	brne	.+10     	; 0x915e <Analog_decrement+0x54>
    9154:	90 7e       	andi	r25, 0xE0	; 224
    9156:	9e 5e       	subi	r25, 0xEE	; 238
    9158:	90 93 33 0c 	sts	0x0C33, r25
    915c:	e9 cf       	rjmp	.-46     	; 0x9130 <Analog_decrement+0x26>
      else                      hour = BCD_decrement(hour);
    915e:	89 2f       	mov	r24, r25
    9160:	0e 94 23 45 	call	0x8a46	; 0x8a46 <BCD_decrement>
    9164:	e3 cf       	rjmp	.-58     	; 0x912c <Analog_decrement+0x22>
      DS1307_write(0x02,hour);
    }
  else if((Xcursor == 17) && (Ycursor == 37))	// in case of minute
    9166:	81 31       	cpi	r24, 0x11	; 17
    9168:	a1 f4       	brne	.+40     	; 0x9192 <Analog_decrement+0x88>
    916a:	80 91 48 0b 	lds	r24, 0x0B48
    916e:	85 32       	cpi	r24, 0x25	; 37
    9170:	09 f0       	breq	.+2      	; 0x9174 <Analog_decrement+0x6a>
    9172:	52 c0       	rjmp	.+164    	; 0x9218 <Analog_decrement+0x10e>
    { minute = DS1307_read(0x01);
    9174:	81 e0       	ldi	r24, 0x01	; 1
    9176:	0e 94 c2 42 	call	0x8584	; 0x8584 <DS1307_read>
      if(minute == 0x00)    minute = 0x59;
    917a:	88 23       	and	r24, r24
    917c:	11 f4       	brne	.+4      	; 0x9182 <Analog_decrement+0x78>
    917e:	89 e5       	ldi	r24, 0x59	; 89
    9180:	02 c0       	rjmp	.+4      	; 0x9186 <Analog_decrement+0x7c>
      else                  minute = BCD_decrement(minute);
    9182:	0e 94 23 45 	call	0x8a46	; 0x8a46 <BCD_decrement>
    9186:	80 93 2c 0c 	sts	0x0C2C, r24
      DS1307_write(0x01,minute);
    918a:	81 e0       	ldi	r24, 0x01	; 1
    918c:	60 91 2c 0c 	lds	r22, 0x0C2C
    9190:	55 c0       	rjmp	.+170    	; 0x923c <Analog_decrement+0x132>
    }
  else if((Xcursor == 20) && (Ycursor == 37))	// in case of second
    9192:	84 31       	cpi	r24, 0x14	; 20
    9194:	a1 f4       	brne	.+40     	; 0x91be <Analog_decrement+0xb4>
    9196:	80 91 48 0b 	lds	r24, 0x0B48
    919a:	85 32       	cpi	r24, 0x25	; 37
    919c:	09 f0       	breq	.+2      	; 0x91a0 <Analog_decrement+0x96>
    919e:	66 c0       	rjmp	.+204    	; 0x926c <Analog_decrement+0x162>
    { second = DS1307_read(0x00);
    91a0:	80 e0       	ldi	r24, 0x00	; 0
    91a2:	0e 94 c2 42 	call	0x8584	; 0x8584 <DS1307_read>
      if(second == 0x00)    second = 0x59;
    91a6:	88 23       	and	r24, r24
    91a8:	11 f4       	brne	.+4      	; 0x91ae <Analog_decrement+0xa4>
    91aa:	89 e5       	ldi	r24, 0x59	; 89
    91ac:	02 c0       	rjmp	.+4      	; 0x91b2 <Analog_decrement+0xa8>
      else                  second = BCD_decrement(second);
    91ae:	0e 94 23 45 	call	0x8a46	; 0x8a46 <BCD_decrement>
    91b2:	80 93 5f 0b 	sts	0x0B5F, r24
      DS1307_write(0x00,second);
    91b6:	80 e0       	ldi	r24, 0x00	; 0
    91b8:	60 91 5f 0b 	lds	r22, 0x0B5F
    91bc:	3f c0       	rjmp	.+126    	; 0x923c <Analog_decrement+0x132>
    }
  else if((Xcursor == 11) && (Ycursor == 25))	// in case of year
    91be:	8b 30       	cpi	r24, 0x0B	; 11
    91c0:	a1 f4       	brne	.+40     	; 0x91ea <Analog_decrement+0xe0>
    91c2:	80 91 48 0b 	lds	r24, 0x0B48
    91c6:	89 31       	cpi	r24, 0x19	; 25
    91c8:	09 f0       	breq	.+2      	; 0x91cc <Analog_decrement+0xc2>
    91ca:	50 c0       	rjmp	.+160    	; 0x926c <Analog_decrement+0x162>
    { year = DS1307_read(0x06);
    91cc:	86 e0       	ldi	r24, 0x06	; 6
    91ce:	0e 94 c2 42 	call	0x8584	; 0x8584 <DS1307_read>
      if(year == 0x00)      year = 0x99;
    91d2:	88 23       	and	r24, r24
    91d4:	11 f4       	brne	.+4      	; 0x91da <Analog_decrement+0xd0>
    91d6:	89 e9       	ldi	r24, 0x99	; 153
    91d8:	02 c0       	rjmp	.+4      	; 0x91de <Analog_decrement+0xd4>
      else                  year = BCD_decrement(year);
    91da:	0e 94 23 45 	call	0x8a46	; 0x8a46 <BCD_decrement>
    91de:	80 93 3f 0c 	sts	0x0C3F, r24
      DS1307_write(0x06,year);
    91e2:	86 e0       	ldi	r24, 0x06	; 6
    91e4:	60 91 3f 0c 	lds	r22, 0x0C3F
    91e8:	29 c0       	rjmp	.+82     	; 0x923c <Analog_decrement+0x132>
    }
  else if((Xcursor == 14) && (Ycursor == 25))	// in case of month
    91ea:	8e 30       	cpi	r24, 0x0E	; 14
    91ec:	99 f4       	brne	.+38     	; 0x9214 <Analog_decrement+0x10a>
    91ee:	80 91 48 0b 	lds	r24, 0x0B48
    91f2:	89 31       	cpi	r24, 0x19	; 25
    91f4:	d9 f5       	brne	.+118    	; 0x926c <Analog_decrement+0x162>
    { month = DS1307_read(0x05);
    91f6:	85 e0       	ldi	r24, 0x05	; 5
    91f8:	0e 94 c2 42 	call	0x8584	; 0x8584 <DS1307_read>
      if(month == 0x01)     month = 0x12;
    91fc:	81 30       	cpi	r24, 0x01	; 1
    91fe:	11 f4       	brne	.+4      	; 0x9204 <Analog_decrement+0xfa>
    9200:	82 e1       	ldi	r24, 0x12	; 18
    9202:	02 c0       	rjmp	.+4      	; 0x9208 <Analog_decrement+0xfe>
      else                  month = BCD_decrement(month);
    9204:	0e 94 23 45 	call	0x8a46	; 0x8a46 <BCD_decrement>
    9208:	80 93 5c 0b 	sts	0x0B5C, r24
      DS1307_write(0x05,month);
    920c:	85 e0       	ldi	r24, 0x05	; 5
    920e:	60 91 5c 0b 	lds	r22, 0x0B5C
    9212:	14 c0       	rjmp	.+40     	; 0x923c <Analog_decrement+0x132>
    }
  else if((Xcursor == 17) && (Ycursor == 25))	// in case of date
    9214:	81 31       	cpi	r24, 0x11	; 17
    9216:	a9 f4       	brne	.+42     	; 0x9242 <Analog_decrement+0x138>
    9218:	80 91 48 0b 	lds	r24, 0x0B48
    921c:	89 31       	cpi	r24, 0x19	; 25
    921e:	31 f5       	brne	.+76     	; 0x926c <Analog_decrement+0x162>
    { date = DS1307_read(0x04);
    9220:	84 e0       	ldi	r24, 0x04	; 4
    9222:	0e 94 c2 42 	call	0x8584	; 0x8584 <DS1307_read>
      if(date == 0x01)      date = 0x31;
    9226:	81 30       	cpi	r24, 0x01	; 1
    9228:	11 f4       	brne	.+4      	; 0x922e <Analog_decrement+0x124>
    922a:	81 e3       	ldi	r24, 0x31	; 49
    922c:	02 c0       	rjmp	.+4      	; 0x9232 <Analog_decrement+0x128>
      else                  date = BCD_decrement(date);
    922e:	0e 94 23 45 	call	0x8a46	; 0x8a46 <BCD_decrement>
    9232:	80 93 45 0c 	sts	0x0C45, r24
      DS1307_write(0x04,date);
    9236:	84 e0       	ldi	r24, 0x04	; 4
    9238:	60 91 45 0c 	lds	r22, 0x0C45
    923c:	0e 94 1f 43 	call	0x863e	; 0x863e <DS1307_write>
    9240:	08 95       	ret
    }
  else if((Xcursor == 19) && (Ycursor == 25))	// in case of weekday
    9242:	83 31       	cpi	r24, 0x13	; 19
    9244:	99 f4       	brne	.+38     	; 0x926c <Analog_decrement+0x162>
    9246:	80 91 48 0b 	lds	r24, 0x0B48
    924a:	89 31       	cpi	r24, 0x19	; 25
    924c:	79 f4       	brne	.+30     	; 0x926c <Analog_decrement+0x162>
    { weekday = DS1307_read(0x03);
    924e:	83 e0       	ldi	r24, 0x03	; 3
    9250:	0e 94 c2 42 	call	0x8584	; 0x8584 <DS1307_read>
      if(weekday == 0x01)   weekday = 0x07;
    9254:	81 30       	cpi	r24, 0x01	; 1
    9256:	11 f4       	brne	.+4      	; 0x925c <Analog_decrement+0x152>
    9258:	87 e0       	ldi	r24, 0x07	; 7
    925a:	01 c0       	rjmp	.+2      	; 0x925e <Analog_decrement+0x154>
      else                  weekday--;
    925c:	81 50       	subi	r24, 0x01	; 1
    925e:	80 93 4e 0c 	sts	0x0C4E, r24
      DS1307_write(0x03,weekday);
    9262:	83 e0       	ldi	r24, 0x03	; 3
    9264:	60 91 4e 0c 	lds	r22, 0x0C4E
    9268:	0e 94 1f 43 	call	0x863e	; 0x863e <DS1307_write>
    926c:	08 95       	ret

0000926e <Analog_cursor_left>:
    }
}

void Analog_cursor_left(void)			/* go cursor left */
{
  if     ((Xcursor == 28) && (Ycursor == 37)) { Xcursor = 20; Ycursor = 37; }
    926e:	80 91 4a 0c 	lds	r24, 0x0C4A
    9272:	8c 31       	cpi	r24, 0x1C	; 28
    9274:	39 f4       	brne	.+14     	; 0x9284 <Analog_cursor_left+0x16>
    9276:	90 91 48 0b 	lds	r25, 0x0B48
    927a:	95 32       	cpi	r25, 0x25	; 37
    927c:	09 f0       	breq	.+2      	; 0x9280 <Analog_cursor_left+0x12>
    927e:	4c c0       	rjmp	.+152    	; 0x9318 <Analog_cursor_left+0xaa>
    9280:	84 e1       	ldi	r24, 0x14	; 20
    9282:	3b c0       	rjmp	.+118    	; 0x92fa <Analog_cursor_left+0x8c>
  else if((Xcursor == 20) && (Ycursor == 37)) { Xcursor = 17; Ycursor = 37; }
    9284:	84 31       	cpi	r24, 0x14	; 20
    9286:	31 f4       	brne	.+12     	; 0x9294 <Analog_cursor_left+0x26>
    9288:	90 91 48 0b 	lds	r25, 0x0B48
    928c:	95 32       	cpi	r25, 0x25	; 37
    928e:	09 f0       	breq	.+2      	; 0x9292 <Analog_cursor_left+0x24>
    9290:	43 c0       	rjmp	.+134    	; 0x9318 <Analog_cursor_left+0xaa>
    9292:	22 c0       	rjmp	.+68     	; 0x92d8 <Analog_cursor_left+0x6a>
  else if((Xcursor == 17) && (Ycursor == 37)) { Xcursor = 14; Ycursor = 37; }
    9294:	81 31       	cpi	r24, 0x11	; 17
    9296:	29 f4       	brne	.+10     	; 0x92a2 <Analog_cursor_left+0x34>
    9298:	90 91 48 0b 	lds	r25, 0x0B48
    929c:	95 32       	cpi	r25, 0x25	; 37
    929e:	01 f5       	brne	.+64     	; 0x92e0 <Analog_cursor_left+0x72>
    92a0:	23 c0       	rjmp	.+70     	; 0x92e8 <Analog_cursor_left+0x7a>
  else if((Xcursor == 14) && (Ycursor == 37)) { Xcursor = 10; Ycursor = 37; }
    92a2:	8e 30       	cpi	r24, 0x0E	; 14
    92a4:	31 f4       	brne	.+12     	; 0x92b2 <Analog_cursor_left+0x44>
    92a6:	90 91 48 0b 	lds	r25, 0x0B48
    92aa:	95 32       	cpi	r25, 0x25	; 37
    92ac:	09 f5       	brne	.+66     	; 0x92f0 <Analog_cursor_left+0x82>
    92ae:	8a e0       	ldi	r24, 0x0A	; 10
    92b0:	24 c0       	rjmp	.+72     	; 0x92fa <Analog_cursor_left+0x8c>
  else if((Xcursor == 10) && (Ycursor == 37)) { Xcursor = 19; Ycursor = 25; }
    92b2:	8a 30       	cpi	r24, 0x0A	; 10
    92b4:	59 f4       	brne	.+22     	; 0x92cc <Analog_cursor_left+0x5e>
    92b6:	80 91 48 0b 	lds	r24, 0x0B48
    92ba:	85 32       	cpi	r24, 0x25	; 37
    92bc:	69 f5       	brne	.+90     	; 0x9318 <Analog_cursor_left+0xaa>
    92be:	83 e1       	ldi	r24, 0x13	; 19
    92c0:	80 93 4a 0c 	sts	0x0C4A, r24
    92c4:	89 e1       	ldi	r24, 0x19	; 25
    92c6:	80 93 48 0b 	sts	0x0B48, r24
    92ca:	08 95       	ret

  else if((Xcursor == 19) && (Ycursor == 25)) { Xcursor = 17; Ycursor = 25; }
    92cc:	83 31       	cpi	r24, 0x13	; 19
    92ce:	31 f4       	brne	.+12     	; 0x92dc <Analog_cursor_left+0x6e>
    92d0:	90 91 48 0b 	lds	r25, 0x0B48
    92d4:	99 31       	cpi	r25, 0x19	; 25
    92d6:	01 f5       	brne	.+64     	; 0x9318 <Analog_cursor_left+0xaa>
    92d8:	81 e1       	ldi	r24, 0x11	; 17
    92da:	0f c0       	rjmp	.+30     	; 0x92fa <Analog_cursor_left+0x8c>
  else if((Xcursor == 17) && (Ycursor == 25)) { Xcursor = 14; Ycursor = 25; }
    92dc:	81 31       	cpi	r24, 0x11	; 17
    92de:	31 f4       	brne	.+12     	; 0x92ec <Analog_cursor_left+0x7e>
    92e0:	90 91 48 0b 	lds	r25, 0x0B48
    92e4:	99 31       	cpi	r25, 0x19	; 25
    92e6:	c1 f4       	brne	.+48     	; 0x9318 <Analog_cursor_left+0xaa>
    92e8:	8e e0       	ldi	r24, 0x0E	; 14
    92ea:	07 c0       	rjmp	.+14     	; 0x92fa <Analog_cursor_left+0x8c>
  else if((Xcursor == 14) && (Ycursor == 25)) { Xcursor = 11; Ycursor = 25; }
    92ec:	8e 30       	cpi	r24, 0x0E	; 14
    92ee:	41 f4       	brne	.+16     	; 0x9300 <Analog_cursor_left+0x92>
    92f0:	90 91 48 0b 	lds	r25, 0x0B48
    92f4:	99 31       	cpi	r25, 0x19	; 25
    92f6:	81 f4       	brne	.+32     	; 0x9318 <Analog_cursor_left+0xaa>
    92f8:	8b e0       	ldi	r24, 0x0B	; 11
    92fa:	80 93 4a 0c 	sts	0x0C4A, r24
    92fe:	08 95       	ret
  else if((Xcursor == 11) && (Ycursor == 25)) { Xcursor = 28; Ycursor = 37; }
    9300:	8b 30       	cpi	r24, 0x0B	; 11
    9302:	51 f4       	brne	.+20     	; 0x9318 <Analog_cursor_left+0xaa>
    9304:	80 91 48 0b 	lds	r24, 0x0B48
    9308:	89 31       	cpi	r24, 0x19	; 25
    930a:	31 f4       	brne	.+12     	; 0x9318 <Analog_cursor_left+0xaa>
    930c:	8c e1       	ldi	r24, 0x1C	; 28
    930e:	80 93 4a 0c 	sts	0x0C4A, r24
    9312:	85 e2       	ldi	r24, 0x25	; 37
    9314:	80 93 48 0b 	sts	0x0B48, r24
    9318:	08 95       	ret

0000931a <Analog_cursor_right>:
}

void Analog_cursor_right(void)			/* go cursor right */
{
  if     ((Xcursor == 28) && (Ycursor == 37)) { Xcursor = 11; Ycursor = 25; }
    931a:	80 91 4a 0c 	lds	r24, 0x0C4A
    931e:	8c 31       	cpi	r24, 0x1C	; 28
    9320:	61 f4       	brne	.+24     	; 0x933a <Analog_cursor_right+0x20>
    9322:	80 91 48 0b 	lds	r24, 0x0B48
    9326:	85 32       	cpi	r24, 0x25	; 37
    9328:	09 f0       	breq	.+2      	; 0x932c <Analog_cursor_right+0x12>
    932a:	4b c0       	rjmp	.+150    	; 0x93c2 <Analog_cursor_right+0xa8>
    932c:	8b e0       	ldi	r24, 0x0B	; 11
    932e:	80 93 4a 0c 	sts	0x0C4A, r24
    9332:	89 e1       	ldi	r24, 0x19	; 25
    9334:	80 93 48 0b 	sts	0x0B48, r24
    9338:	08 95       	ret
  else if((Xcursor == 10) && (Ycursor == 37)) { Xcursor = 14; Ycursor = 37; }
    933a:	8a 30       	cpi	r24, 0x0A	; 10
    933c:	29 f4       	brne	.+10     	; 0x9348 <Analog_cursor_right+0x2e>
    933e:	90 91 48 0b 	lds	r25, 0x0B48
    9342:	95 32       	cpi	r25, 0x25	; 37
    9344:	f1 f5       	brne	.+124    	; 0x93c2 <Analog_cursor_right+0xa8>
    9346:	1d c0       	rjmp	.+58     	; 0x9382 <Analog_cursor_right+0x68>
  else if((Xcursor == 14) && (Ycursor == 37)) { Xcursor = 17; Ycursor = 37; }
    9348:	8e 30       	cpi	r24, 0x0E	; 14
    934a:	29 f4       	brne	.+10     	; 0x9356 <Analog_cursor_right+0x3c>
    934c:	90 91 48 0b 	lds	r25, 0x0B48
    9350:	95 32       	cpi	r25, 0x25	; 37
    9352:	d9 f4       	brne	.+54     	; 0x938a <Analog_cursor_right+0x70>
    9354:	1e c0       	rjmp	.+60     	; 0x9392 <Analog_cursor_right+0x78>
  else if((Xcursor == 17) && (Ycursor == 37)) { Xcursor = 20; Ycursor = 37; }
    9356:	81 31       	cpi	r24, 0x11	; 17
    9358:	31 f4       	brne	.+12     	; 0x9366 <Analog_cursor_right+0x4c>
    935a:	90 91 48 0b 	lds	r25, 0x0B48
    935e:	95 32       	cpi	r25, 0x25	; 37
    9360:	e1 f4       	brne	.+56     	; 0x939a <Analog_cursor_right+0x80>
    9362:	84 e1       	ldi	r24, 0x14	; 20
    9364:	1f c0       	rjmp	.+62     	; 0x93a4 <Analog_cursor_right+0x8a>
  else if((Xcursor == 20) && (Ycursor == 37)) { Xcursor = 28; Ycursor = 37; }
    9366:	84 31       	cpi	r24, 0x14	; 20
    9368:	31 f4       	brne	.+12     	; 0x9376 <Analog_cursor_right+0x5c>
    936a:	90 91 48 0b 	lds	r25, 0x0B48
    936e:	95 32       	cpi	r25, 0x25	; 37
    9370:	41 f5       	brne	.+80     	; 0x93c2 <Analog_cursor_right+0xa8>
    9372:	8c e1       	ldi	r24, 0x1C	; 28
    9374:	17 c0       	rjmp	.+46     	; 0x93a4 <Analog_cursor_right+0x8a>

  else if((Xcursor == 11) && (Ycursor == 25)) { Xcursor = 14; Ycursor = 25; }
    9376:	8b 30       	cpi	r24, 0x0B	; 11
    9378:	31 f4       	brne	.+12     	; 0x9386 <Analog_cursor_right+0x6c>
    937a:	90 91 48 0b 	lds	r25, 0x0B48
    937e:	99 31       	cpi	r25, 0x19	; 25
    9380:	01 f5       	brne	.+64     	; 0x93c2 <Analog_cursor_right+0xa8>
    9382:	8e e0       	ldi	r24, 0x0E	; 14
    9384:	0f c0       	rjmp	.+30     	; 0x93a4 <Analog_cursor_right+0x8a>
  else if((Xcursor == 14) && (Ycursor == 25)) { Xcursor = 17; Ycursor = 25; }
    9386:	8e 30       	cpi	r24, 0x0E	; 14
    9388:	31 f4       	brne	.+12     	; 0x9396 <Analog_cursor_right+0x7c>
    938a:	90 91 48 0b 	lds	r25, 0x0B48
    938e:	99 31       	cpi	r25, 0x19	; 25
    9390:	c1 f4       	brne	.+48     	; 0x93c2 <Analog_cursor_right+0xa8>
    9392:	81 e1       	ldi	r24, 0x11	; 17
    9394:	07 c0       	rjmp	.+14     	; 0x93a4 <Analog_cursor_right+0x8a>
  else if((Xcursor == 17) && (Ycursor == 25)) { Xcursor = 19; Ycursor = 25; }
    9396:	81 31       	cpi	r24, 0x11	; 17
    9398:	41 f4       	brne	.+16     	; 0x93aa <Analog_cursor_right+0x90>
    939a:	90 91 48 0b 	lds	r25, 0x0B48
    939e:	99 31       	cpi	r25, 0x19	; 25
    93a0:	81 f4       	brne	.+32     	; 0x93c2 <Analog_cursor_right+0xa8>
    93a2:	83 e1       	ldi	r24, 0x13	; 19
    93a4:	80 93 4a 0c 	sts	0x0C4A, r24
    93a8:	08 95       	ret
  else if((Xcursor == 19) && (Ycursor == 25)) { Xcursor = 10; Ycursor = 37; }
    93aa:	83 31       	cpi	r24, 0x13	; 19
    93ac:	51 f4       	brne	.+20     	; 0x93c2 <Analog_cursor_right+0xa8>
    93ae:	80 91 48 0b 	lds	r24, 0x0B48
    93b2:	89 31       	cpi	r24, 0x19	; 25
    93b4:	31 f4       	brne	.+12     	; 0x93c2 <Analog_cursor_right+0xa8>
    93b6:	8a e0       	ldi	r24, 0x0A	; 10
    93b8:	80 93 4a 0c 	sts	0x0C4A, r24
    93bc:	85 e2       	ldi	r24, 0x25	; 37
    93be:	80 93 48 0b 	sts	0x0B48, r24
    93c2:	08 95       	ret

000093c4 <Line_soft>:
  Xcircle_second_old = Xcircle_second;
  Ycircle_second_old = Ycircle_second;
}

void Line_soft(S16 x1,S16 y1, S16 x2,S16 y2, U16 color)	/* draw a soft line */
{
    93c4:	2f 92       	push	r2
    93c6:	3f 92       	push	r3
    93c8:	4f 92       	push	r4
    93ca:	5f 92       	push	r5
    93cc:	6f 92       	push	r6
    93ce:	7f 92       	push	r7
    93d0:	8f 92       	push	r8
    93d2:	9f 92       	push	r9
    93d4:	af 92       	push	r10
    93d6:	bf 92       	push	r11
    93d8:	cf 92       	push	r12
    93da:	df 92       	push	r13
    93dc:	ef 92       	push	r14
    93de:	ff 92       	push	r15
    93e0:	0f 93       	push	r16
    93e2:	1f 93       	push	r17
    93e4:	cf 93       	push	r28
    93e6:	df 93       	push	r29
    93e8:	6c 01       	movw	r12, r24
    93ea:	5b 01       	movw	r10, r22
    93ec:	4a 01       	movw	r8, r20
    93ee:	79 01       	movw	r14, r18
    93f0:	28 01       	movw	r4, r16
  int x, y;

  if(y1 != y2)					// if y1 != y2, y is variable
    93f2:	62 17       	cp	r22, r18
    93f4:	73 07       	cpc	r23, r19
    93f6:	c1 f1       	breq	.+112    	; 0x9468 <Line_soft+0xa4>
    { if(y1 < y2)				//              x is function
    93f8:	62 17       	cp	r22, r18
    93fa:	73 07       	cpc	r23, r19
    93fc:	dc f4       	brge	.+54     	; 0x9434 <Line_soft+0x70>
    93fe:	1a 01       	movw	r2, r20
    9400:	28 1a       	sub	r2, r24
    9402:	39 0a       	sbc	r3, r25
    9404:	eb 01       	movw	r28, r22
    9406:	00 e0       	ldi	r16, 0x00	; 0
    9408:	10 e0       	ldi	r17, 0x00	; 0
        for(y = y1; y <= y2; y++)
          { x = x1 + (y - y1)*(x2 - x1)/(y2 - y1);
            TFT_pixel(x, y, color);
    940a:	39 01       	movw	r6, r18
    940c:	66 1a       	sub	r6, r22
    940e:	77 0a       	sbc	r7, r23
    9410:	c8 01       	movw	r24, r16
    9412:	b3 01       	movw	r22, r6
    9414:	0e 94 27 61 	call	0xc24e	; 0xc24e <__divmodhi4>
    9418:	cb 01       	movw	r24, r22
    941a:	8c 0d       	add	r24, r12
    941c:	9d 1d       	adc	r25, r13
    941e:	be 01       	movw	r22, r28
    9420:	a2 01       	movw	r20, r4
    9422:	0e 94 52 2a 	call	0x54a4	; 0x54a4 <TFT_pixel>
{
  int x, y;

  if(y1 != y2)					// if y1 != y2, y is variable
    { if(y1 < y2)				//              x is function
        for(y = y1; y <= y2; y++)
    9426:	21 96       	adiw	r28, 0x01	; 1
    9428:	02 0d       	add	r16, r2
    942a:	13 1d       	adc	r17, r3
    942c:	ec 16       	cp	r14, r28
    942e:	fd 06       	cpc	r15, r29
    9430:	7c f7       	brge	.-34     	; 0x9410 <Line_soft+0x4c>
    9432:	1a c0       	rjmp	.+52     	; 0x9468 <Line_soft+0xa4>
    9434:	1c 01       	movw	r2, r24
    9436:	24 1a       	sub	r2, r20
    9438:	35 0a       	sbc	r3, r21
    943a:	eb 01       	movw	r28, r22
    943c:	00 e0       	ldi	r16, 0x00	; 0
    943e:	10 e0       	ldi	r17, 0x00	; 0
            TFT_pixel(x, y, color);
          }
      else
        for(y = y1; y >= y2; y--)
          { x = x1 + (y - y1)*(x2 - x1)/(y2 - y1);
            TFT_pixel(x, y, color);
    9440:	39 01       	movw	r6, r18
    9442:	66 1a       	sub	r6, r22
    9444:	77 0a       	sbc	r7, r23
    9446:	c8 01       	movw	r24, r16
    9448:	b3 01       	movw	r22, r6
    944a:	0e 94 27 61 	call	0xc24e	; 0xc24e <__divmodhi4>
    944e:	cb 01       	movw	r24, r22
    9450:	8c 0d       	add	r24, r12
    9452:	9d 1d       	adc	r25, r13
    9454:	be 01       	movw	r22, r28
    9456:	a2 01       	movw	r20, r4
    9458:	0e 94 52 2a 	call	0x54a4	; 0x54a4 <TFT_pixel>
        for(y = y1; y <= y2; y++)
          { x = x1 + (y - y1)*(x2 - x1)/(y2 - y1);
            TFT_pixel(x, y, color);
          }
      else
        for(y = y1; y >= y2; y--)
    945c:	21 97       	sbiw	r28, 0x01	; 1
    945e:	02 0d       	add	r16, r2
    9460:	13 1d       	adc	r17, r3
    9462:	ce 15       	cp	r28, r14
    9464:	df 05       	cpc	r29, r15
    9466:	7c f7       	brge	.-34     	; 0x9446 <Line_soft+0x82>
          { x = x1 + (y - y1)*(x2 - x1)/(y2 - y1);
            TFT_pixel(x, y, color);
          }
    }
  if(x1 != x2)					// if x1 != x2, x is variable
    9468:	c8 14       	cp	r12, r8
    946a:	d9 04       	cpc	r13, r9
    946c:	b1 f1       	breq	.+108    	; 0x94da <Line_soft+0x116>
    { if(x1 < x2)				//              y is function
    946e:	c8 14       	cp	r12, r8
    9470:	d9 04       	cpc	r13, r9
    9472:	d4 f4       	brge	.+52     	; 0x94a8 <Line_soft+0xe4>
    9474:	37 01       	movw	r6, r14
    9476:	6a 18       	sub	r6, r10
    9478:	7b 08       	sbc	r7, r11
    947a:	e6 01       	movw	r28, r12
    947c:	00 e0       	ldi	r16, 0x00	; 0
    947e:	10 e0       	ldi	r17, 0x00	; 0
        for(x = x1; x <= x2; x++)
          { y = y1 + (x - x1)*(y2 - y1)/(x2 - x1);
            TFT_pixel(x, y, color);
    9480:	74 01       	movw	r14, r8
    9482:	ec 18       	sub	r14, r12
    9484:	fd 08       	sbc	r15, r13
    9486:	c8 01       	movw	r24, r16
    9488:	b7 01       	movw	r22, r14
    948a:	0e 94 27 61 	call	0xc24e	; 0xc24e <__divmodhi4>
    948e:	6a 0d       	add	r22, r10
    9490:	7b 1d       	adc	r23, r11
    9492:	ce 01       	movw	r24, r28
    9494:	a2 01       	movw	r20, r4
    9496:	0e 94 52 2a 	call	0x54a4	; 0x54a4 <TFT_pixel>
            TFT_pixel(x, y, color);
          }
    }
  if(x1 != x2)					// if x1 != x2, x is variable
    { if(x1 < x2)				//              y is function
        for(x = x1; x <= x2; x++)
    949a:	21 96       	adiw	r28, 0x01	; 1
    949c:	06 0d       	add	r16, r6
    949e:	17 1d       	adc	r17, r7
    94a0:	8c 16       	cp	r8, r28
    94a2:	9d 06       	cpc	r9, r29
    94a4:	84 f7       	brge	.-32     	; 0x9486 <Line_soft+0xc2>
    94a6:	19 c0       	rjmp	.+50     	; 0x94da <Line_soft+0x116>
    94a8:	35 01       	movw	r6, r10
    94aa:	6e 18       	sub	r6, r14
    94ac:	7f 08       	sbc	r7, r15
    94ae:	e6 01       	movw	r28, r12
    94b0:	00 e0       	ldi	r16, 0x00	; 0
    94b2:	10 e0       	ldi	r17, 0x00	; 0
            TFT_pixel(x, y, color);
          }
      else
        for(x = x1; x >= x2; x--)
          { y = y1 + (x - x1)*(y2 - y1)/(x2 - x1);
            TFT_pixel(x, y, color);
    94b4:	74 01       	movw	r14, r8
    94b6:	ec 18       	sub	r14, r12
    94b8:	fd 08       	sbc	r15, r13
    94ba:	c8 01       	movw	r24, r16
    94bc:	b7 01       	movw	r22, r14
    94be:	0e 94 27 61 	call	0xc24e	; 0xc24e <__divmodhi4>
    94c2:	6a 0d       	add	r22, r10
    94c4:	7b 1d       	adc	r23, r11
    94c6:	ce 01       	movw	r24, r28
    94c8:	a2 01       	movw	r20, r4
    94ca:	0e 94 52 2a 	call	0x54a4	; 0x54a4 <TFT_pixel>
        for(x = x1; x <= x2; x++)
          { y = y1 + (x - x1)*(y2 - y1)/(x2 - x1);
            TFT_pixel(x, y, color);
          }
      else
        for(x = x1; x >= x2; x--)
    94ce:	21 97       	sbiw	r28, 0x01	; 1
    94d0:	06 0d       	add	r16, r6
    94d2:	17 1d       	adc	r17, r7
    94d4:	c8 15       	cp	r28, r8
    94d6:	d9 05       	cpc	r29, r9
    94d8:	84 f7       	brge	.-32     	; 0x94ba <Line_soft+0xf6>
          { y = y1 + (x - x1)*(y2 - y1)/(x2 - x1);
            TFT_pixel(x, y, color);
          }
    }
}
    94da:	df 91       	pop	r29
    94dc:	cf 91       	pop	r28
    94de:	1f 91       	pop	r17
    94e0:	0f 91       	pop	r16
    94e2:	ff 90       	pop	r15
    94e4:	ef 90       	pop	r14
    94e6:	df 90       	pop	r13
    94e8:	cf 90       	pop	r12
    94ea:	bf 90       	pop	r11
    94ec:	af 90       	pop	r10
    94ee:	9f 90       	pop	r9
    94f0:	8f 90       	pop	r8
    94f2:	7f 90       	pop	r7
    94f4:	6f 90       	pop	r6
    94f6:	5f 90       	pop	r5
    94f8:	4f 90       	pop	r4
    94fa:	3f 90       	pop	r3
    94fc:	2f 90       	pop	r2
    94fe:	08 95       	ret

00009500 <TFT_English_pixel>:

void TFT_English_pixel(U16 Xpixel,U16 Ypixel, U08 code)	/* write a English ASCII character */
{
    9500:	2f 92       	push	r2
    9502:	3f 92       	push	r3
    9504:	4f 92       	push	r4
    9506:	5f 92       	push	r5
    9508:	6f 92       	push	r6
    950a:	7f 92       	push	r7
    950c:	8f 92       	push	r8
    950e:	9f 92       	push	r9
    9510:	af 92       	push	r10
    9512:	bf 92       	push	r11
    9514:	cf 92       	push	r12
    9516:	df 92       	push	r13
    9518:	ef 92       	push	r14
    951a:	ff 92       	push	r15
    951c:	0f 93       	push	r16
    951e:	1f 93       	push	r17
    9520:	df 93       	push	r29
    9522:	cf 93       	push	r28
    9524:	cd b7       	in	r28, 0x3d	; 61
    9526:	de b7       	in	r29, 0x3e	; 62
    9528:	c0 50       	subi	r28, 0x00	; 0
    952a:	d1 40       	sbci	r29, 0x01	; 1
    952c:	0f b6       	in	r0, 0x3f	; 63
    952e:	f8 94       	cli
    9530:	de bf       	out	0x3e, r29	; 62
    9532:	0f be       	out	0x3f, r0	; 63
    9534:	cd bf       	out	0x3d, r28	; 61
    9536:	1c 01       	movw	r2, r24
    9538:	2b 01       	movw	r4, r22
  unsigned char data, x, y;
  unsigned int pixel[8][16];

  for(x = 0; x < 8; x++)			// read English ASCII font
    { data = pgm_read_byte(&E_font[code][x]);
    953a:	50 e0       	ldi	r21, 0x00	; 0
      for(y = 0; y < 8; y++)
        { if(data & 0x01) pixel[x][y] = foreground;
    953c:	e0 90 4f 0b 	lds	r14, 0x0B4F
    9540:	f0 90 50 0b 	lds	r15, 0x0B50
	  else            pixel[x][y] = background;
    9544:	00 91 55 0b 	lds	r16, 0x0B55
    9548:	10 91 56 0b 	lds	r17, 0x0B56
          }
    }
}

void TFT_English_pixel(U16 Xpixel,U16 Ypixel, U08 code)	/* write a English ASCII character */
{
    954c:	9a 01       	movw	r18, r20
    954e:	64 e0       	ldi	r22, 0x04	; 4
    9550:	22 0f       	add	r18, r18
    9552:	33 1f       	adc	r19, r19
    9554:	6a 95       	dec	r22
    9556:	e1 f7       	brne	.-8      	; 0x9550 <TFT_English_pixel+0x50>
    9558:	27 56       	subi	r18, 0x67	; 103
    955a:	3f 4b       	sbci	r19, 0xBF	; 191
    955c:	de 01       	movw	r26, r28
    955e:	51 96       	adiw	r26, 0x11	; 17
    9560:	60 e0       	ldi	r22, 0x00	; 0
    9562:	70 e0       	ldi	r23, 0x00	; 0
  unsigned char data, x, y;
  unsigned int pixel[8][16];

  for(x = 0; x < 8; x++)			// read English ASCII font
    { data = pgm_read_byte(&E_font[code][x]);
    9564:	6e 01       	movw	r12, r28
    9566:	08 94       	sec
    9568:	c1 1c       	adc	r12, r1
    956a:	d1 1c       	adc	r13, r1
    956c:	f9 01       	movw	r30, r18
    956e:	84 91       	lpm	r24, Z+
    9570:	fb 01       	movw	r30, r22
    9572:	95 e0       	ldi	r25, 0x05	; 5
    9574:	ee 0f       	add	r30, r30
    9576:	ff 1f       	adc	r31, r31
    9578:	9a 95       	dec	r25
    957a:	e1 f7       	brne	.-8      	; 0x9574 <TFT_English_pixel+0x74>
    957c:	ec 0d       	add	r30, r12
    957e:	fd 1d       	adc	r31, r13
      for(y = 0; y < 8; y++)
        { if(data & 0x01) pixel[x][y] = foreground;
    9580:	80 ff       	sbrs	r24, 0
    9582:	03 c0       	rjmp	.+6      	; 0x958a <TFT_English_pixel+0x8a>
    9584:	f1 82       	std	Z+1, r15	; 0x01
    9586:	e0 82       	st	Z, r14
    9588:	02 c0       	rjmp	.+4      	; 0x958e <TFT_English_pixel+0x8e>
	  else            pixel[x][y] = background;
    958a:	11 83       	std	Z+1, r17	; 0x01
    958c:	00 83       	st	Z, r16
    958e:	32 96       	adiw	r30, 0x02	; 2
  unsigned char data, x, y;
  unsigned int pixel[8][16];

  for(x = 0; x < 8; x++)			// read English ASCII font
    { data = pgm_read_byte(&E_font[code][x]);
      for(y = 0; y < 8; y++)
    9590:	ea 17       	cp	r30, r26
    9592:	fb 07       	cpc	r31, r27
    9594:	11 f0       	breq	.+4      	; 0x959a <TFT_English_pixel+0x9a>
        { if(data & 0x01) pixel[x][y] = foreground;
	  else            pixel[x][y] = background;
	  data = data >> 1;
    9596:	86 95       	lsr	r24
    9598:	f3 cf       	rjmp	.-26     	; 0x9580 <TFT_English_pixel+0x80>
    959a:	6f 5f       	subi	r22, 0xFF	; 255
    959c:	7f 4f       	sbci	r23, 0xFF	; 255
    959e:	2f 5f       	subi	r18, 0xFF	; 255
    95a0:	3f 4f       	sbci	r19, 0xFF	; 255
    95a2:	df 01       	movw	r26, r30
    95a4:	90 96       	adiw	r26, 0x20	; 32
void TFT_English_pixel(U16 Xpixel,U16 Ypixel, U08 code)	/* write a English ASCII character */
{
  unsigned char data, x, y;
  unsigned int pixel[8][16];

  for(x = 0; x < 8; x++)			// read English ASCII font
    95a6:	68 30       	cpi	r22, 0x08	; 8
    95a8:	71 05       	cpc	r23, r1
    95aa:	01 f7       	brne	.-64     	; 0x956c <TFT_English_pixel+0x6c>
    95ac:	9a 01       	movw	r18, r20
    95ae:	44 e0       	ldi	r20, 0x04	; 4
    95b0:	22 0f       	add	r18, r18
    95b2:	33 1f       	adc	r19, r19
    95b4:	4a 95       	dec	r20
    95b6:	e1 f7       	brne	.-8      	; 0x95b0 <TFT_English_pixel+0xb0>
    95b8:	2f 55       	subi	r18, 0x5F	; 95
    95ba:	3f 4b       	sbci	r19, 0xBF	; 191
    95bc:	be 01       	movw	r22, r28
    95be:	6f 5d       	subi	r22, 0xDF	; 223
    95c0:	7f 4f       	sbci	r23, 0xFF	; 255
    95c2:	40 e0       	ldi	r20, 0x00	; 0
    95c4:	50 e0       	ldi	r21, 0x00	; 0
	  data = data >> 1;
	}
    }

  for(x = 0; x < 8; x++)
    { data = pgm_read_byte(&E_font[code][x+8]);
    95c6:	de 01       	movw	r26, r28
    95c8:	11 96       	adiw	r26, 0x01	; 1
    95ca:	f9 01       	movw	r30, r18
    95cc:	84 91       	lpm	r24, Z+
    95ce:	fa 01       	movw	r30, r20
    95d0:	95 e0       	ldi	r25, 0x05	; 5
    95d2:	ee 0f       	add	r30, r30
    95d4:	ff 1f       	adc	r31, r31
    95d6:	9a 95       	dec	r25
    95d8:	e1 f7       	brne	.-8      	; 0x95d2 <TFT_English_pixel+0xd2>
    95da:	70 96       	adiw	r30, 0x10	; 16
    95dc:	ea 0f       	add	r30, r26
    95de:	fb 1f       	adc	r31, r27
      for(y = 0; y < 8; y++)
	{ if(data & 0x01) pixel[x][y+8] = foreground;
    95e0:	80 ff       	sbrs	r24, 0
    95e2:	03 c0       	rjmp	.+6      	; 0x95ea <TFT_English_pixel+0xea>
    95e4:	f1 82       	std	Z+1, r15	; 0x01
    95e6:	e0 82       	st	Z, r14
    95e8:	02 c0       	rjmp	.+4      	; 0x95ee <TFT_English_pixel+0xee>
	  else            pixel[x][y+8] = background;
    95ea:	11 83       	std	Z+1, r17	; 0x01
    95ec:	00 83       	st	Z, r16
    95ee:	32 96       	adiw	r30, 0x02	; 2
	}
    }

  for(x = 0; x < 8; x++)
    { data = pgm_read_byte(&E_font[code][x+8]);
      for(y = 0; y < 8; y++)
    95f0:	e6 17       	cp	r30, r22
    95f2:	f7 07       	cpc	r31, r23
    95f4:	11 f0       	breq	.+4      	; 0x95fa <TFT_English_pixel+0xfa>
	{ if(data & 0x01) pixel[x][y+8] = foreground;
	  else            pixel[x][y+8] = background;
	  data = data >> 1;
    95f6:	86 95       	lsr	r24
    95f8:	f3 cf       	rjmp	.-26     	; 0x95e0 <TFT_English_pixel+0xe0>
    95fa:	4f 5f       	subi	r20, 0xFF	; 255
    95fc:	5f 4f       	sbci	r21, 0xFF	; 255
    95fe:	2f 5f       	subi	r18, 0xFF	; 255
    9600:	3f 4f       	sbci	r19, 0xFF	; 255
    9602:	bf 01       	movw	r22, r30
    9604:	60 5e       	subi	r22, 0xE0	; 224
    9606:	7f 4f       	sbci	r23, 0xFF	; 255
	  else            pixel[x][y] = background;
	  data = data >> 1;
	}
    }

  for(x = 0; x < 8; x++)
    9608:	48 30       	cpi	r20, 0x08	; 8
    960a:	51 05       	cpc	r21, r1
    960c:	f1 f6       	brne	.-68     	; 0x95ca <TFT_English_pixel+0xca>
    960e:	a1 e0       	ldi	r26, 0x01	; 1
    9610:	8a 2e       	mov	r8, r26
    9612:	9a 2e       	mov	r9, r26
    9614:	8c 0e       	add	r8, r28
    9616:	9d 1e       	adc	r9, r29
    9618:	cc 24       	eor	r12, r12
    961a:	dd 24       	eor	r13, r13
	  else            pixel[x][y+8] = background;
	  data = data >> 1;
	}
    }

  for(y = 0; y < 16; y++)			// write character
    961c:	3e 01       	movw	r6, r28
    961e:	08 94       	sec
    9620:	61 1c       	adc	r6, r1
    9622:	71 1c       	adc	r7, r1
    9624:	1b c0       	rjmp	.+54     	; 0x965c <TFT_English_pixel+0x15c>
    for(x = 0; x < 8; x++)
      TFT_pixel(Xpixel + x, Ypixel + y, pixel[x][y]);
    9626:	f8 01       	movw	r30, r16
    9628:	40 81       	ld	r20, Z
    962a:	51 81       	ldd	r21, Z+1	; 0x01
    962c:	c7 01       	movw	r24, r14
    962e:	b5 01       	movw	r22, r10
    9630:	0e 94 52 2a 	call	0x54a4	; 0x54a4 <TFT_pixel>
    9634:	00 5e       	subi	r16, 0xE0	; 224
    9636:	1f 4f       	sbci	r17, 0xFF	; 255
    9638:	08 94       	sec
    963a:	e1 1c       	adc	r14, r1
    963c:	f1 1c       	adc	r15, r1
	  data = data >> 1;
	}
    }

  for(y = 0; y < 16; y++)			// write character
    for(x = 0; x < 8; x++)
    963e:	08 15       	cp	r16, r8
    9640:	19 05       	cpc	r17, r9
    9642:	89 f7       	brne	.-30     	; 0x9626 <TFT_English_pixel+0x126>
    9644:	08 94       	sec
    9646:	c1 1c       	adc	r12, r1
    9648:	d1 1c       	adc	r13, r1
    964a:	f2 e0       	ldi	r31, 0x02	; 2
    964c:	8f 2e       	mov	r8, r31
    964e:	91 2c       	mov	r9, r1
    9650:	80 0e       	add	r8, r16
    9652:	91 1e       	adc	r9, r17
	  else            pixel[x][y+8] = background;
	  data = data >> 1;
	}
    }

  for(y = 0; y < 16; y++)			// write character
    9654:	f0 e1       	ldi	r31, 0x10	; 16
    9656:	cf 16       	cp	r12, r31
    9658:	d1 04       	cpc	r13, r1
    965a:	51 f0       	breq	.+20     	; 0x9670 <TFT_English_pixel+0x170>
    965c:	86 01       	movw	r16, r12
    965e:	00 0f       	add	r16, r16
    9660:	11 1f       	adc	r17, r17
    9662:	06 0d       	add	r16, r6
    9664:	17 1d       	adc	r17, r7
    9666:	71 01       	movw	r14, r2
    for(x = 0; x < 8; x++)
      TFT_pixel(Xpixel + x, Ypixel + y, pixel[x][y]);
    9668:	56 01       	movw	r10, r12
    966a:	a4 0c       	add	r10, r4
    966c:	b5 1c       	adc	r11, r5
    966e:	db cf       	rjmp	.-74     	; 0x9626 <TFT_English_pixel+0x126>
}
    9670:	c0 50       	subi	r28, 0x00	; 0
    9672:	df 4f       	sbci	r29, 0xFF	; 255
    9674:	0f b6       	in	r0, 0x3f	; 63
    9676:	f8 94       	cli
    9678:	de bf       	out	0x3e, r29	; 62
    967a:	0f be       	out	0x3f, r0	; 63
    967c:	cd bf       	out	0x3d, r28	; 61
    967e:	cf 91       	pop	r28
    9680:	df 91       	pop	r29
    9682:	1f 91       	pop	r17
    9684:	0f 91       	pop	r16
    9686:	ff 90       	pop	r15
    9688:	ef 90       	pop	r14
    968a:	df 90       	pop	r13
    968c:	cf 90       	pop	r12
    968e:	bf 90       	pop	r11
    9690:	af 90       	pop	r10
    9692:	9f 90       	pop	r9
    9694:	8f 90       	pop	r8
    9696:	7f 90       	pop	r7
    9698:	6f 90       	pop	r6
    969a:	5f 90       	pop	r5
    969c:	4f 90       	pop	r4
    969e:	3f 90       	pop	r3
    96a0:	2f 90       	pop	r2
    96a2:	08 95       	ret

000096a4 <Test8>:

volatile unsigned char data_count, DAC_data[200];
volatile unsigned int period_count;

void Test8(void)				/* Test 8 */
{
    96a4:	0f 93       	push	r16
    96a6:	1f 93       	push	r17
  unsigned char i, x;
  float a;

  TFT_clear_screen();				// clear screen
    96a8:	0e 94 cf 28 	call	0x519e	; 0x519e <TFT_clear_screen>
  TFT_portrait();				// portrait mode
    96ac:	0e 94 a0 2a 	call	0x5540	; 0x5540 <TFT_portrait>

  Rectangle(0,0, 239,319, Green);		// display title
    96b0:	80 e0       	ldi	r24, 0x00	; 0
    96b2:	90 e0       	ldi	r25, 0x00	; 0
    96b4:	60 e0       	ldi	r22, 0x00	; 0
    96b6:	70 e0       	ldi	r23, 0x00	; 0
    96b8:	4f ee       	ldi	r20, 0xEF	; 239
    96ba:	50 e0       	ldi	r21, 0x00	; 0
    96bc:	2f e3       	ldi	r18, 0x3F	; 63
    96be:	31 e0       	ldi	r19, 0x01	; 1
    96c0:	00 ee       	ldi	r16, 0xE0	; 224
    96c2:	17 e0       	ldi	r17, 0x07	; 7
    96c4:	0e 94 14 33 	call	0x6628	; 0x6628 <Rectangle>
  Rectangle(1,1, 238,318, Green);
    96c8:	81 e0       	ldi	r24, 0x01	; 1
    96ca:	90 e0       	ldi	r25, 0x00	; 0
    96cc:	61 e0       	ldi	r22, 0x01	; 1
    96ce:	70 e0       	ldi	r23, 0x00	; 0
    96d0:	4e ee       	ldi	r20, 0xEE	; 238
    96d2:	50 e0       	ldi	r21, 0x00	; 0
    96d4:	2e e3       	ldi	r18, 0x3E	; 62
    96d6:	31 e0       	ldi	r19, 0x01	; 1
    96d8:	0e 94 14 33 	call	0x6628	; 0x6628 <Rectangle>
  Rectangle(2,2, 237,317, Green);
    96dc:	82 e0       	ldi	r24, 0x02	; 2
    96de:	90 e0       	ldi	r25, 0x00	; 0
    96e0:	62 e0       	ldi	r22, 0x02	; 2
    96e2:	70 e0       	ldi	r23, 0x00	; 0
    96e4:	4d ee       	ldi	r20, 0xED	; 237
    96e6:	50 e0       	ldi	r21, 0x00	; 0
    96e8:	2d e3       	ldi	r18, 0x3D	; 61
    96ea:	31 e0       	ldi	r19, 0x01	; 1
    96ec:	0e 94 14 33 	call	0x6628	; 0x6628 <Rectangle>
  TFT_string(2,10,Green,Magenta,"(8) D/A   ");
    96f0:	82 e0       	ldi	r24, 0x02	; 2
    96f2:	6a e0       	ldi	r22, 0x0A	; 10
    96f4:	40 ee       	ldi	r20, 0xE0	; 224
    96f6:	57 e0       	ldi	r21, 0x07	; 7
    96f8:	2f e1       	ldi	r18, 0x1F	; 31
    96fa:	38 ef       	ldi	r19, 0xF8	; 248
    96fc:	0f ec       	ldi	r16, 0xCF	; 207
    96fe:	19 e0       	ldi	r17, 0x09	; 9
    9700:	0e 94 28 2f 	call	0x5e50	; 0x5e50 <TFT_string>

  TFT_string(9,20,Cyan,  Black,"1 kHz ");
    9704:	89 e0       	ldi	r24, 0x09	; 9
    9706:	64 e1       	ldi	r22, 0x14	; 20
    9708:	4f ef       	ldi	r20, 0xFF	; 255
    970a:	57 e0       	ldi	r21, 0x07	; 7
    970c:	20 e0       	ldi	r18, 0x00	; 0
    970e:	30 e0       	ldi	r19, 0x00	; 0
    9710:	0a ee       	ldi	r16, 0xEA	; 234
    9712:	19 e0       	ldi	r17, 0x09	; 9
    9714:	0e 94 28 2f 	call	0x5e50	; 0x5e50 <TFT_string>
  TFT_string(3,24,Yellow,Black,"(J2 = OFF : -10 ~ +10V)");
    9718:	83 e0       	ldi	r24, 0x03	; 3
    971a:	68 e1       	ldi	r22, 0x18	; 24
    971c:	40 ee       	ldi	r20, 0xE0	; 224
    971e:	5f ef       	ldi	r21, 0xFF	; 255
    9720:	20 e0       	ldi	r18, 0x00	; 0
    9722:	30 e0       	ldi	r19, 0x00	; 0
    9724:	07 ef       	ldi	r16, 0xF7	; 247
    9726:	19 e0       	ldi	r17, 0x09	; 9
    9728:	0e 94 28 2f 	call	0x5e50	; 0x5e50 <TFT_string>
  TFT_string(3,27,Yellow,Black,"(J2 = ON  :   0 ~ +10V)");
    972c:	83 e0       	ldi	r24, 0x03	; 3
    972e:	6b e1       	ldi	r22, 0x1B	; 27
    9730:	40 ee       	ldi	r20, 0xE0	; 224
    9732:	5f ef       	ldi	r21, 0xFF	; 255
    9734:	20 e0       	ldi	r18, 0x00	; 0
    9736:	30 e0       	ldi	r19, 0x00	; 0
    9738:	0f e0       	ldi	r16, 0x0F	; 15
    973a:	1a e0       	ldi	r17, 0x0A	; 10
    973c:	0e 94 28 2f 	call	0x5e50	; 0x5e50 <TFT_string>
    9740:	00 e0       	ldi	r16, 0x00	; 0
    9742:	10 e0       	ldi	r17, 0x00	; 0

  a = 255./100.;				// calculate data of triangular wave
  for(x = 0; x <= 100; x++)
    DAC_data[x] = a * x;
    9744:	b8 01       	movw	r22, r16
    9746:	88 27       	eor	r24, r24
    9748:	77 fd       	sbrc	r23, 7
    974a:	80 95       	com	r24
    974c:	98 2f       	mov	r25, r24
    974e:	0e 94 55 5b 	call	0xb6aa	; 0xb6aa <__floatsisf>
    9752:	23 e3       	ldi	r18, 0x33	; 51
    9754:	33 e3       	ldi	r19, 0x33	; 51
    9756:	43 e2       	ldi	r20, 0x23	; 35
    9758:	50 e4       	ldi	r21, 0x40	; 64
    975a:	0e 94 1e 5c 	call	0xb83c	; 0xb83c <__mulsf3>
    975e:	0e 94 27 5b 	call	0xb64e	; 0xb64e <__fixunssfsi>
    9762:	f8 01       	movw	r30, r16
    9764:	e0 5a       	subi	r30, 0xA0	; 160
    9766:	f4 4f       	sbci	r31, 0xF4	; 244
    9768:	60 83       	st	Z, r22
    976a:	0f 5f       	subi	r16, 0xFF	; 255
    976c:	1f 4f       	sbci	r17, 0xFF	; 255
  TFT_string(9,20,Cyan,  Black,"1 kHz ");
  TFT_string(3,24,Yellow,Black,"(J2 = OFF : -10 ~ +10V)");
  TFT_string(3,27,Yellow,Black,"(J2 = ON  :   0 ~ +10V)");

  a = 255./100.;				// calculate data of triangular wave
  for(x = 0; x <= 100; x++)
    976e:	05 36       	cpi	r16, 0x65	; 101
    9770:	11 05       	cpc	r17, r1
    9772:	41 f7       	brne	.-48     	; 0x9744 <Test8+0xa0>
    9774:	23 e6       	ldi	r18, 0x63	; 99
    9776:	30 e0       	ldi	r19, 0x00	; 0
    9778:	48 ec       	ldi	r20, 0xC8	; 200
    977a:	50 e0       	ldi	r21, 0x00	; 0
    977c:	fa 01       	movw	r30, r20
    977e:	e2 1b       	sub	r30, r18
    9780:	f3 0b       	sbc	r31, r19
    DAC_data[x] = a * x;

  i = 1;
  for(x = 101; x < 200; x++)
    { DAC_data[x] = DAC_data[100-i];
    9782:	d9 01       	movw	r26, r18
    9784:	a0 5a       	subi	r26, 0xA0	; 160
    9786:	b4 4f       	sbci	r27, 0xF4	; 244
    9788:	8c 91       	ld	r24, X
    978a:	e0 5a       	subi	r30, 0xA0	; 160
    978c:	f4 4f       	sbci	r31, 0xF4	; 244
    978e:	80 83       	st	Z, r24
    9790:	21 50       	subi	r18, 0x01	; 1
    9792:	30 40       	sbci	r19, 0x00	; 0
  a = 255./100.;				// calculate data of triangular wave
  for(x = 0; x <= 100; x++)
    DAC_data[x] = a * x;

  i = 1;
  for(x = 101; x < 200; x++)
    9794:	22 23       	and	r18, r18
    9796:	91 f7       	brne	.-28     	; 0x977c <Test8+0xd8>
    { DAC_data[x] = DAC_data[100-i];
      i++;
    }

  Waveform_start();				// start waveform
    9798:	0e 94 92 41 	call	0x8324	; 0x8324 <Waveform_start>
  while(period_count < 5000);			// wait 5 sec
    979c:	80 91 53 0b 	lds	r24, 0x0B53
    97a0:	90 91 54 0b 	lds	r25, 0x0B54
    97a4:	88 58       	subi	r24, 0x88	; 136
    97a6:	93 41       	sbci	r25, 0x13	; 19
    97a8:	c8 f3       	brcs	.-14     	; 0x979c <Test8+0xf8>
  cli();
    97aa:	f8 94       	cli

  TFT_string(9,20,Cyan,  Black,"1 kHz ");
    97ac:	89 e0       	ldi	r24, 0x09	; 9
    97ae:	64 e1       	ldi	r22, 0x14	; 20
    97b0:	4f ef       	ldi	r20, 0xFF	; 255
    97b2:	57 e0       	ldi	r21, 0x07	; 7
    97b4:	20 e0       	ldi	r18, 0x00	; 0
    97b6:	30 e0       	ldi	r19, 0x00	; 0
    97b8:	07 e2       	ldi	r16, 0x27	; 39
    97ba:	1a e0       	ldi	r17, 0x0A	; 10
    97bc:	0e 94 28 2f 	call	0x5e50	; 0x5e50 <TFT_string>
  TFT_string(3,24,Yellow,Black,"(J2 = OFF : -10 ~ +10V)");
    97c0:	83 e0       	ldi	r24, 0x03	; 3
    97c2:	68 e1       	ldi	r22, 0x18	; 24
    97c4:	40 ee       	ldi	r20, 0xE0	; 224
    97c6:	5f ef       	ldi	r21, 0xFF	; 255
    97c8:	20 e0       	ldi	r18, 0x00	; 0
    97ca:	30 e0       	ldi	r19, 0x00	; 0
    97cc:	07 ef       	ldi	r16, 0xF7	; 247
    97ce:	19 e0       	ldi	r17, 0x09	; 9
    97d0:	0e 94 28 2f 	call	0x5e50	; 0x5e50 <TFT_string>
  TFT_string(3,27,Yellow,Black,"(J2 = ON  :   0 ~ +10V)");
    97d4:	83 e0       	ldi	r24, 0x03	; 3
    97d6:	6b e1       	ldi	r22, 0x1B	; 27
    97d8:	40 ee       	ldi	r20, 0xE0	; 224
    97da:	5f ef       	ldi	r21, 0xFF	; 255
    97dc:	20 e0       	ldi	r18, 0x00	; 0
    97de:	30 e0       	ldi	r19, 0x00	; 0
    97e0:	0f e0       	ldi	r16, 0x0F	; 15
    97e2:	1a e0       	ldi	r17, 0x0A	; 10
    97e4:	0e 94 28 2f 	call	0x5e50	; 0x5e50 <TFT_string>
  Beep();
    97e8:	0e 94 31 25 	call	0x4a62	; 0x4a62 <Beep>
    97ec:	00 e0       	ldi	r16, 0x00	; 0
    97ee:	10 e0       	ldi	r17, 0x00	; 0

  for(x = 0; x < 200; x++)			// calculate data of sinusoidal wave
    DAC_data[x] = 127. * sin(x * 1.8 * 3.141592 / 180.) + 128;
    97f0:	b8 01       	movw	r22, r16
    97f2:	88 27       	eor	r24, r24
    97f4:	77 fd       	sbrc	r23, 7
    97f6:	80 95       	com	r24
    97f8:	98 2f       	mov	r25, r24
    97fa:	0e 94 55 5b 	call	0xb6aa	; 0xb6aa <__floatsisf>
    97fe:	26 e6       	ldi	r18, 0x66	; 102
    9800:	36 e6       	ldi	r19, 0x66	; 102
    9802:	46 ee       	ldi	r20, 0xE6	; 230
    9804:	5f e3       	ldi	r21, 0x3F	; 63
    9806:	0e 94 1e 5c 	call	0xb83c	; 0xb83c <__mulsf3>
    980a:	28 ed       	ldi	r18, 0xD8	; 216
    980c:	3f e0       	ldi	r19, 0x0F	; 15
    980e:	49 e4       	ldi	r20, 0x49	; 73
    9810:	50 e4       	ldi	r21, 0x40	; 64
    9812:	0e 94 1e 5c 	call	0xb83c	; 0xb83c <__mulsf3>
    9816:	20 e0       	ldi	r18, 0x00	; 0
    9818:	30 e0       	ldi	r19, 0x00	; 0
    981a:	44 e3       	ldi	r20, 0x34	; 52
    981c:	53 e4       	ldi	r21, 0x43	; 67
    981e:	0e 94 ba 5a 	call	0xb574	; 0xb574 <__divsf3>
    9822:	0e 94 81 5c 	call	0xb902	; 0xb902 <sin>
    9826:	20 e0       	ldi	r18, 0x00	; 0
    9828:	30 e0       	ldi	r19, 0x00	; 0
    982a:	4e ef       	ldi	r20, 0xFE	; 254
    982c:	52 e4       	ldi	r21, 0x42	; 66
    982e:	0e 94 1e 5c 	call	0xb83c	; 0xb83c <__mulsf3>
    9832:	20 e0       	ldi	r18, 0x00	; 0
    9834:	30 e0       	ldi	r19, 0x00	; 0
    9836:	40 e0       	ldi	r20, 0x00	; 0
    9838:	53 e4       	ldi	r21, 0x43	; 67
    983a:	0e 94 53 5a 	call	0xb4a6	; 0xb4a6 <__addsf3>
    983e:	0e 94 27 5b 	call	0xb64e	; 0xb64e <__fixunssfsi>
    9842:	f8 01       	movw	r30, r16
    9844:	e0 5a       	subi	r30, 0xA0	; 160
    9846:	f4 4f       	sbci	r31, 0xF4	; 244
    9848:	60 83       	st	Z, r22
    984a:	0f 5f       	subi	r16, 0xFF	; 255
    984c:	1f 4f       	sbci	r17, 0xFF	; 255
  TFT_string(9,20,Cyan,  Black,"1 kHz ");
  TFT_string(3,24,Yellow,Black,"(J2 = OFF : -10 ~ +10V)");
  TFT_string(3,27,Yellow,Black,"(J2 = ON  :   0 ~ +10V)");
  Beep();

  for(x = 0; x < 200; x++)			// calculate data of sinusoidal wave
    984e:	08 3c       	cpi	r16, 0xC8	; 200
    9850:	11 05       	cpc	r17, r1
    9852:	71 f6       	brne	.-100    	; 0x97f0 <Test8+0x14c>
    DAC_data[x] = 127. * sin(x * 1.8 * 3.141592 / 180.) + 128;

  Waveform_start();				// start waveform
    9854:	0e 94 92 41 	call	0x8324	; 0x8324 <Waveform_start>
  while(period_count < 5000);			// wait 5 sec
    9858:	80 91 53 0b 	lds	r24, 0x0B53
    985c:	90 91 54 0b 	lds	r25, 0x0B54
    9860:	88 58       	subi	r24, 0x88	; 136
    9862:	93 41       	sbci	r25, 0x13	; 19
    9864:	c8 f3       	brcs	.-14     	; 0x9858 <Test8+0x1b4>
  cli();
    9866:	f8 94       	cli
}
    9868:	1f 91       	pop	r17
    986a:	0f 91       	pop	r16
    986c:	08 95       	ret

0000986e <Sine>:
      TFT_pixel(x, y, color);
    }
}

void Sine(S16 peak, U08 mode, U16 color)	/* draw a sine curve */
{
    986e:	6f 92       	push	r6
    9870:	7f 92       	push	r7
    9872:	8f 92       	push	r8
    9874:	9f 92       	push	r9
    9876:	af 92       	push	r10
    9878:	bf 92       	push	r11
    987a:	cf 92       	push	r12
    987c:	df 92       	push	r13
    987e:	ef 92       	push	r14
    9880:	ff 92       	push	r15
    9882:	0f 93       	push	r16
    9884:	1f 93       	push	r17
    9886:	cf 93       	push	r28
    9888:	df 93       	push	r29
    988a:	4a 01       	movw	r8, r20
  int x, y;

  if(mode == 0)
    988c:	66 23       	and	r22, r22
    988e:	09 f0       	breq	.+2      	; 0x9892 <Sine+0x24>
    9890:	46 c0       	rjmp	.+140    	; 0x991e <Sine+0xb0>
    9892:	c0 e0       	ldi	r28, 0x00	; 0
    9894:	d0 e0       	ldi	r29, 0x00	; 0
    for(y = 0; y <= 319; y++)
      { x = 120 - (int)(sin((float)y * 1.6875 * M_PI / 180.) * peak + 0.5);
        TFT_pixel(x, y, color);
    9896:	5c 01       	movw	r10, r24
    9898:	cc 24       	eor	r12, r12
    989a:	b7 fc       	sbrc	r11, 7
    989c:	c0 94       	com	r12
    989e:	dc 2c       	mov	r13, r12
    98a0:	78 e7       	ldi	r23, 0x78	; 120
    98a2:	67 2e       	mov	r6, r23
    98a4:	71 2c       	mov	r7, r1
{
  int x, y;

  if(mode == 0)
    for(y = 0; y <= 319; y++)
      { x = 120 - (int)(sin((float)y * 1.6875 * M_PI / 180.) * peak + 0.5);
    98a6:	be 01       	movw	r22, r28
    98a8:	88 27       	eor	r24, r24
    98aa:	77 fd       	sbrc	r23, 7
    98ac:	80 95       	com	r24
    98ae:	98 2f       	mov	r25, r24
    98b0:	0e 94 55 5b 	call	0xb6aa	; 0xb6aa <__floatsisf>
    98b4:	20 e0       	ldi	r18, 0x00	; 0
    98b6:	30 e0       	ldi	r19, 0x00	; 0
    98b8:	48 ed       	ldi	r20, 0xD8	; 216
    98ba:	5f e3       	ldi	r21, 0x3F	; 63
    98bc:	0e 94 1e 5c 	call	0xb83c	; 0xb83c <__mulsf3>
    98c0:	2b ed       	ldi	r18, 0xDB	; 219
    98c2:	3f e0       	ldi	r19, 0x0F	; 15
    98c4:	49 e4       	ldi	r20, 0x49	; 73
    98c6:	50 e4       	ldi	r21, 0x40	; 64
    98c8:	0e 94 1e 5c 	call	0xb83c	; 0xb83c <__mulsf3>
    98cc:	20 e0       	ldi	r18, 0x00	; 0
    98ce:	30 e0       	ldi	r19, 0x00	; 0
    98d0:	44 e3       	ldi	r20, 0x34	; 52
    98d2:	53 e4       	ldi	r21, 0x43	; 67
    98d4:	0e 94 ba 5a 	call	0xb574	; 0xb574 <__divsf3>
    98d8:	0e 94 81 5c 	call	0xb902	; 0xb902 <sin>
    98dc:	7b 01       	movw	r14, r22
    98de:	8c 01       	movw	r16, r24
        TFT_pixel(x, y, color);
    98e0:	c6 01       	movw	r24, r12
    98e2:	b5 01       	movw	r22, r10
    98e4:	0e 94 55 5b 	call	0xb6aa	; 0xb6aa <__floatsisf>
    98e8:	9b 01       	movw	r18, r22
    98ea:	ac 01       	movw	r20, r24
    98ec:	c8 01       	movw	r24, r16
    98ee:	b7 01       	movw	r22, r14
    98f0:	0e 94 1e 5c 	call	0xb83c	; 0xb83c <__mulsf3>
    98f4:	20 e0       	ldi	r18, 0x00	; 0
    98f6:	30 e0       	ldi	r19, 0x00	; 0
    98f8:	40 e0       	ldi	r20, 0x00	; 0
    98fa:	5f e3       	ldi	r21, 0x3F	; 63
    98fc:	0e 94 53 5a 	call	0xb4a6	; 0xb4a6 <__addsf3>
    9900:	0e 94 22 5b 	call	0xb644	; 0xb644 <__fixsfsi>
    9904:	c3 01       	movw	r24, r6
    9906:	86 1b       	sub	r24, r22
    9908:	97 0b       	sbc	r25, r23
    990a:	be 01       	movw	r22, r28
    990c:	a4 01       	movw	r20, r8
    990e:	0e 94 52 2a 	call	0x54a4	; 0x54a4 <TFT_pixel>
void Sine(S16 peak, U08 mode, U16 color)	/* draw a sine curve */
{
  int x, y;

  if(mode == 0)
    for(y = 0; y <= 319; y++)
    9912:	21 96       	adiw	r28, 0x01	; 1
    9914:	81 e0       	ldi	r24, 0x01	; 1
    9916:	c0 34       	cpi	r28, 0x40	; 64
    9918:	d8 07       	cpc	r29, r24
    991a:	29 f6       	brne	.-118    	; 0x98a6 <Sine+0x38>
    991c:	43 c0       	rjmp	.+134    	; 0x99a4 <Sine+0x136>
    991e:	c0 e0       	ldi	r28, 0x00	; 0
    9920:	d0 e0       	ldi	r29, 0x00	; 0
        TFT_pixel(x, y, color);
      }
  else
    for(y = 0; y <= 319; y++)
      { x = 120 + (int)(sin((float)y * 1.6875 * M_PI / 180.) * peak + 0.5);
        TFT_pixel(x, y, color);
    9922:	5c 01       	movw	r10, r24
    9924:	cc 24       	eor	r12, r12
    9926:	b7 fc       	sbrc	r11, 7
    9928:	c0 94       	com	r12
    992a:	dc 2c       	mov	r13, r12
      { x = 120 - (int)(sin((float)y * 1.6875 * M_PI / 180.) * peak + 0.5);
        TFT_pixel(x, y, color);
      }
  else
    for(y = 0; y <= 319; y++)
      { x = 120 + (int)(sin((float)y * 1.6875 * M_PI / 180.) * peak + 0.5);
    992c:	be 01       	movw	r22, r28
    992e:	88 27       	eor	r24, r24
    9930:	77 fd       	sbrc	r23, 7
    9932:	80 95       	com	r24
    9934:	98 2f       	mov	r25, r24
    9936:	0e 94 55 5b 	call	0xb6aa	; 0xb6aa <__floatsisf>
    993a:	20 e0       	ldi	r18, 0x00	; 0
    993c:	30 e0       	ldi	r19, 0x00	; 0
    993e:	48 ed       	ldi	r20, 0xD8	; 216
    9940:	5f e3       	ldi	r21, 0x3F	; 63
    9942:	0e 94 1e 5c 	call	0xb83c	; 0xb83c <__mulsf3>
    9946:	2b ed       	ldi	r18, 0xDB	; 219
    9948:	3f e0       	ldi	r19, 0x0F	; 15
    994a:	49 e4       	ldi	r20, 0x49	; 73
    994c:	50 e4       	ldi	r21, 0x40	; 64
    994e:	0e 94 1e 5c 	call	0xb83c	; 0xb83c <__mulsf3>
    9952:	20 e0       	ldi	r18, 0x00	; 0
    9954:	30 e0       	ldi	r19, 0x00	; 0
    9956:	44 e3       	ldi	r20, 0x34	; 52
    9958:	53 e4       	ldi	r21, 0x43	; 67
    995a:	0e 94 ba 5a 	call	0xb574	; 0xb574 <__divsf3>
    995e:	0e 94 81 5c 	call	0xb902	; 0xb902 <sin>
    9962:	7b 01       	movw	r14, r22
    9964:	8c 01       	movw	r16, r24
        TFT_pixel(x, y, color);
    9966:	c6 01       	movw	r24, r12
    9968:	b5 01       	movw	r22, r10
    996a:	0e 94 55 5b 	call	0xb6aa	; 0xb6aa <__floatsisf>
    996e:	9b 01       	movw	r18, r22
    9970:	ac 01       	movw	r20, r24
    9972:	c8 01       	movw	r24, r16
    9974:	b7 01       	movw	r22, r14
    9976:	0e 94 1e 5c 	call	0xb83c	; 0xb83c <__mulsf3>
    997a:	20 e0       	ldi	r18, 0x00	; 0
    997c:	30 e0       	ldi	r19, 0x00	; 0
    997e:	40 e0       	ldi	r20, 0x00	; 0
    9980:	5f e3       	ldi	r21, 0x3F	; 63
    9982:	0e 94 53 5a 	call	0xb4a6	; 0xb4a6 <__addsf3>
    9986:	0e 94 22 5b 	call	0xb644	; 0xb644 <__fixsfsi>
    998a:	dc 01       	movw	r26, r24
    998c:	cb 01       	movw	r24, r22
    998e:	88 58       	subi	r24, 0x88	; 136
    9990:	9f 4f       	sbci	r25, 0xFF	; 255
    9992:	be 01       	movw	r22, r28
    9994:	a4 01       	movw	r20, r8
    9996:	0e 94 52 2a 	call	0x54a4	; 0x54a4 <TFT_pixel>
    for(y = 0; y <= 319; y++)
      { x = 120 - (int)(sin((float)y * 1.6875 * M_PI / 180.) * peak + 0.5);
        TFT_pixel(x, y, color);
      }
  else
    for(y = 0; y <= 319; y++)
    999a:	21 96       	adiw	r28, 0x01	; 1
    999c:	81 e0       	ldi	r24, 0x01	; 1
    999e:	c0 34       	cpi	r28, 0x40	; 64
    99a0:	d8 07       	cpc	r29, r24
    99a2:	21 f6       	brne	.-120    	; 0x992c <Sine+0xbe>
      { x = 120 + (int)(sin((float)y * 1.6875 * M_PI / 180.) * peak + 0.5);
        TFT_pixel(x, y, color);
      }
}
    99a4:	df 91       	pop	r29
    99a6:	cf 91       	pop	r28
    99a8:	1f 91       	pop	r17
    99aa:	0f 91       	pop	r16
    99ac:	ff 90       	pop	r15
    99ae:	ef 90       	pop	r14
    99b0:	df 90       	pop	r13
    99b2:	cf 90       	pop	r12
    99b4:	bf 90       	pop	r11
    99b6:	af 90       	pop	r10
    99b8:	9f 90       	pop	r9
    99ba:	8f 90       	pop	r8
    99bc:	7f 90       	pop	r7
    99be:	6f 90       	pop	r6
    99c0:	08 95       	ret

000099c2 <Circle>:
         Line(x1+1,i, x2-1,i, fill);
    }
}

void Circle(S16 x1,S16 y1, S16 r, U16 color)	/* draw a circle */
{
    99c2:	2f 92       	push	r2
    99c4:	3f 92       	push	r3
    99c6:	4f 92       	push	r4
    99c8:	5f 92       	push	r5
    99ca:	6f 92       	push	r6
    99cc:	7f 92       	push	r7
    99ce:	8f 92       	push	r8
    99d0:	9f 92       	push	r9
    99d2:	af 92       	push	r10
    99d4:	bf 92       	push	r11
    99d6:	cf 92       	push	r12
    99d8:	df 92       	push	r13
    99da:	ef 92       	push	r14
    99dc:	ff 92       	push	r15
    99de:	0f 93       	push	r16
    99e0:	1f 93       	push	r17
    99e2:	df 93       	push	r29
    99e4:	cf 93       	push	r28
    99e6:	cd b7       	in	r28, 0x3d	; 61
    99e8:	de b7       	in	r29, 0x3e	; 62
    99ea:	60 97       	sbiw	r28, 0x10	; 16
    99ec:	0f b6       	in	r0, 0x3f	; 63
    99ee:	f8 94       	cli
    99f0:	de bf       	out	0x3e, r29	; 62
    99f2:	0f be       	out	0x3f, r0	; 63
    99f4:	cd bf       	out	0x3d, r28	; 61
    99f6:	3c 01       	movw	r6, r24
    99f8:	2b 01       	movw	r4, r22
    99fa:	7a 01       	movw	r14, r20
    99fc:	19 01       	movw	r2, r18
  int x, y;
  float s;

  for(y = y1 - r*3/4; y <= y1 + r*3/4; y++)	// draw with y variable
    99fe:	9a 01       	movw	r18, r20
    9a00:	22 0f       	add	r18, r18
    9a02:	33 1f       	adc	r19, r19
    9a04:	24 0f       	add	r18, r20
    9a06:	35 1f       	adc	r19, r21
    9a08:	c9 01       	movw	r24, r18
    9a0a:	64 e0       	ldi	r22, 0x04	; 4
    9a0c:	70 e0       	ldi	r23, 0x00	; 0
    9a0e:	0e 94 27 61 	call	0xc24e	; 0xc24e <__divmodhi4>
    9a12:	44 27       	eor	r20, r20
    9a14:	55 27       	eor	r21, r21
    9a16:	46 1b       	sub	r20, r22
    9a18:	57 0b       	sbc	r21, r23
    9a1a:	58 87       	std	Y+8, r21	; 0x08
    9a1c:	4f 83       	std	Y+7, r20	; 0x07
    9a1e:	c9 01       	movw	r24, r18
    9a20:	64 e0       	ldi	r22, 0x04	; 4
    9a22:	70 e0       	ldi	r23, 0x00	; 0
    9a24:	0e 94 27 61 	call	0xc24e	; 0xc24e <__divmodhi4>
    9a28:	4b 01       	movw	r8, r22
    9a2a:	cb 01       	movw	r24, r22
    9a2c:	84 0d       	add	r24, r4
    9a2e:	95 1d       	adc	r25, r5
    9a30:	9a 83       	std	Y+2, r25	; 0x02
    9a32:	89 83       	std	Y+1, r24	; 0x01
    { s = sqrt((long)r*(long)r - (long)(y-y1)*(long)(y-y1)) + 0.5;
    9a34:	00 27       	eor	r16, r16
    9a36:	f7 fc       	sbrc	r15, 7
    9a38:	00 95       	com	r16
    9a3a:	10 2f       	mov	r17, r16
    9a3c:	c8 01       	movw	r24, r16
    9a3e:	b7 01       	movw	r22, r14
    9a40:	a8 01       	movw	r20, r16
    9a42:	97 01       	movw	r18, r14
    9a44:	0e 94 e8 60 	call	0xc1d0	; 0xc1d0 <__mulsi3>
    9a48:	6b 83       	std	Y+3, r22	; 0x03
    9a4a:	7c 83       	std	Y+4, r23	; 0x04
    9a4c:	8d 83       	std	Y+5, r24	; 0x05
    9a4e:	9e 83       	std	Y+6, r25	; 0x06
    9a50:	ef 81       	ldd	r30, Y+7	; 0x07
    9a52:	f8 85       	ldd	r31, Y+8	; 0x08
    9a54:	e4 0d       	add	r30, r4
    9a56:	f5 1d       	adc	r31, r5
    9a58:	f8 8b       	std	Y+16, r31	; 0x10
    9a5a:	ef 87       	std	Y+15, r30	; 0x0f
    9a5c:	aa 24       	eor	r10, r10
    9a5e:	bb 24       	eor	r11, r11
    9a60:	65 01       	movw	r12, r10
void Circle(S16 x1,S16 y1, S16 r, U16 color)	/* draw a circle */
{
  int x, y;
  float s;

  for(y = y1 - r*3/4; y <= y1 + r*3/4; y++)	// draw with y variable
    9a62:	cf 01       	movw	r24, r30
    9a64:	84 19       	sub	r24, r4
    9a66:	95 09       	sbc	r25, r5
    9a68:	9c 01       	movw	r18, r24
    9a6a:	44 27       	eor	r20, r20
    9a6c:	37 fd       	sbrc	r19, 7
    9a6e:	40 95       	com	r20
    9a70:	54 2f       	mov	r21, r20
    9a72:	2b 87       	std	Y+11, r18	; 0x0b
    9a74:	3c 87       	std	Y+12, r19	; 0x0c
    9a76:	4d 87       	std	Y+13, r20	; 0x0d
    9a78:	5e 87       	std	Y+14, r21	; 0x0e
    9a7a:	3f c0       	rjmp	.+126    	; 0x9afa <Circle+0x138>
    9a7c:	2b 85       	ldd	r18, Y+11	; 0x0b
    9a7e:	3c 85       	ldd	r19, Y+12	; 0x0c
    9a80:	4d 85       	ldd	r20, Y+13	; 0x0d
    9a82:	5e 85       	ldd	r21, Y+14	; 0x0e
    9a84:	2a 0d       	add	r18, r10
    9a86:	3b 1d       	adc	r19, r11
    9a88:	4c 1d       	adc	r20, r12
    9a8a:	5d 1d       	adc	r21, r13
    { s = sqrt((long)r*(long)r - (long)(y-y1)*(long)(y-y1)) + 0.5;
    9a8c:	ca 01       	movw	r24, r20
    9a8e:	b9 01       	movw	r22, r18
    9a90:	0e 94 e8 60 	call	0xc1d0	; 0xc1d0 <__mulsi3>
    9a94:	2b 81       	ldd	r18, Y+3	; 0x03
    9a96:	3c 81       	ldd	r19, Y+4	; 0x04
    9a98:	4d 81       	ldd	r20, Y+5	; 0x05
    9a9a:	5e 81       	ldd	r21, Y+6	; 0x06
    9a9c:	26 1b       	sub	r18, r22
    9a9e:	37 0b       	sbc	r19, r23
    9aa0:	48 0b       	sbc	r20, r24
    9aa2:	59 0b       	sbc	r21, r25
    9aa4:	ca 01       	movw	r24, r20
    9aa6:	b9 01       	movw	r22, r18
    9aa8:	0e 94 55 5b 	call	0xb6aa	; 0xb6aa <__floatsisf>
    9aac:	0e 94 8b 5c 	call	0xb916	; 0xb916 <sqrt>
      x = x1 + (int)s;
    9ab0:	20 e0       	ldi	r18, 0x00	; 0
    9ab2:	30 e0       	ldi	r19, 0x00	; 0
    9ab4:	40 e0       	ldi	r20, 0x00	; 0
    9ab6:	5f e3       	ldi	r21, 0x3F	; 63
    9ab8:	0e 94 53 5a 	call	0xb4a6	; 0xb4a6 <__addsf3>
    9abc:	0e 94 22 5b 	call	0xb644	; 0xb644 <__fixsfsi>
    9ac0:	7b 01       	movw	r14, r22
    9ac2:	8c 01       	movw	r16, r24
      TFT_pixel(x, y, color);
    9ac4:	c3 01       	movw	r24, r6
    9ac6:	8e 0d       	add	r24, r14
    9ac8:	9f 1d       	adc	r25, r15
    9aca:	6f 85       	ldd	r22, Y+15	; 0x0f
    9acc:	78 89       	ldd	r23, Y+16	; 0x10
    9ace:	a1 01       	movw	r20, r2
    9ad0:	0e 94 52 2a 	call	0x54a4	; 0x54a4 <TFT_pixel>
      x = x1 - (int)s;
      TFT_pixel(x, y, color);
    9ad4:	c3 01       	movw	r24, r6
    9ad6:	8e 19       	sub	r24, r14
    9ad8:	9f 09       	sbc	r25, r15
    9ada:	6f 85       	ldd	r22, Y+15	; 0x0f
    9adc:	78 89       	ldd	r23, Y+16	; 0x10
    9ade:	a1 01       	movw	r20, r2
    9ae0:	0e 94 52 2a 	call	0x54a4	; 0x54a4 <TFT_pixel>
void Circle(S16 x1,S16 y1, S16 r, U16 color)	/* draw a circle */
{
  int x, y;
  float s;

  for(y = y1 - r*3/4; y <= y1 + r*3/4; y++)	// draw with y variable
    9ae4:	4f 85       	ldd	r20, Y+15	; 0x0f
    9ae6:	58 89       	ldd	r21, Y+16	; 0x10
    9ae8:	4f 5f       	subi	r20, 0xFF	; 255
    9aea:	5f 4f       	sbci	r21, 0xFF	; 255
    9aec:	58 8b       	std	Y+16, r21	; 0x10
    9aee:	4f 87       	std	Y+15, r20	; 0x0f
    9af0:	08 94       	sec
    9af2:	a1 1c       	adc	r10, r1
    9af4:	b1 1c       	adc	r11, r1
    9af6:	c1 1c       	adc	r12, r1
    9af8:	d1 1c       	adc	r13, r1
    9afa:	8f 85       	ldd	r24, Y+15	; 0x0f
    9afc:	98 89       	ldd	r25, Y+16	; 0x10
    9afe:	e9 81       	ldd	r30, Y+1	; 0x01
    9b00:	fa 81       	ldd	r31, Y+2	; 0x02
    9b02:	e8 17       	cp	r30, r24
    9b04:	f9 07       	cpc	r31, r25
    9b06:	0c f0       	brlt	.+2      	; 0x9b0a <Circle+0x148>
    9b08:	b9 cf       	rjmp	.-142    	; 0x9a7c <Circle+0xba>
      TFT_pixel(x, y, color);
      x = x1 - (int)s;
      TFT_pixel(x, y, color);
    }

  for(x = x1 - r*3/4; x <= x1 + r*3/4; x++)	// draw with x variable
    9b0a:	2f 81       	ldd	r18, Y+7	; 0x07
    9b0c:	38 85       	ldd	r19, Y+8	; 0x08
    9b0e:	26 0d       	add	r18, r6
    9b10:	37 1d       	adc	r19, r7
    9b12:	38 8b       	std	Y+16, r19	; 0x10
    9b14:	2f 87       	std	Y+15, r18	; 0x0f
    9b16:	aa 24       	eor	r10, r10
    9b18:	bb 24       	eor	r11, r11
    9b1a:	65 01       	movw	r12, r10
    9b1c:	a4 01       	movw	r20, r8
    9b1e:	46 0d       	add	r20, r6
    9b20:	57 1d       	adc	r21, r7
    9b22:	5a 87       	std	Y+10, r21	; 0x0a
    9b24:	49 87       	std	Y+9, r20	; 0x09
    9b26:	c9 01       	movw	r24, r18
    9b28:	86 19       	sub	r24, r6
    9b2a:	97 09       	sbc	r25, r7
    9b2c:	3c 01       	movw	r6, r24
    9b2e:	88 24       	eor	r8, r8
    9b30:	77 fc       	sbrc	r7, 7
    9b32:	80 94       	com	r8
    9b34:	98 2c       	mov	r9, r8
    9b36:	3d c0       	rjmp	.+122    	; 0x9bb2 <Circle+0x1f0>
    9b38:	a6 01       	movw	r20, r12
    9b3a:	95 01       	movw	r18, r10
    9b3c:	26 0d       	add	r18, r6
    9b3e:	37 1d       	adc	r19, r7
    9b40:	48 1d       	adc	r20, r8
    9b42:	59 1d       	adc	r21, r9
    { s = sqrt((long)r*(long)r - (long)(x-x1)*(long)(x-x1)) + 0.5;
    9b44:	ca 01       	movw	r24, r20
    9b46:	b9 01       	movw	r22, r18
    9b48:	0e 94 e8 60 	call	0xc1d0	; 0xc1d0 <__mulsi3>
    9b4c:	2b 81       	ldd	r18, Y+3	; 0x03
    9b4e:	3c 81       	ldd	r19, Y+4	; 0x04
    9b50:	4d 81       	ldd	r20, Y+5	; 0x05
    9b52:	5e 81       	ldd	r21, Y+6	; 0x06
    9b54:	26 1b       	sub	r18, r22
    9b56:	37 0b       	sbc	r19, r23
    9b58:	48 0b       	sbc	r20, r24
    9b5a:	59 0b       	sbc	r21, r25
    9b5c:	ca 01       	movw	r24, r20
    9b5e:	b9 01       	movw	r22, r18
    9b60:	0e 94 55 5b 	call	0xb6aa	; 0xb6aa <__floatsisf>
    9b64:	0e 94 8b 5c 	call	0xb916	; 0xb916 <sqrt>
      y = y1 + (int)s;
    9b68:	20 e0       	ldi	r18, 0x00	; 0
    9b6a:	30 e0       	ldi	r19, 0x00	; 0
    9b6c:	40 e0       	ldi	r20, 0x00	; 0
    9b6e:	5f e3       	ldi	r21, 0x3F	; 63
    9b70:	0e 94 53 5a 	call	0xb4a6	; 0xb4a6 <__addsf3>
    9b74:	0e 94 22 5b 	call	0xb644	; 0xb644 <__fixsfsi>
    9b78:	7b 01       	movw	r14, r22
    9b7a:	8c 01       	movw	r16, r24
      TFT_pixel(x, y, color);
    9b7c:	b2 01       	movw	r22, r4
    9b7e:	6e 0d       	add	r22, r14
    9b80:	7f 1d       	adc	r23, r15
    9b82:	8f 85       	ldd	r24, Y+15	; 0x0f
    9b84:	98 89       	ldd	r25, Y+16	; 0x10
    9b86:	a1 01       	movw	r20, r2
    9b88:	0e 94 52 2a 	call	0x54a4	; 0x54a4 <TFT_pixel>
      y = y1 - (int)s;
      TFT_pixel(x, y, color);
    9b8c:	b2 01       	movw	r22, r4
    9b8e:	6e 19       	sub	r22, r14
    9b90:	7f 09       	sbc	r23, r15
    9b92:	8f 85       	ldd	r24, Y+15	; 0x0f
    9b94:	98 89       	ldd	r25, Y+16	; 0x10
    9b96:	a1 01       	movw	r20, r2
    9b98:	0e 94 52 2a 	call	0x54a4	; 0x54a4 <TFT_pixel>
      TFT_pixel(x, y, color);
      x = x1 - (int)s;
      TFT_pixel(x, y, color);
    }

  for(x = x1 - r*3/4; x <= x1 + r*3/4; x++)	// draw with x variable
    9b9c:	4f 85       	ldd	r20, Y+15	; 0x0f
    9b9e:	58 89       	ldd	r21, Y+16	; 0x10
    9ba0:	4f 5f       	subi	r20, 0xFF	; 255
    9ba2:	5f 4f       	sbci	r21, 0xFF	; 255
    9ba4:	58 8b       	std	Y+16, r21	; 0x10
    9ba6:	4f 87       	std	Y+15, r20	; 0x0f
    9ba8:	08 94       	sec
    9baa:	a1 1c       	adc	r10, r1
    9bac:	b1 1c       	adc	r11, r1
    9bae:	c1 1c       	adc	r12, r1
    9bb0:	d1 1c       	adc	r13, r1
    9bb2:	8f 85       	ldd	r24, Y+15	; 0x0f
    9bb4:	98 89       	ldd	r25, Y+16	; 0x10
    9bb6:	e9 85       	ldd	r30, Y+9	; 0x09
    9bb8:	fa 85       	ldd	r31, Y+10	; 0x0a
    9bba:	e8 17       	cp	r30, r24
    9bbc:	f9 07       	cpc	r31, r25
    9bbe:	0c f0       	brlt	.+2      	; 0x9bc2 <Circle+0x200>
    9bc0:	bb cf       	rjmp	.-138    	; 0x9b38 <Circle+0x176>
      y = y1 + (int)s;
      TFT_pixel(x, y, color);
      y = y1 - (int)s;
      TFT_pixel(x, y, color);
    }
}
    9bc2:	60 96       	adiw	r28, 0x10	; 16
    9bc4:	0f b6       	in	r0, 0x3f	; 63
    9bc6:	f8 94       	cli
    9bc8:	de bf       	out	0x3e, r29	; 62
    9bca:	0f be       	out	0x3f, r0	; 63
    9bcc:	cd bf       	out	0x3d, r28	; 61
    9bce:	cf 91       	pop	r28
    9bd0:	df 91       	pop	r29
    9bd2:	1f 91       	pop	r17
    9bd4:	0f 91       	pop	r16
    9bd6:	ff 90       	pop	r15
    9bd8:	ef 90       	pop	r14
    9bda:	df 90       	pop	r13
    9bdc:	cf 90       	pop	r12
    9bde:	bf 90       	pop	r11
    9be0:	af 90       	pop	r10
    9be2:	9f 90       	pop	r9
    9be4:	8f 90       	pop	r8
    9be6:	7f 90       	pop	r7
    9be8:	6f 90       	pop	r6
    9bea:	5f 90       	pop	r5
    9bec:	4f 90       	pop	r4
    9bee:	3f 90       	pop	r3
    9bf0:	2f 90       	pop	r2
    9bf2:	08 95       	ret

00009bf4 <Draw_pin>:
signed int Xend_minute_old, Yend_minute_old;
signed int Xstart_second_old, Ystart_second_old, Xend_second_old, Yend_second_old;
signed int Xcircle_second_old, Ycircle_second_old;

void Draw_pin(void)				/* draw hour, minute, second pin */
{
    9bf4:	2f 92       	push	r2
    9bf6:	3f 92       	push	r3
    9bf8:	4f 92       	push	r4
    9bfa:	5f 92       	push	r5
    9bfc:	6f 92       	push	r6
    9bfe:	7f 92       	push	r7
    9c00:	8f 92       	push	r8
    9c02:	9f 92       	push	r9
    9c04:	af 92       	push	r10
    9c06:	bf 92       	push	r11
    9c08:	cf 92       	push	r12
    9c0a:	df 92       	push	r13
    9c0c:	ef 92       	push	r14
    9c0e:	ff 92       	push	r15
    9c10:	0f 93       	push	r16
    9c12:	1f 93       	push	r17
    9c14:	df 93       	push	r29
    9c16:	cf 93       	push	r28
    9c18:	cd b7       	in	r28, 0x3d	; 61
    9c1a:	de b7       	in	r29, 0x3e	; 62
    9c1c:	6c 97       	sbiw	r28, 0x1c	; 28
    9c1e:	0f b6       	in	r0, 0x3f	; 63
    9c20:	f8 94       	cli
    9c22:	de bf       	out	0x3e, r29	; 62
    9c24:	0f be       	out	0x3f, r0	; 63
    9c26:	cd bf       	out	0x3d, r28	; 61

  unsigned int pin_second, length_second = 100, center_second = 80 ;
  signed int Xstart_second, Ystart_second, Xend_second, Yend_second;
  signed int Xcircle_second, Ycircle_second;

  pin_hour = ((hour & 0x10) >> 4)*10 + (hour & 0x0F);	// convert hour to binary
    9c28:	40 91 33 0c 	lds	r20, 0x0C33
    9c2c:	50 e0       	ldi	r21, 0x00	; 0
  pin_minute = (minute >> 4)*10 + (minute & 0x0F);	// convert minute to binary
    9c2e:	80 91 2c 0c 	lds	r24, 0x0C2C
    9c32:	88 2e       	mov	r8, r24
    9c34:	82 94       	swap	r8
    9c36:	af e0       	ldi	r26, 0x0F	; 15
    9c38:	8a 22       	and	r8, r26
    9c3a:	9a e0       	ldi	r25, 0x0A	; 10
    9c3c:	89 9e       	mul	r8, r25
    9c3e:	40 01       	movw	r8, r0
    9c40:	11 24       	eor	r1, r1
    9c42:	8f 70       	andi	r24, 0x0F	; 15
    9c44:	88 0e       	add	r8, r24
    9c46:	91 1c       	adc	r9, r1
  pin_second = (second >> 4)*10 + (second & 0x0F);	// convert second to binary
    9c48:	80 91 5f 0b 	lds	r24, 0x0B5F
    9c4c:	28 2e       	mov	r2, r24
    9c4e:	22 94       	swap	r2
    9c50:	ff e0       	ldi	r31, 0x0F	; 15
    9c52:	2f 22       	and	r2, r31
    9c54:	29 9e       	mul	r2, r25
    9c56:	10 01       	movw	r2, r0
    9c58:	11 24       	eor	r1, r1
    9c5a:	8f 70       	andi	r24, 0x0F	; 15
    9c5c:	28 0e       	add	r2, r24
    9c5e:	31 1c       	adc	r3, r1

						// calculate hour variables
  Xstart1_hour = Xcenter + (signed int)(6*sin((pin_hour*30 + pin_minute/2. - 30)*3.141592/180.)+0.5);
    9c60:	40 90 39 0b 	lds	r4, 0x0B39
    9c64:	50 90 3a 0b 	lds	r5, 0x0B3A
    9c68:	ca 01       	movw	r24, r20
    9c6a:	80 71       	andi	r24, 0x10	; 16
    9c6c:	90 70       	andi	r25, 0x00	; 0
    9c6e:	e4 e0       	ldi	r30, 0x04	; 4
    9c70:	95 95       	asr	r25
    9c72:	87 95       	ror	r24
    9c74:	ea 95       	dec	r30
    9c76:	e1 f7       	brne	.-8      	; 0x9c70 <Draw_pin+0x7c>
    9c78:	9c 01       	movw	r18, r24
    9c7a:	73 e0       	ldi	r23, 0x03	; 3
    9c7c:	22 0f       	add	r18, r18
    9c7e:	33 1f       	adc	r19, r19
    9c80:	7a 95       	dec	r23
    9c82:	e1 f7       	brne	.-8      	; 0x9c7c <Draw_pin+0x88>
    9c84:	88 0f       	add	r24, r24
    9c86:	99 1f       	adc	r25, r25
    9c88:	28 0f       	add	r18, r24
    9c8a:	39 1f       	adc	r19, r25
    9c8c:	4f 70       	andi	r20, 0x0F	; 15
    9c8e:	50 70       	andi	r21, 0x00	; 0
    9c90:	24 0f       	add	r18, r20
    9c92:	35 1f       	adc	r19, r21
    9c94:	b9 01       	movw	r22, r18
    9c96:	85 e0       	ldi	r24, 0x05	; 5
    9c98:	66 0f       	add	r22, r22
    9c9a:	77 1f       	adc	r23, r23
    9c9c:	8a 95       	dec	r24
    9c9e:	e1 f7       	brne	.-8      	; 0x9c98 <Draw_pin+0xa4>
    9ca0:	22 0f       	add	r18, r18
    9ca2:	33 1f       	adc	r19, r19
    9ca4:	62 1b       	sub	r22, r18
    9ca6:	73 0b       	sbc	r23, r19
    9ca8:	80 e0       	ldi	r24, 0x00	; 0
    9caa:	90 e0       	ldi	r25, 0x00	; 0
    9cac:	0e 94 53 5b 	call	0xb6a6	; 0xb6a6 <__floatunsisf>
    9cb0:	7b 01       	movw	r14, r22
    9cb2:	8c 01       	movw	r16, r24
    9cb4:	b4 01       	movw	r22, r8
    9cb6:	80 e0       	ldi	r24, 0x00	; 0
    9cb8:	90 e0       	ldi	r25, 0x00	; 0
    9cba:	0e 94 53 5b 	call	0xb6a6	; 0xb6a6 <__floatunsisf>
    9cbe:	20 e0       	ldi	r18, 0x00	; 0
    9cc0:	30 e0       	ldi	r19, 0x00	; 0
    9cc2:	40 e0       	ldi	r20, 0x00	; 0
    9cc4:	5f e3       	ldi	r21, 0x3F	; 63
    9cc6:	0e 94 1e 5c 	call	0xb83c	; 0xb83c <__mulsf3>
    9cca:	9b 01       	movw	r18, r22
    9ccc:	ac 01       	movw	r20, r24
    9cce:	c8 01       	movw	r24, r16
    9cd0:	b7 01       	movw	r22, r14
    9cd2:	0e 94 53 5a 	call	0xb4a6	; 0xb4a6 <__addsf3>
    9cd6:	5b 01       	movw	r10, r22
    9cd8:	6c 01       	movw	r12, r24
    9cda:	20 e0       	ldi	r18, 0x00	; 0
    9cdc:	30 e0       	ldi	r19, 0x00	; 0
    9cde:	40 ef       	ldi	r20, 0xF0	; 240
    9ce0:	51 e4       	ldi	r21, 0x41	; 65
    9ce2:	0e 94 52 5a 	call	0xb4a4	; 0xb4a4 <__subsf3>
    9ce6:	28 ed       	ldi	r18, 0xD8	; 216
    9ce8:	3f e0       	ldi	r19, 0x0F	; 15
    9cea:	49 e4       	ldi	r20, 0x49	; 73
    9cec:	50 e4       	ldi	r21, 0x40	; 64
    9cee:	0e 94 1e 5c 	call	0xb83c	; 0xb83c <__mulsf3>
    9cf2:	20 e0       	ldi	r18, 0x00	; 0
    9cf4:	30 e0       	ldi	r19, 0x00	; 0
    9cf6:	44 e3       	ldi	r20, 0x34	; 52
    9cf8:	53 e4       	ldi	r21, 0x43	; 67
    9cfa:	0e 94 ba 5a 	call	0xb574	; 0xb574 <__divsf3>
    9cfe:	7b 01       	movw	r14, r22
    9d00:	8c 01       	movw	r16, r24
    9d02:	c8 01       	movw	r24, r16
    9d04:	0e 94 81 5c 	call	0xb902	; 0xb902 <sin>
    9d08:	20 e0       	ldi	r18, 0x00	; 0
    9d0a:	30 e0       	ldi	r19, 0x00	; 0
    9d0c:	40 ec       	ldi	r20, 0xC0	; 192
    9d0e:	50 e4       	ldi	r21, 0x40	; 64
    9d10:	0e 94 1e 5c 	call	0xb83c	; 0xb83c <__mulsf3>
    9d14:	20 e0       	ldi	r18, 0x00	; 0
    9d16:	30 e0       	ldi	r19, 0x00	; 0
    9d18:	40 e0       	ldi	r20, 0x00	; 0
    9d1a:	5f e3       	ldi	r21, 0x3F	; 63
    9d1c:	0e 94 53 5a 	call	0xb4a6	; 0xb4a6 <__addsf3>
    9d20:	0e 94 22 5b 	call	0xb644	; 0xb644 <__fixsfsi>
    9d24:	9b 01       	movw	r18, r22
    9d26:	24 0d       	add	r18, r4
    9d28:	35 1d       	adc	r19, r5
    9d2a:	3a 8f       	std	Y+26, r19	; 0x1a
    9d2c:	29 8f       	std	Y+25, r18	; 0x19
  Ystart1_hour = Ycenter - (signed int)(6*cos((pin_hour*30 + pin_minute/2. - 30)*3.141592/180.)+0.5);
    9d2e:	60 90 3b 0b 	lds	r6, 0x0B3B
    9d32:	70 90 3c 0b 	lds	r7, 0x0B3C
    9d36:	b7 01       	movw	r22, r14
    9d38:	c8 01       	movw	r24, r16
    9d3a:	0e 94 b7 5a 	call	0xb56e	; 0xb56e <cos>
    9d3e:	20 e0       	ldi	r18, 0x00	; 0
    9d40:	30 e0       	ldi	r19, 0x00	; 0
    9d42:	40 ec       	ldi	r20, 0xC0	; 192
    9d44:	50 e4       	ldi	r21, 0x40	; 64
    9d46:	0e 94 1e 5c 	call	0xb83c	; 0xb83c <__mulsf3>
    9d4a:	20 e0       	ldi	r18, 0x00	; 0
    9d4c:	30 e0       	ldi	r19, 0x00	; 0
    9d4e:	40 e0       	ldi	r20, 0x00	; 0
    9d50:	5f e3       	ldi	r21, 0x3F	; 63
    9d52:	0e 94 53 5a 	call	0xb4a6	; 0xb4a6 <__addsf3>
    9d56:	0e 94 22 5b 	call	0xb644	; 0xb644 <__fixsfsi>
    9d5a:	c3 01       	movw	r24, r6
    9d5c:	86 1b       	sub	r24, r22
    9d5e:	97 0b       	sbc	r25, r23
    9d60:	98 8f       	std	Y+24, r25	; 0x18
    9d62:	8f 8b       	std	Y+23, r24	; 0x17

  Xstart2_hour = Xcenter + (signed int)(6*sin((pin_hour*30 + pin_minute/2. + 30)*3.141592/180.)+0.5);
    9d64:	c6 01       	movw	r24, r12
    9d66:	b5 01       	movw	r22, r10
    9d68:	20 e0       	ldi	r18, 0x00	; 0
    9d6a:	30 e0       	ldi	r19, 0x00	; 0
    9d6c:	40 ef       	ldi	r20, 0xF0	; 240
    9d6e:	51 e4       	ldi	r21, 0x41	; 65
    9d70:	0e 94 53 5a 	call	0xb4a6	; 0xb4a6 <__addsf3>
    9d74:	28 ed       	ldi	r18, 0xD8	; 216
    9d76:	3f e0       	ldi	r19, 0x0F	; 15
    9d78:	49 e4       	ldi	r20, 0x49	; 73
    9d7a:	50 e4       	ldi	r21, 0x40	; 64
    9d7c:	0e 94 1e 5c 	call	0xb83c	; 0xb83c <__mulsf3>
    9d80:	20 e0       	ldi	r18, 0x00	; 0
    9d82:	30 e0       	ldi	r19, 0x00	; 0
    9d84:	44 e3       	ldi	r20, 0x34	; 52
    9d86:	53 e4       	ldi	r21, 0x43	; 67
    9d88:	0e 94 ba 5a 	call	0xb574	; 0xb574 <__divsf3>
    9d8c:	7b 01       	movw	r14, r22
    9d8e:	8c 01       	movw	r16, r24
    9d90:	c8 01       	movw	r24, r16
    9d92:	0e 94 81 5c 	call	0xb902	; 0xb902 <sin>
    9d96:	20 e0       	ldi	r18, 0x00	; 0
    9d98:	30 e0       	ldi	r19, 0x00	; 0
    9d9a:	40 ec       	ldi	r20, 0xC0	; 192
    9d9c:	50 e4       	ldi	r21, 0x40	; 64
    9d9e:	0e 94 1e 5c 	call	0xb83c	; 0xb83c <__mulsf3>
    9da2:	20 e0       	ldi	r18, 0x00	; 0
    9da4:	30 e0       	ldi	r19, 0x00	; 0
    9da6:	40 e0       	ldi	r20, 0x00	; 0
    9da8:	5f e3       	ldi	r21, 0x3F	; 63
    9daa:	0e 94 53 5a 	call	0xb4a6	; 0xb4a6 <__addsf3>
    9dae:	0e 94 22 5b 	call	0xb644	; 0xb644 <__fixsfsi>
    9db2:	fb 01       	movw	r30, r22
    9db4:	e4 0d       	add	r30, r4
    9db6:	f5 1d       	adc	r31, r5
    9db8:	fe 8b       	std	Y+22, r31	; 0x16
    9dba:	ed 8b       	std	Y+21, r30	; 0x15
  Ystart2_hour = Ycenter - (signed int)(6*cos((pin_hour*30 + pin_minute/2. + 30)*3.141592/180.)+0.5);
    9dbc:	b7 01       	movw	r22, r14
    9dbe:	c8 01       	movw	r24, r16
    9dc0:	0e 94 b7 5a 	call	0xb56e	; 0xb56e <cos>
    9dc4:	20 e0       	ldi	r18, 0x00	; 0
    9dc6:	30 e0       	ldi	r19, 0x00	; 0
    9dc8:	40 ec       	ldi	r20, 0xC0	; 192
    9dca:	50 e4       	ldi	r21, 0x40	; 64
    9dcc:	0e 94 1e 5c 	call	0xb83c	; 0xb83c <__mulsf3>
    9dd0:	20 e0       	ldi	r18, 0x00	; 0
    9dd2:	30 e0       	ldi	r19, 0x00	; 0
    9dd4:	40 e0       	ldi	r20, 0x00	; 0
    9dd6:	5f e3       	ldi	r21, 0x3F	; 63
    9dd8:	0e 94 53 5a 	call	0xb4a6	; 0xb4a6 <__addsf3>
    9ddc:	0e 94 22 5b 	call	0xb644	; 0xb644 <__fixsfsi>
    9de0:	93 01       	movw	r18, r6
    9de2:	26 1b       	sub	r18, r22
    9de4:	37 0b       	sbc	r19, r23
    9de6:	3c 8b       	std	Y+20, r19	; 0x14
    9de8:	2b 8b       	std	Y+19, r18	; 0x13

  Xend_hour = Xcenter + (signed int)(length_hour*sin((pin_hour*30 + pin_minute/2.)*3.141592/180.)+0.5);
    9dea:	c6 01       	movw	r24, r12
    9dec:	b5 01       	movw	r22, r10
    9dee:	28 ed       	ldi	r18, 0xD8	; 216
    9df0:	3f e0       	ldi	r19, 0x0F	; 15
    9df2:	49 e4       	ldi	r20, 0x49	; 73
    9df4:	50 e4       	ldi	r21, 0x40	; 64
    9df6:	0e 94 1e 5c 	call	0xb83c	; 0xb83c <__mulsf3>
    9dfa:	20 e0       	ldi	r18, 0x00	; 0
    9dfc:	30 e0       	ldi	r19, 0x00	; 0
    9dfe:	44 e3       	ldi	r20, 0x34	; 52
    9e00:	53 e4       	ldi	r21, 0x43	; 67
    9e02:	0e 94 ba 5a 	call	0xb574	; 0xb574 <__divsf3>
    9e06:	7b 01       	movw	r14, r22
    9e08:	8c 01       	movw	r16, r24
    9e0a:	c8 01       	movw	r24, r16
    9e0c:	0e 94 81 5c 	call	0xb902	; 0xb902 <sin>
    9e10:	20 e0       	ldi	r18, 0x00	; 0
    9e12:	30 e0       	ldi	r19, 0x00	; 0
    9e14:	42 e8       	ldi	r20, 0x82	; 130
    9e16:	52 e4       	ldi	r21, 0x42	; 66
    9e18:	0e 94 1e 5c 	call	0xb83c	; 0xb83c <__mulsf3>
    9e1c:	20 e0       	ldi	r18, 0x00	; 0
    9e1e:	30 e0       	ldi	r19, 0x00	; 0
    9e20:	40 e0       	ldi	r20, 0x00	; 0
    9e22:	5f e3       	ldi	r21, 0x3F	; 63
    9e24:	0e 94 53 5a 	call	0xb4a6	; 0xb4a6 <__addsf3>
    9e28:	0e 94 22 5b 	call	0xb644	; 0xb644 <__fixsfsi>
    9e2c:	cb 01       	movw	r24, r22
    9e2e:	84 0d       	add	r24, r4
    9e30:	95 1d       	adc	r25, r5
    9e32:	9a 8b       	std	Y+18, r25	; 0x12
    9e34:	89 8b       	std	Y+17, r24	; 0x11
  Yend_hour = Ycenter - (signed int)(length_hour*cos((pin_hour*30 + pin_minute/2.)*3.141592/180.)+0.5);
    9e36:	b7 01       	movw	r22, r14
    9e38:	c8 01       	movw	r24, r16
    9e3a:	0e 94 b7 5a 	call	0xb56e	; 0xb56e <cos>
    9e3e:	20 e0       	ldi	r18, 0x00	; 0
    9e40:	30 e0       	ldi	r19, 0x00	; 0
    9e42:	42 e8       	ldi	r20, 0x82	; 130
    9e44:	52 e4       	ldi	r21, 0x42	; 66
    9e46:	0e 94 1e 5c 	call	0xb83c	; 0xb83c <__mulsf3>
    9e4a:	20 e0       	ldi	r18, 0x00	; 0
    9e4c:	30 e0       	ldi	r19, 0x00	; 0
    9e4e:	40 e0       	ldi	r20, 0x00	; 0
    9e50:	5f e3       	ldi	r21, 0x3F	; 63
    9e52:	0e 94 53 5a 	call	0xb4a6	; 0xb4a6 <__addsf3>
    9e56:	0e 94 22 5b 	call	0xb644	; 0xb644 <__fixsfsi>
    9e5a:	f3 01       	movw	r30, r6
    9e5c:	e6 1b       	sub	r30, r22
    9e5e:	f7 0b       	sbc	r31, r23
    9e60:	f8 8b       	std	Y+16, r31	; 0x10
    9e62:	ef 87       	std	Y+15, r30	; 0x0f

						 // calculate minute variables
  Xstart1_minute = Xcenter + (signed int)(6*sin((pin_minute*6 + pin_second/10. - 15)*3.141592/180.)+0.5);
    9e64:	b4 01       	movw	r22, r8
    9e66:	66 0f       	add	r22, r22
    9e68:	77 1f       	adc	r23, r23
    9e6a:	68 0d       	add	r22, r8
    9e6c:	79 1d       	adc	r23, r9
    9e6e:	66 0f       	add	r22, r22
    9e70:	77 1f       	adc	r23, r23
    9e72:	80 e0       	ldi	r24, 0x00	; 0
    9e74:	90 e0       	ldi	r25, 0x00	; 0
    9e76:	0e 94 53 5b 	call	0xb6a6	; 0xb6a6 <__floatunsisf>
    9e7a:	7b 01       	movw	r14, r22
    9e7c:	8c 01       	movw	r16, r24
    9e7e:	b1 01       	movw	r22, r2
    9e80:	80 e0       	ldi	r24, 0x00	; 0
    9e82:	90 e0       	ldi	r25, 0x00	; 0
    9e84:	0e 94 53 5b 	call	0xb6a6	; 0xb6a6 <__floatunsisf>
    9e88:	20 e0       	ldi	r18, 0x00	; 0
    9e8a:	30 e0       	ldi	r19, 0x00	; 0
    9e8c:	40 e2       	ldi	r20, 0x20	; 32
    9e8e:	51 e4       	ldi	r21, 0x41	; 65
    9e90:	0e 94 ba 5a 	call	0xb574	; 0xb574 <__divsf3>
    9e94:	9b 01       	movw	r18, r22
    9e96:	ac 01       	movw	r20, r24
    9e98:	c8 01       	movw	r24, r16
    9e9a:	b7 01       	movw	r22, r14
    9e9c:	0e 94 53 5a 	call	0xb4a6	; 0xb4a6 <__addsf3>
    9ea0:	5b 01       	movw	r10, r22
    9ea2:	6c 01       	movw	r12, r24
    9ea4:	20 e0       	ldi	r18, 0x00	; 0
    9ea6:	30 e0       	ldi	r19, 0x00	; 0
    9ea8:	40 e7       	ldi	r20, 0x70	; 112
    9eaa:	51 e4       	ldi	r21, 0x41	; 65
    9eac:	0e 94 52 5a 	call	0xb4a4	; 0xb4a4 <__subsf3>
    9eb0:	28 ed       	ldi	r18, 0xD8	; 216
    9eb2:	3f e0       	ldi	r19, 0x0F	; 15
    9eb4:	49 e4       	ldi	r20, 0x49	; 73
    9eb6:	50 e4       	ldi	r21, 0x40	; 64
    9eb8:	0e 94 1e 5c 	call	0xb83c	; 0xb83c <__mulsf3>
    9ebc:	20 e0       	ldi	r18, 0x00	; 0
    9ebe:	30 e0       	ldi	r19, 0x00	; 0
    9ec0:	44 e3       	ldi	r20, 0x34	; 52
    9ec2:	53 e4       	ldi	r21, 0x43	; 67
    9ec4:	0e 94 ba 5a 	call	0xb574	; 0xb574 <__divsf3>
    9ec8:	7b 01       	movw	r14, r22
    9eca:	8c 01       	movw	r16, r24
    9ecc:	c8 01       	movw	r24, r16
    9ece:	0e 94 81 5c 	call	0xb902	; 0xb902 <sin>
    9ed2:	20 e0       	ldi	r18, 0x00	; 0
    9ed4:	30 e0       	ldi	r19, 0x00	; 0
    9ed6:	40 ec       	ldi	r20, 0xC0	; 192
    9ed8:	50 e4       	ldi	r21, 0x40	; 64
    9eda:	0e 94 1e 5c 	call	0xb83c	; 0xb83c <__mulsf3>
    9ede:	20 e0       	ldi	r18, 0x00	; 0
    9ee0:	30 e0       	ldi	r19, 0x00	; 0
    9ee2:	40 e0       	ldi	r20, 0x00	; 0
    9ee4:	5f e3       	ldi	r21, 0x3F	; 63
    9ee6:	0e 94 53 5a 	call	0xb4a6	; 0xb4a6 <__addsf3>
    9eea:	0e 94 22 5b 	call	0xb644	; 0xb644 <__fixsfsi>
    9eee:	9b 01       	movw	r18, r22
    9ef0:	24 0d       	add	r18, r4
    9ef2:	35 1d       	adc	r19, r5
    9ef4:	3e 87       	std	Y+14, r19	; 0x0e
    9ef6:	2d 87       	std	Y+13, r18	; 0x0d
  Ystart1_minute = Ycenter - (signed int)(6*cos((pin_minute*6 + pin_second/10. - 15)*3.141592/180.)+0.5);
    9ef8:	b7 01       	movw	r22, r14
    9efa:	c8 01       	movw	r24, r16
    9efc:	0e 94 b7 5a 	call	0xb56e	; 0xb56e <cos>
    9f00:	20 e0       	ldi	r18, 0x00	; 0
    9f02:	30 e0       	ldi	r19, 0x00	; 0
    9f04:	40 ec       	ldi	r20, 0xC0	; 192
    9f06:	50 e4       	ldi	r21, 0x40	; 64
    9f08:	0e 94 1e 5c 	call	0xb83c	; 0xb83c <__mulsf3>
    9f0c:	20 e0       	ldi	r18, 0x00	; 0
    9f0e:	30 e0       	ldi	r19, 0x00	; 0
    9f10:	40 e0       	ldi	r20, 0x00	; 0
    9f12:	5f e3       	ldi	r21, 0x3F	; 63
    9f14:	0e 94 53 5a 	call	0xb4a6	; 0xb4a6 <__addsf3>
    9f18:	0e 94 22 5b 	call	0xb644	; 0xb644 <__fixsfsi>
    9f1c:	c3 01       	movw	r24, r6
    9f1e:	86 1b       	sub	r24, r22
    9f20:	97 0b       	sbc	r25, r23
    9f22:	9c 87       	std	Y+12, r25	; 0x0c
    9f24:	8b 87       	std	Y+11, r24	; 0x0b

  Xstart2_minute = Xcenter + (signed int)(6*sin((pin_minute*6 + pin_second/10. + 15)*3.141592/180.)+0.5);
    9f26:	c6 01       	movw	r24, r12
    9f28:	b5 01       	movw	r22, r10
    9f2a:	20 e0       	ldi	r18, 0x00	; 0
    9f2c:	30 e0       	ldi	r19, 0x00	; 0
    9f2e:	40 e7       	ldi	r20, 0x70	; 112
    9f30:	51 e4       	ldi	r21, 0x41	; 65
    9f32:	0e 94 53 5a 	call	0xb4a6	; 0xb4a6 <__addsf3>
    9f36:	28 ed       	ldi	r18, 0xD8	; 216
    9f38:	3f e0       	ldi	r19, 0x0F	; 15
    9f3a:	49 e4       	ldi	r20, 0x49	; 73
    9f3c:	50 e4       	ldi	r21, 0x40	; 64
    9f3e:	0e 94 1e 5c 	call	0xb83c	; 0xb83c <__mulsf3>
    9f42:	20 e0       	ldi	r18, 0x00	; 0
    9f44:	30 e0       	ldi	r19, 0x00	; 0
    9f46:	44 e3       	ldi	r20, 0x34	; 52
    9f48:	53 e4       	ldi	r21, 0x43	; 67
    9f4a:	0e 94 ba 5a 	call	0xb574	; 0xb574 <__divsf3>
    9f4e:	7b 01       	movw	r14, r22
    9f50:	8c 01       	movw	r16, r24
    9f52:	c8 01       	movw	r24, r16
    9f54:	0e 94 81 5c 	call	0xb902	; 0xb902 <sin>
    9f58:	20 e0       	ldi	r18, 0x00	; 0
    9f5a:	30 e0       	ldi	r19, 0x00	; 0
    9f5c:	40 ec       	ldi	r20, 0xC0	; 192
    9f5e:	50 e4       	ldi	r21, 0x40	; 64
    9f60:	0e 94 1e 5c 	call	0xb83c	; 0xb83c <__mulsf3>
    9f64:	20 e0       	ldi	r18, 0x00	; 0
    9f66:	30 e0       	ldi	r19, 0x00	; 0
    9f68:	40 e0       	ldi	r20, 0x00	; 0
    9f6a:	5f e3       	ldi	r21, 0x3F	; 63
    9f6c:	0e 94 53 5a 	call	0xb4a6	; 0xb4a6 <__addsf3>
    9f70:	0e 94 22 5b 	call	0xb644	; 0xb644 <__fixsfsi>
    9f74:	fb 01       	movw	r30, r22
    9f76:	e4 0d       	add	r30, r4
    9f78:	f5 1d       	adc	r31, r5
    9f7a:	fa 87       	std	Y+10, r31	; 0x0a
    9f7c:	e9 87       	std	Y+9, r30	; 0x09
  Ystart2_minute = Ycenter - (signed int)(6*cos((pin_minute*6 + pin_second/10. + 15)*3.141592/180.)+0.5);
    9f7e:	b7 01       	movw	r22, r14
    9f80:	c8 01       	movw	r24, r16
    9f82:	0e 94 b7 5a 	call	0xb56e	; 0xb56e <cos>
    9f86:	20 e0       	ldi	r18, 0x00	; 0
    9f88:	30 e0       	ldi	r19, 0x00	; 0
    9f8a:	40 ec       	ldi	r20, 0xC0	; 192
    9f8c:	50 e4       	ldi	r21, 0x40	; 64
    9f8e:	0e 94 1e 5c 	call	0xb83c	; 0xb83c <__mulsf3>
    9f92:	20 e0       	ldi	r18, 0x00	; 0
    9f94:	30 e0       	ldi	r19, 0x00	; 0
    9f96:	40 e0       	ldi	r20, 0x00	; 0
    9f98:	5f e3       	ldi	r21, 0x3F	; 63
    9f9a:	0e 94 53 5a 	call	0xb4a6	; 0xb4a6 <__addsf3>
    9f9e:	0e 94 22 5b 	call	0xb644	; 0xb644 <__fixsfsi>
    9fa2:	93 01       	movw	r18, r6
    9fa4:	26 1b       	sub	r18, r22
    9fa6:	37 0b       	sbc	r19, r23
    9fa8:	38 87       	std	Y+8, r19	; 0x08
    9faa:	2f 83       	std	Y+7, r18	; 0x07

  Xend_minute = Xcenter + (signed int)(length_minute*sin((pin_minute*6 + pin_second/10.)*3.141592/180.)+0.5);
    9fac:	c6 01       	movw	r24, r12
    9fae:	b5 01       	movw	r22, r10
    9fb0:	28 ed       	ldi	r18, 0xD8	; 216
    9fb2:	3f e0       	ldi	r19, 0x0F	; 15
    9fb4:	49 e4       	ldi	r20, 0x49	; 73
    9fb6:	50 e4       	ldi	r21, 0x40	; 64
    9fb8:	0e 94 1e 5c 	call	0xb83c	; 0xb83c <__mulsf3>
    9fbc:	20 e0       	ldi	r18, 0x00	; 0
    9fbe:	30 e0       	ldi	r19, 0x00	; 0
    9fc0:	44 e3       	ldi	r20, 0x34	; 52
    9fc2:	53 e4       	ldi	r21, 0x43	; 67
    9fc4:	0e 94 ba 5a 	call	0xb574	; 0xb574 <__divsf3>
    9fc8:	7b 01       	movw	r14, r22
    9fca:	8c 01       	movw	r16, r24
    9fcc:	c8 01       	movw	r24, r16
    9fce:	0e 94 81 5c 	call	0xb902	; 0xb902 <sin>
    9fd2:	20 e0       	ldi	r18, 0x00	; 0
    9fd4:	30 e0       	ldi	r19, 0x00	; 0
    9fd6:	40 ea       	ldi	r20, 0xA0	; 160
    9fd8:	52 e4       	ldi	r21, 0x42	; 66
    9fda:	0e 94 1e 5c 	call	0xb83c	; 0xb83c <__mulsf3>
    9fde:	20 e0       	ldi	r18, 0x00	; 0
    9fe0:	30 e0       	ldi	r19, 0x00	; 0
    9fe2:	40 e0       	ldi	r20, 0x00	; 0
    9fe4:	5f e3       	ldi	r21, 0x3F	; 63
    9fe6:	0e 94 53 5a 	call	0xb4a6	; 0xb4a6 <__addsf3>
    9fea:	0e 94 22 5b 	call	0xb644	; 0xb644 <__fixsfsi>
    9fee:	cb 01       	movw	r24, r22
    9ff0:	84 0d       	add	r24, r4
    9ff2:	95 1d       	adc	r25, r5
    9ff4:	9c 8f       	std	Y+28, r25	; 0x1c
    9ff6:	8b 8f       	std	Y+27, r24	; 0x1b
  Yend_minute = Ycenter - (signed int)(length_minute*cos((pin_minute*6 + pin_second/10.)*3.141592/180.)+0.5);
    9ff8:	b7 01       	movw	r22, r14
    9ffa:	c8 01       	movw	r24, r16
    9ffc:	0e 94 b7 5a 	call	0xb56e	; 0xb56e <cos>
    a000:	20 e0       	ldi	r18, 0x00	; 0
    a002:	30 e0       	ldi	r19, 0x00	; 0
    a004:	40 ea       	ldi	r20, 0xA0	; 160
    a006:	52 e4       	ldi	r21, 0x42	; 66
    a008:	0e 94 1e 5c 	call	0xb83c	; 0xb83c <__mulsf3>
    a00c:	20 e0       	ldi	r18, 0x00	; 0
    a00e:	30 e0       	ldi	r19, 0x00	; 0
    a010:	40 e0       	ldi	r20, 0x00	; 0
    a012:	5f e3       	ldi	r21, 0x3F	; 63
    a014:	0e 94 53 5a 	call	0xb4a6	; 0xb4a6 <__addsf3>
    a018:	0e 94 22 5b 	call	0xb644	; 0xb644 <__fixsfsi>
    a01c:	f3 01       	movw	r30, r6
    a01e:	e6 1b       	sub	r30, r22
    a020:	f7 0b       	sbc	r31, r23
    a022:	fe 83       	std	Y+6, r31	; 0x06
    a024:	ed 83       	std	Y+5, r30	; 0x05

						// calculate second variables
  Xstart_second = Xcenter + (signed int)(6*sin(3.141592/180.*(pin_second*6))+0.5);
    a026:	b1 01       	movw	r22, r2
    a028:	66 0f       	add	r22, r22
    a02a:	77 1f       	adc	r23, r23
    a02c:	62 0d       	add	r22, r2
    a02e:	73 1d       	adc	r23, r3
    a030:	66 0f       	add	r22, r22
    a032:	77 1f       	adc	r23, r23
    a034:	80 e0       	ldi	r24, 0x00	; 0
    a036:	90 e0       	ldi	r25, 0x00	; 0
    a038:	0e 94 53 5b 	call	0xb6a6	; 0xb6a6 <__floatunsisf>
    a03c:	23 e3       	ldi	r18, 0x33	; 51
    a03e:	3a ef       	ldi	r19, 0xFA	; 250
    a040:	4e e8       	ldi	r20, 0x8E	; 142
    a042:	5c e3       	ldi	r21, 0x3C	; 60
    a044:	0e 94 1e 5c 	call	0xb83c	; 0xb83c <__mulsf3>
    a048:	7b 01       	movw	r14, r22
    a04a:	8c 01       	movw	r16, r24
    a04c:	c8 01       	movw	r24, r16
    a04e:	0e 94 81 5c 	call	0xb902	; 0xb902 <sin>
    a052:	5b 01       	movw	r10, r22
    a054:	6c 01       	movw	r12, r24
    a056:	20 e0       	ldi	r18, 0x00	; 0
    a058:	30 e0       	ldi	r19, 0x00	; 0
    a05a:	40 ec       	ldi	r20, 0xC0	; 192
    a05c:	50 e4       	ldi	r21, 0x40	; 64
    a05e:	0e 94 1e 5c 	call	0xb83c	; 0xb83c <__mulsf3>
    a062:	20 e0       	ldi	r18, 0x00	; 0
    a064:	30 e0       	ldi	r19, 0x00	; 0
    a066:	40 e0       	ldi	r20, 0x00	; 0
    a068:	5f e3       	ldi	r21, 0x3F	; 63
    a06a:	0e 94 53 5a 	call	0xb4a6	; 0xb4a6 <__addsf3>
    a06e:	0e 94 22 5b 	call	0xb644	; 0xb644 <__fixsfsi>
    a072:	1b 01       	movw	r2, r22
    a074:	24 0c       	add	r2, r4
    a076:	35 1c       	adc	r3, r5
  Ystart_second = Ycenter - (signed int)(6*cos(3.141592/180.*(pin_second*6))+0.5);
    a078:	b7 01       	movw	r22, r14
    a07a:	c8 01       	movw	r24, r16
    a07c:	0e 94 b7 5a 	call	0xb56e	; 0xb56e <cos>
    a080:	7b 01       	movw	r14, r22
    a082:	8c 01       	movw	r16, r24
    a084:	20 e0       	ldi	r18, 0x00	; 0
    a086:	30 e0       	ldi	r19, 0x00	; 0
    a088:	40 ec       	ldi	r20, 0xC0	; 192
    a08a:	50 e4       	ldi	r21, 0x40	; 64
    a08c:	0e 94 1e 5c 	call	0xb83c	; 0xb83c <__mulsf3>
    a090:	20 e0       	ldi	r18, 0x00	; 0
    a092:	30 e0       	ldi	r19, 0x00	; 0
    a094:	40 e0       	ldi	r20, 0x00	; 0
    a096:	5f e3       	ldi	r21, 0x3F	; 63
    a098:	0e 94 53 5a 	call	0xb4a6	; 0xb4a6 <__addsf3>
    a09c:	0e 94 22 5b 	call	0xb644	; 0xb644 <__fixsfsi>
    a0a0:	93 01       	movw	r18, r6
    a0a2:	26 1b       	sub	r18, r22
    a0a4:	37 0b       	sbc	r19, r23
    a0a6:	3c 83       	std	Y+4, r19	; 0x04
    a0a8:	2b 83       	std	Y+3, r18	; 0x03

  Xend_second = Xcenter + (signed int)(length_second*sin(3.141592/180.*(pin_second*6))+0.5);
    a0aa:	c6 01       	movw	r24, r12
    a0ac:	b5 01       	movw	r22, r10
    a0ae:	20 e0       	ldi	r18, 0x00	; 0
    a0b0:	30 e0       	ldi	r19, 0x00	; 0
    a0b2:	48 ec       	ldi	r20, 0xC8	; 200
    a0b4:	52 e4       	ldi	r21, 0x42	; 66
    a0b6:	0e 94 1e 5c 	call	0xb83c	; 0xb83c <__mulsf3>
    a0ba:	20 e0       	ldi	r18, 0x00	; 0
    a0bc:	30 e0       	ldi	r19, 0x00	; 0
    a0be:	40 e0       	ldi	r20, 0x00	; 0
    a0c0:	5f e3       	ldi	r21, 0x3F	; 63
    a0c2:	0e 94 53 5a 	call	0xb4a6	; 0xb4a6 <__addsf3>
    a0c6:	0e 94 22 5b 	call	0xb644	; 0xb644 <__fixsfsi>
    a0ca:	4b 01       	movw	r8, r22
    a0cc:	84 0c       	add	r8, r4
    a0ce:	95 1c       	adc	r9, r5
  Yend_second = Ycenter - (signed int)(length_second*cos(3.141592/180.*(pin_second*6))+0.5);
    a0d0:	c8 01       	movw	r24, r16
    a0d2:	b7 01       	movw	r22, r14
    a0d4:	20 e0       	ldi	r18, 0x00	; 0
    a0d6:	30 e0       	ldi	r19, 0x00	; 0
    a0d8:	48 ec       	ldi	r20, 0xC8	; 200
    a0da:	52 e4       	ldi	r21, 0x42	; 66
    a0dc:	0e 94 1e 5c 	call	0xb83c	; 0xb83c <__mulsf3>
    a0e0:	20 e0       	ldi	r18, 0x00	; 0
    a0e2:	30 e0       	ldi	r19, 0x00	; 0
    a0e4:	40 e0       	ldi	r20, 0x00	; 0
    a0e6:	5f e3       	ldi	r21, 0x3F	; 63
    a0e8:	0e 94 53 5a 	call	0xb4a6	; 0xb4a6 <__addsf3>
    a0ec:	0e 94 22 5b 	call	0xb644	; 0xb644 <__fixsfsi>
    a0f0:	c3 01       	movw	r24, r6
    a0f2:	86 1b       	sub	r24, r22
    a0f4:	97 0b       	sbc	r25, r23
    a0f6:	9a 83       	std	Y+2, r25	; 0x02
    a0f8:	89 83       	std	Y+1, r24	; 0x01
	
  Xcircle_second = Xcenter + (signed int)(center_second*sin(3.141592/180.*(pin_second*6))+0.5);
    a0fa:	c6 01       	movw	r24, r12
    a0fc:	b5 01       	movw	r22, r10
    a0fe:	20 e0       	ldi	r18, 0x00	; 0
    a100:	30 e0       	ldi	r19, 0x00	; 0
    a102:	40 ea       	ldi	r20, 0xA0	; 160
    a104:	52 e4       	ldi	r21, 0x42	; 66
    a106:	0e 94 1e 5c 	call	0xb83c	; 0xb83c <__mulsf3>
    a10a:	20 e0       	ldi	r18, 0x00	; 0
    a10c:	30 e0       	ldi	r19, 0x00	; 0
    a10e:	40 e0       	ldi	r20, 0x00	; 0
    a110:	5f e3       	ldi	r21, 0x3F	; 63
    a112:	0e 94 53 5a 	call	0xb4a6	; 0xb4a6 <__addsf3>
    a116:	0e 94 22 5b 	call	0xb644	; 0xb644 <__fixsfsi>
    a11a:	6b 01       	movw	r12, r22
    a11c:	c4 0c       	add	r12, r4
    a11e:	d5 1c       	adc	r13, r5
  Ycircle_second = Ycenter - (signed int)(center_second*cos(3.141592/180.*(pin_second*6))+0.5);
    a120:	c8 01       	movw	r24, r16
    a122:	b7 01       	movw	r22, r14
    a124:	20 e0       	ldi	r18, 0x00	; 0
    a126:	30 e0       	ldi	r19, 0x00	; 0
    a128:	40 ea       	ldi	r20, 0xA0	; 160
    a12a:	52 e4       	ldi	r21, 0x42	; 66
    a12c:	0e 94 1e 5c 	call	0xb83c	; 0xb83c <__mulsf3>
    a130:	20 e0       	ldi	r18, 0x00	; 0
    a132:	30 e0       	ldi	r19, 0x00	; 0
    a134:	40 e0       	ldi	r20, 0x00	; 0
    a136:	5f e3       	ldi	r21, 0x3F	; 63
    a138:	0e 94 53 5a 	call	0xb4a6	; 0xb4a6 <__addsf3>
    a13c:	0e 94 22 5b 	call	0xb644	; 0xb644 <__fixsfsi>
    a140:	66 1a       	sub	r6, r22
    a142:	77 0a       	sbc	r7, r23

  if(start_flag == 0)				// initialize old value
    a144:	80 91 4d 0c 	lds	r24, 0x0C4D
    a148:	88 23       	and	r24, r24
    a14a:	09 f0       	breq	.+2      	; 0xa14e <Draw_pin+0x55a>
    a14c:	67 c0       	rjmp	.+206    	; 0xa21c <Draw_pin+0x628>
    { start_flag = 1;
    a14e:	81 e0       	ldi	r24, 0x01	; 1
    a150:	80 93 4d 0c 	sts	0x0C4D, r24

      Xstart1_hour_old = Xstart1_hour;
    a154:	e9 8d       	ldd	r30, Y+25	; 0x19
    a156:	fa 8d       	ldd	r31, Y+26	; 0x1a
    a158:	f0 93 5b 0b 	sts	0x0B5B, r31
    a15c:	e0 93 5a 0b 	sts	0x0B5A, r30
      Ystart1_hour_old = Ystart1_hour;
    a160:	2f 89       	ldd	r18, Y+23	; 0x17
    a162:	38 8d       	ldd	r19, Y+24	; 0x18
    a164:	30 93 50 0c 	sts	0x0C50, r19
    a168:	20 93 4f 0c 	sts	0x0C4F, r18
      Xstart2_hour_old = Xstart2_hour;
    a16c:	8d 89       	ldd	r24, Y+21	; 0x15
    a16e:	9e 89       	ldd	r25, Y+22	; 0x16
    a170:	90 93 4c 0b 	sts	0x0B4C, r25
    a174:	80 93 4b 0b 	sts	0x0B4B, r24
      Ystart2_hour_old = Ystart2_hour;
    a178:	eb 89       	ldd	r30, Y+19	; 0x13
    a17a:	fc 89       	ldd	r31, Y+20	; 0x14
    a17c:	f0 93 44 0b 	sts	0x0B44, r31
    a180:	e0 93 43 0b 	sts	0x0B43, r30
      Xend_hour_old = Xend_hour;
    a184:	29 89       	ldd	r18, Y+17	; 0x11
    a186:	3a 89       	ldd	r19, Y+18	; 0x12
    a188:	30 93 2b 0c 	sts	0x0C2B, r19
    a18c:	20 93 2a 0c 	sts	0x0C2A, r18
      Yend_hour_old = Yend_hour;
    a190:	8f 85       	ldd	r24, Y+15	; 0x0f
    a192:	98 89       	ldd	r25, Y+16	; 0x10
    a194:	90 93 49 0c 	sts	0x0C49, r25
    a198:	80 93 48 0c 	sts	0x0C48, r24

      Xstart1_minute_old = Xstart1_minute;
    a19c:	ed 85       	ldd	r30, Y+13	; 0x0d
    a19e:	fe 85       	ldd	r31, Y+14	; 0x0e
    a1a0:	f0 93 32 0c 	sts	0x0C32, r31
    a1a4:	e0 93 31 0c 	sts	0x0C31, r30
      Ystart1_minute_old = Ystart1_minute;
    a1a8:	2b 85       	ldd	r18, Y+11	; 0x0b
    a1aa:	3c 85       	ldd	r19, Y+12	; 0x0c
    a1ac:	30 93 29 0c 	sts	0x0C29, r19
    a1b0:	20 93 28 0c 	sts	0x0C28, r18
      Xstart2_minute_old = Xstart2_minute;
    a1b4:	89 85       	ldd	r24, Y+9	; 0x09
    a1b6:	9a 85       	ldd	r25, Y+10	; 0x0a
    a1b8:	90 93 43 0c 	sts	0x0C43, r25
    a1bc:	80 93 42 0c 	sts	0x0C42, r24
      Ystart2_minute_old = Ystart2_minute;
    a1c0:	ef 81       	ldd	r30, Y+7	; 0x07
    a1c2:	f8 85       	ldd	r31, Y+8	; 0x08
    a1c4:	f0 93 47 0c 	sts	0x0C47, r31
    a1c8:	e0 93 46 0c 	sts	0x0C46, r30
      Xend_minute_old = Xend_minute;
    a1cc:	2b 8d       	ldd	r18, Y+27	; 0x1b
    a1ce:	3c 8d       	ldd	r19, Y+28	; 0x1c
    a1d0:	30 93 4e 0b 	sts	0x0B4E, r19
    a1d4:	20 93 4d 0b 	sts	0x0B4D, r18
      Yend_minute_old = Yend_minute;
    a1d8:	8d 81       	ldd	r24, Y+5	; 0x05
    a1da:	9e 81       	ldd	r25, Y+6	; 0x06
    a1dc:	90 93 47 0b 	sts	0x0B47, r25
    a1e0:	80 93 46 0b 	sts	0x0B46, r24

      Xstart_second_old = Xstart_second;
    a1e4:	30 92 41 0c 	sts	0x0C41, r3
    a1e8:	20 92 40 0c 	sts	0x0C40, r2
      Ystart_second_old = Ystart_second;
    a1ec:	eb 81       	ldd	r30, Y+3	; 0x03
    a1ee:	fc 81       	ldd	r31, Y+4	; 0x04
    a1f0:	f0 93 35 0c 	sts	0x0C35, r31
    a1f4:	e0 93 34 0c 	sts	0x0C34, r30
      Xend_second_old = Xend_second;
    a1f8:	90 92 3b 0c 	sts	0x0C3B, r9
    a1fc:	80 92 3a 0c 	sts	0x0C3A, r8
      Yend_second_old = Yend_second;
    a200:	29 81       	ldd	r18, Y+1	; 0x01
    a202:	3a 81       	ldd	r19, Y+2	; 0x02
    a204:	30 93 4a 0b 	sts	0x0B4A, r19
    a208:	20 93 49 0b 	sts	0x0B49, r18
      Xcircle_second_old = Xcircle_second;
    a20c:	d0 92 2e 0c 	sts	0x0C2E, r13
    a210:	c0 92 2d 0c 	sts	0x0C2D, r12
      Ycircle_second_old = Ycircle_second;
    a214:	70 92 4c 0c 	sts	0x0C4C, r7
    a218:	60 92 4b 0c 	sts	0x0C4B, r6
    }

						// delete old hour and minute pin
  if((Xend_hour != Xend_hour_old) || (Yend_hour != Yend_hour_old) || (Xend_minute != Xend_minute_old) || (Yend_minute != Yend_minute_old))
    a21c:	40 91 2a 0c 	lds	r20, 0x0C2A
    a220:	50 91 2b 0c 	lds	r21, 0x0C2B
    a224:	89 89       	ldd	r24, Y+17	; 0x11
    a226:	9a 89       	ldd	r25, Y+18	; 0x12
    a228:	84 17       	cp	r24, r20
    a22a:	95 07       	cpc	r25, r21
    a22c:	e1 f4       	brne	.+56     	; 0xa266 <Draw_pin+0x672>
    a22e:	80 91 48 0c 	lds	r24, 0x0C48
    a232:	90 91 49 0c 	lds	r25, 0x0C49
    a236:	ef 85       	ldd	r30, Y+15	; 0x0f
    a238:	f8 89       	ldd	r31, Y+16	; 0x10
    a23a:	e8 17       	cp	r30, r24
    a23c:	f9 07       	cpc	r31, r25
    a23e:	99 f4       	brne	.+38     	; 0xa266 <Draw_pin+0x672>
    a240:	80 91 4d 0b 	lds	r24, 0x0B4D
    a244:	90 91 4e 0b 	lds	r25, 0x0B4E
    a248:	2b 8d       	ldd	r18, Y+27	; 0x1b
    a24a:	3c 8d       	ldd	r19, Y+28	; 0x1c
    a24c:	28 17       	cp	r18, r24
    a24e:	39 07       	cpc	r19, r25
    a250:	51 f4       	brne	.+20     	; 0xa266 <Draw_pin+0x672>
    a252:	80 91 46 0b 	lds	r24, 0x0B46
    a256:	90 91 47 0b 	lds	r25, 0x0B47
    a25a:	ed 81       	ldd	r30, Y+5	; 0x05
    a25c:	fe 81       	ldd	r31, Y+6	; 0x06
    a25e:	e8 17       	cp	r30, r24
    a260:	f9 07       	cpc	r31, r25
    a262:	09 f4       	brne	.+2      	; 0xa266 <Draw_pin+0x672>
    a264:	7e c1       	rjmp	.+764    	; 0xa562 <Draw_pin+0x96e>
    { Line_soft(Xstart1_hour_old,Ystart1_hour_old, Xend_hour_old,Yend_hour_old, Black);
    a266:	60 91 4f 0c 	lds	r22, 0x0C4F
    a26a:	70 91 50 0c 	lds	r23, 0x0C50
    a26e:	20 91 48 0c 	lds	r18, 0x0C48
    a272:	30 91 49 0c 	lds	r19, 0x0C49
    a276:	80 91 5a 0b 	lds	r24, 0x0B5A
    a27a:	90 91 5b 0b 	lds	r25, 0x0B5B
    a27e:	00 e0       	ldi	r16, 0x00	; 0
    a280:	10 e0       	ldi	r17, 0x00	; 0
    a282:	0e 94 e2 49 	call	0x93c4	; 0x93c4 <Line_soft>
      Line_soft(Xstart2_hour_old,Ystart2_hour_old, Xend_hour_old,Yend_hour_old, Black);
    a286:	60 91 43 0b 	lds	r22, 0x0B43
    a28a:	70 91 44 0b 	lds	r23, 0x0B44
    a28e:	40 91 2a 0c 	lds	r20, 0x0C2A
    a292:	50 91 2b 0c 	lds	r21, 0x0C2B
    a296:	20 91 48 0c 	lds	r18, 0x0C48
    a29a:	30 91 49 0c 	lds	r19, 0x0C49
    a29e:	80 91 4b 0b 	lds	r24, 0x0B4B
    a2a2:	90 91 4c 0b 	lds	r25, 0x0B4C
    a2a6:	0e 94 e2 49 	call	0x93c4	; 0x93c4 <Line_soft>

      Line_soft(Xstart1_hour_old+1,Ystart1_hour_old, Xend_hour_old,Yend_hour_old, Black);
    a2aa:	80 91 5a 0b 	lds	r24, 0x0B5A
    a2ae:	90 91 5b 0b 	lds	r25, 0x0B5B
    a2b2:	60 91 4f 0c 	lds	r22, 0x0C4F
    a2b6:	70 91 50 0c 	lds	r23, 0x0C50
    a2ba:	40 91 2a 0c 	lds	r20, 0x0C2A
    a2be:	50 91 2b 0c 	lds	r21, 0x0C2B
    a2c2:	20 91 48 0c 	lds	r18, 0x0C48
    a2c6:	30 91 49 0c 	lds	r19, 0x0C49
    a2ca:	01 96       	adiw	r24, 0x01	; 1
    a2cc:	0e 94 e2 49 	call	0x93c4	; 0x93c4 <Line_soft>
      Line_soft(Xstart1_hour_old-1,Ystart1_hour_old, Xend_hour_old,Yend_hour_old, Black);
    a2d0:	80 91 5a 0b 	lds	r24, 0x0B5A
    a2d4:	90 91 5b 0b 	lds	r25, 0x0B5B
    a2d8:	60 91 4f 0c 	lds	r22, 0x0C4F
    a2dc:	70 91 50 0c 	lds	r23, 0x0C50
    a2e0:	40 91 2a 0c 	lds	r20, 0x0C2A
    a2e4:	50 91 2b 0c 	lds	r21, 0x0C2B
    a2e8:	20 91 48 0c 	lds	r18, 0x0C48
    a2ec:	30 91 49 0c 	lds	r19, 0x0C49
    a2f0:	01 97       	sbiw	r24, 0x01	; 1
    a2f2:	0e 94 e2 49 	call	0x93c4	; 0x93c4 <Line_soft>
      Line_soft(Xstart2_hour_old+1,Ystart2_hour_old, Xend_hour_old,Yend_hour_old, Black);
    a2f6:	80 91 4b 0b 	lds	r24, 0x0B4B
    a2fa:	90 91 4c 0b 	lds	r25, 0x0B4C
    a2fe:	60 91 43 0b 	lds	r22, 0x0B43
    a302:	70 91 44 0b 	lds	r23, 0x0B44
    a306:	40 91 2a 0c 	lds	r20, 0x0C2A
    a30a:	50 91 2b 0c 	lds	r21, 0x0C2B
    a30e:	20 91 48 0c 	lds	r18, 0x0C48
    a312:	30 91 49 0c 	lds	r19, 0x0C49
    a316:	01 96       	adiw	r24, 0x01	; 1
    a318:	0e 94 e2 49 	call	0x93c4	; 0x93c4 <Line_soft>
      Line_soft(Xstart2_hour_old-1,Ystart2_hour_old, Xend_hour_old,Yend_hour_old, Black);
    a31c:	80 91 4b 0b 	lds	r24, 0x0B4B
    a320:	90 91 4c 0b 	lds	r25, 0x0B4C
    a324:	60 91 43 0b 	lds	r22, 0x0B43
    a328:	70 91 44 0b 	lds	r23, 0x0B44
    a32c:	40 91 2a 0c 	lds	r20, 0x0C2A
    a330:	50 91 2b 0c 	lds	r21, 0x0C2B
    a334:	20 91 48 0c 	lds	r18, 0x0C48
    a338:	30 91 49 0c 	lds	r19, 0x0C49
    a33c:	01 97       	sbiw	r24, 0x01	; 1
    a33e:	0e 94 e2 49 	call	0x93c4	; 0x93c4 <Line_soft>

      Line_soft(Xstart1_hour_old,Ystart1_hour_old+1, Xend_hour_old,Yend_hour_old, Black);
    a342:	60 91 4f 0c 	lds	r22, 0x0C4F
    a346:	70 91 50 0c 	lds	r23, 0x0C50
    a34a:	6f 5f       	subi	r22, 0xFF	; 255
    a34c:	7f 4f       	sbci	r23, 0xFF	; 255
    a34e:	40 91 2a 0c 	lds	r20, 0x0C2A
    a352:	50 91 2b 0c 	lds	r21, 0x0C2B
    a356:	20 91 48 0c 	lds	r18, 0x0C48
    a35a:	30 91 49 0c 	lds	r19, 0x0C49
    a35e:	80 91 5a 0b 	lds	r24, 0x0B5A
    a362:	90 91 5b 0b 	lds	r25, 0x0B5B
    a366:	0e 94 e2 49 	call	0x93c4	; 0x93c4 <Line_soft>
      Line_soft(Xstart1_hour_old,Ystart1_hour_old-1, Xend_hour_old,Yend_hour_old, Black);
    a36a:	60 91 4f 0c 	lds	r22, 0x0C4F
    a36e:	70 91 50 0c 	lds	r23, 0x0C50
    a372:	61 50       	subi	r22, 0x01	; 1
    a374:	70 40       	sbci	r23, 0x00	; 0
    a376:	40 91 2a 0c 	lds	r20, 0x0C2A
    a37a:	50 91 2b 0c 	lds	r21, 0x0C2B
    a37e:	20 91 48 0c 	lds	r18, 0x0C48
    a382:	30 91 49 0c 	lds	r19, 0x0C49
    a386:	80 91 5a 0b 	lds	r24, 0x0B5A
    a38a:	90 91 5b 0b 	lds	r25, 0x0B5B
    a38e:	0e 94 e2 49 	call	0x93c4	; 0x93c4 <Line_soft>
      Line_soft(Xstart2_hour_old,Ystart2_hour_old+1, Xend_hour_old,Yend_hour_old, Black);
    a392:	60 91 43 0b 	lds	r22, 0x0B43
    a396:	70 91 44 0b 	lds	r23, 0x0B44
    a39a:	6f 5f       	subi	r22, 0xFF	; 255
    a39c:	7f 4f       	sbci	r23, 0xFF	; 255
    a39e:	40 91 2a 0c 	lds	r20, 0x0C2A
    a3a2:	50 91 2b 0c 	lds	r21, 0x0C2B
    a3a6:	20 91 48 0c 	lds	r18, 0x0C48
    a3aa:	30 91 49 0c 	lds	r19, 0x0C49
    a3ae:	80 91 4b 0b 	lds	r24, 0x0B4B
    a3b2:	90 91 4c 0b 	lds	r25, 0x0B4C
    a3b6:	0e 94 e2 49 	call	0x93c4	; 0x93c4 <Line_soft>
      Line_soft(Xstart2_hour_old,Ystart2_hour_old-1, Xend_hour_old,Yend_hour_old, Black);
    a3ba:	60 91 43 0b 	lds	r22, 0x0B43
    a3be:	70 91 44 0b 	lds	r23, 0x0B44
    a3c2:	61 50       	subi	r22, 0x01	; 1
    a3c4:	70 40       	sbci	r23, 0x00	; 0
    a3c6:	40 91 2a 0c 	lds	r20, 0x0C2A
    a3ca:	50 91 2b 0c 	lds	r21, 0x0C2B
    a3ce:	20 91 48 0c 	lds	r18, 0x0C48
    a3d2:	30 91 49 0c 	lds	r19, 0x0C49
    a3d6:	80 91 4b 0b 	lds	r24, 0x0B4B
    a3da:	90 91 4c 0b 	lds	r25, 0x0B4C
    a3de:	0e 94 e2 49 	call	0x93c4	; 0x93c4 <Line_soft>

      Line_soft(Xstart1_minute_old,Ystart1_minute_old, Xend_minute_old,Yend_minute_old, Black);
    a3e2:	60 91 28 0c 	lds	r22, 0x0C28
    a3e6:	70 91 29 0c 	lds	r23, 0x0C29
    a3ea:	40 91 4d 0b 	lds	r20, 0x0B4D
    a3ee:	50 91 4e 0b 	lds	r21, 0x0B4E
    a3f2:	20 91 46 0b 	lds	r18, 0x0B46
    a3f6:	30 91 47 0b 	lds	r19, 0x0B47
    a3fa:	80 91 31 0c 	lds	r24, 0x0C31
    a3fe:	90 91 32 0c 	lds	r25, 0x0C32
    a402:	0e 94 e2 49 	call	0x93c4	; 0x93c4 <Line_soft>
      Line_soft(Xstart2_minute_old,Ystart2_minute_old, Xend_minute_old,Yend_minute_old, Black);
    a406:	60 91 46 0c 	lds	r22, 0x0C46
    a40a:	70 91 47 0c 	lds	r23, 0x0C47
    a40e:	40 91 4d 0b 	lds	r20, 0x0B4D
    a412:	50 91 4e 0b 	lds	r21, 0x0B4E
    a416:	20 91 46 0b 	lds	r18, 0x0B46
    a41a:	30 91 47 0b 	lds	r19, 0x0B47
    a41e:	80 91 42 0c 	lds	r24, 0x0C42
    a422:	90 91 43 0c 	lds	r25, 0x0C43
    a426:	0e 94 e2 49 	call	0x93c4	; 0x93c4 <Line_soft>

      Line_soft(Xstart1_minute_old+1,Ystart1_minute_old, Xend_minute_old,Yend_minute_old, Black);
    a42a:	80 91 31 0c 	lds	r24, 0x0C31
    a42e:	90 91 32 0c 	lds	r25, 0x0C32
    a432:	60 91 28 0c 	lds	r22, 0x0C28
    a436:	70 91 29 0c 	lds	r23, 0x0C29
    a43a:	40 91 4d 0b 	lds	r20, 0x0B4D
    a43e:	50 91 4e 0b 	lds	r21, 0x0B4E
    a442:	20 91 46 0b 	lds	r18, 0x0B46
    a446:	30 91 47 0b 	lds	r19, 0x0B47
    a44a:	01 96       	adiw	r24, 0x01	; 1
    a44c:	0e 94 e2 49 	call	0x93c4	; 0x93c4 <Line_soft>
      Line_soft(Xstart1_minute_old-1,Ystart1_minute_old, Xend_minute_old,Yend_minute_old, Black);
    a450:	80 91 31 0c 	lds	r24, 0x0C31
    a454:	90 91 32 0c 	lds	r25, 0x0C32
    a458:	60 91 28 0c 	lds	r22, 0x0C28
    a45c:	70 91 29 0c 	lds	r23, 0x0C29
    a460:	40 91 4d 0b 	lds	r20, 0x0B4D
    a464:	50 91 4e 0b 	lds	r21, 0x0B4E
    a468:	20 91 46 0b 	lds	r18, 0x0B46
    a46c:	30 91 47 0b 	lds	r19, 0x0B47
    a470:	01 97       	sbiw	r24, 0x01	; 1
    a472:	0e 94 e2 49 	call	0x93c4	; 0x93c4 <Line_soft>
      Line_soft(Xstart2_minute_old+1,Ystart2_minute_old, Xend_minute_old,Yend_minute_old, Black);
    a476:	80 91 42 0c 	lds	r24, 0x0C42
    a47a:	90 91 43 0c 	lds	r25, 0x0C43
    a47e:	60 91 46 0c 	lds	r22, 0x0C46
    a482:	70 91 47 0c 	lds	r23, 0x0C47
    a486:	40 91 4d 0b 	lds	r20, 0x0B4D
    a48a:	50 91 4e 0b 	lds	r21, 0x0B4E
    a48e:	20 91 46 0b 	lds	r18, 0x0B46
    a492:	30 91 47 0b 	lds	r19, 0x0B47
    a496:	01 96       	adiw	r24, 0x01	; 1
    a498:	0e 94 e2 49 	call	0x93c4	; 0x93c4 <Line_soft>
      Line_soft(Xstart2_minute_old-1,Ystart2_minute_old, Xend_minute_old,Yend_minute_old, Black);
    a49c:	80 91 42 0c 	lds	r24, 0x0C42
    a4a0:	90 91 43 0c 	lds	r25, 0x0C43
    a4a4:	60 91 46 0c 	lds	r22, 0x0C46
    a4a8:	70 91 47 0c 	lds	r23, 0x0C47
    a4ac:	40 91 4d 0b 	lds	r20, 0x0B4D
    a4b0:	50 91 4e 0b 	lds	r21, 0x0B4E
    a4b4:	20 91 46 0b 	lds	r18, 0x0B46
    a4b8:	30 91 47 0b 	lds	r19, 0x0B47
    a4bc:	01 97       	sbiw	r24, 0x01	; 1
    a4be:	0e 94 e2 49 	call	0x93c4	; 0x93c4 <Line_soft>

      Line_soft(Xstart1_minute_old,Ystart1_minute_old+1, Xend_minute_old,Yend_minute_old, Black);
    a4c2:	60 91 28 0c 	lds	r22, 0x0C28
    a4c6:	70 91 29 0c 	lds	r23, 0x0C29
    a4ca:	6f 5f       	subi	r22, 0xFF	; 255
    a4cc:	7f 4f       	sbci	r23, 0xFF	; 255
    a4ce:	40 91 4d 0b 	lds	r20, 0x0B4D
    a4d2:	50 91 4e 0b 	lds	r21, 0x0B4E
    a4d6:	20 91 46 0b 	lds	r18, 0x0B46
    a4da:	30 91 47 0b 	lds	r19, 0x0B47
    a4de:	80 91 31 0c 	lds	r24, 0x0C31
    a4e2:	90 91 32 0c 	lds	r25, 0x0C32
    a4e6:	0e 94 e2 49 	call	0x93c4	; 0x93c4 <Line_soft>
      Line_soft(Xstart1_minute_old,Ystart1_minute_old-1, Xend_minute_old,Yend_minute_old, Black);
    a4ea:	60 91 28 0c 	lds	r22, 0x0C28
    a4ee:	70 91 29 0c 	lds	r23, 0x0C29
    a4f2:	61 50       	subi	r22, 0x01	; 1
    a4f4:	70 40       	sbci	r23, 0x00	; 0
    a4f6:	40 91 4d 0b 	lds	r20, 0x0B4D
    a4fa:	50 91 4e 0b 	lds	r21, 0x0B4E
    a4fe:	20 91 46 0b 	lds	r18, 0x0B46
    a502:	30 91 47 0b 	lds	r19, 0x0B47
    a506:	80 91 31 0c 	lds	r24, 0x0C31
    a50a:	90 91 32 0c 	lds	r25, 0x0C32
    a50e:	0e 94 e2 49 	call	0x93c4	; 0x93c4 <Line_soft>
      Line_soft(Xstart2_minute_old,Ystart2_minute_old+1, Xend_minute_old,Yend_minute_old, Black);
    a512:	60 91 46 0c 	lds	r22, 0x0C46
    a516:	70 91 47 0c 	lds	r23, 0x0C47
    a51a:	6f 5f       	subi	r22, 0xFF	; 255
    a51c:	7f 4f       	sbci	r23, 0xFF	; 255
    a51e:	40 91 4d 0b 	lds	r20, 0x0B4D
    a522:	50 91 4e 0b 	lds	r21, 0x0B4E
    a526:	20 91 46 0b 	lds	r18, 0x0B46
    a52a:	30 91 47 0b 	lds	r19, 0x0B47
    a52e:	80 91 42 0c 	lds	r24, 0x0C42
    a532:	90 91 43 0c 	lds	r25, 0x0C43
    a536:	0e 94 e2 49 	call	0x93c4	; 0x93c4 <Line_soft>
      Line_soft(Xstart2_minute_old,Ystart2_minute_old-1, Xend_minute_old,Yend_minute_old, Black);
    a53a:	60 91 46 0c 	lds	r22, 0x0C46
    a53e:	70 91 47 0c 	lds	r23, 0x0C47
    a542:	61 50       	subi	r22, 0x01	; 1
    a544:	70 40       	sbci	r23, 0x00	; 0
    a546:	40 91 4d 0b 	lds	r20, 0x0B4D
    a54a:	50 91 4e 0b 	lds	r21, 0x0B4E
    a54e:	20 91 46 0b 	lds	r18, 0x0B46
    a552:	30 91 47 0b 	lds	r19, 0x0B47
    a556:	80 91 42 0c 	lds	r24, 0x0C42
    a55a:	90 91 43 0c 	lds	r25, 0x0C43
    a55e:	0e 94 e2 49 	call	0x93c4	; 0x93c4 <Line_soft>
    a562:	03 e0       	ldi	r16, 0x03	; 3
    a564:	10 e0       	ldi	r17, 0x00	; 0
    }

  for(i = 3; i > 0; i--)			// delete old second pin
    Circle(Xcircle_second_old,Ycircle_second_old, i, Black);
    a566:	60 91 4b 0c 	lds	r22, 0x0C4B
    a56a:	70 91 4c 0c 	lds	r23, 0x0C4C
    a56e:	80 91 2d 0c 	lds	r24, 0x0C2D
    a572:	90 91 2e 0c 	lds	r25, 0x0C2E
    a576:	a8 01       	movw	r20, r16
    a578:	20 e0       	ldi	r18, 0x00	; 0
    a57a:	30 e0       	ldi	r19, 0x00	; 0
    a57c:	0e 94 e1 4c 	call	0x99c2	; 0x99c2 <Circle>
      Line_soft(Xstart1_minute_old,Ystart1_minute_old-1, Xend_minute_old,Yend_minute_old, Black);
      Line_soft(Xstart2_minute_old,Ystart2_minute_old+1, Xend_minute_old,Yend_minute_old, Black);
      Line_soft(Xstart2_minute_old,Ystart2_minute_old-1, Xend_minute_old,Yend_minute_old, Black);
    }

  for(i = 3; i > 0; i--)			// delete old second pin
    a580:	01 50       	subi	r16, 0x01	; 1
    a582:	10 40       	sbci	r17, 0x00	; 0
    a584:	81 f7       	brne	.-32     	; 0xa566 <Draw_pin+0x972>
    Circle(Xcircle_second_old,Ycircle_second_old, i, Black);
  Line_soft(Xstart_second_old,Ystart_second_old, Xend_second_old,Yend_second_old, Black);
    a586:	60 91 34 0c 	lds	r22, 0x0C34
    a58a:	70 91 35 0c 	lds	r23, 0x0C35
    a58e:	40 91 3a 0c 	lds	r20, 0x0C3A
    a592:	50 91 3b 0c 	lds	r21, 0x0C3B
    a596:	20 91 49 0b 	lds	r18, 0x0B49
    a59a:	30 91 4a 0b 	lds	r19, 0x0B4A
    a59e:	80 91 40 0c 	lds	r24, 0x0C40
    a5a2:	90 91 41 0c 	lds	r25, 0x0C41
    a5a6:	00 e0       	ldi	r16, 0x00	; 0
    a5a8:	10 e0       	ldi	r17, 0x00	; 0
    a5aa:	0e 94 e2 49 	call	0x93c4	; 0x93c4 <Line_soft>
  Ycharacter = yChar;
}

void TFT_color(U16 colorfore, U16 colorback)	/* set foreground and background color */
{
  foreground = colorfore;
    a5ae:	80 ee       	ldi	r24, 0xE0	; 224
    a5b0:	97 e0       	ldi	r25, 0x07	; 7
    a5b2:	90 93 50 0b 	sts	0x0B50, r25
    a5b6:	80 93 4f 0b 	sts	0x0B4F, r24
  background = colorback;
    a5ba:	10 92 56 0b 	sts	0x0B56, r1
    a5be:	10 92 55 0b 	sts	0x0B55, r1

  TFT_color(Green,Black);			// display hour number
  TFT_English_pixel(112,54, '1'); TFT_English_pixel(120,54, '2');
    a5c2:	80 e7       	ldi	r24, 0x70	; 112
    a5c4:	90 e0       	ldi	r25, 0x00	; 0
    a5c6:	66 e3       	ldi	r22, 0x36	; 54
    a5c8:	70 e0       	ldi	r23, 0x00	; 0
    a5ca:	41 e3       	ldi	r20, 0x31	; 49
    a5cc:	0e 94 80 4a 	call	0x9500	; 0x9500 <TFT_English_pixel>
    a5d0:	88 e7       	ldi	r24, 0x78	; 120
    a5d2:	90 e0       	ldi	r25, 0x00	; 0
    a5d4:	66 e3       	ldi	r22, 0x36	; 54
    a5d6:	70 e0       	ldi	r23, 0x00	; 0
    a5d8:	42 e3       	ldi	r20, 0x32	; 50
    a5da:	0e 94 80 4a 	call	0x9500	; 0x9500 <TFT_English_pixel>
  TFT_English_pixel(62,68, '1'); TFT_English_pixel(70,68, '1');
    a5de:	8e e3       	ldi	r24, 0x3E	; 62
    a5e0:	90 e0       	ldi	r25, 0x00	; 0
    a5e2:	64 e4       	ldi	r22, 0x44	; 68
    a5e4:	70 e0       	ldi	r23, 0x00	; 0
    a5e6:	41 e3       	ldi	r20, 0x31	; 49
    a5e8:	0e 94 80 4a 	call	0x9500	; 0x9500 <TFT_English_pixel>
    a5ec:	86 e4       	ldi	r24, 0x46	; 70
    a5ee:	90 e0       	ldi	r25, 0x00	; 0
    a5f0:	64 e4       	ldi	r22, 0x44	; 68
    a5f2:	70 e0       	ldi	r23, 0x00	; 0
    a5f4:	41 e3       	ldi	r20, 0x31	; 49
    a5f6:	0e 94 80 4a 	call	0x9500	; 0x9500 <TFT_English_pixel>
  TFT_English_pixel(164,68, '1');
    a5fa:	84 ea       	ldi	r24, 0xA4	; 164
    a5fc:	90 e0       	ldi	r25, 0x00	; 0
    a5fe:	64 e4       	ldi	r22, 0x44	; 68
    a600:	70 e0       	ldi	r23, 0x00	; 0
    a602:	41 e3       	ldi	r20, 0x31	; 49
    a604:	0e 94 80 4a 	call	0x9500	; 0x9500 <TFT_English_pixel>
  TFT_English_pixel(28,104, '1'); TFT_English_pixel(36,104, '0');
    a608:	8c e1       	ldi	r24, 0x1C	; 28
    a60a:	90 e0       	ldi	r25, 0x00	; 0
    a60c:	68 e6       	ldi	r22, 0x68	; 104
    a60e:	70 e0       	ldi	r23, 0x00	; 0
    a610:	41 e3       	ldi	r20, 0x31	; 49
    a612:	0e 94 80 4a 	call	0x9500	; 0x9500 <TFT_English_pixel>
    a616:	84 e2       	ldi	r24, 0x24	; 36
    a618:	90 e0       	ldi	r25, 0x00	; 0
    a61a:	68 e6       	ldi	r22, 0x68	; 104
    a61c:	70 e0       	ldi	r23, 0x00	; 0
    a61e:	40 e3       	ldi	r20, 0x30	; 48
    a620:	0e 94 80 4a 	call	0x9500	; 0x9500 <TFT_English_pixel>
  TFT_English_pixel(202,104, '2');
    a624:	8a ec       	ldi	r24, 0xCA	; 202
    a626:	90 e0       	ldi	r25, 0x00	; 0
    a628:	68 e6       	ldi	r22, 0x68	; 104
    a62a:	70 e0       	ldi	r23, 0x00	; 0
    a62c:	42 e3       	ldi	r20, 0x32	; 50
    a62e:	0e 94 80 4a 	call	0x9500	; 0x9500 <TFT_English_pixel>
  TFT_English_pixel(18,152, '9');
    a632:	82 e1       	ldi	r24, 0x12	; 18
    a634:	90 e0       	ldi	r25, 0x00	; 0
    a636:	68 e9       	ldi	r22, 0x98	; 152
    a638:	70 e0       	ldi	r23, 0x00	; 0
    a63a:	49 e3       	ldi	r20, 0x39	; 57
    a63c:	0e 94 80 4a 	call	0x9500	; 0x9500 <TFT_English_pixel>
  TFT_English_pixel(216,152, '3');
    a640:	88 ed       	ldi	r24, 0xD8	; 216
    a642:	90 e0       	ldi	r25, 0x00	; 0
    a644:	68 e9       	ldi	r22, 0x98	; 152
    a646:	70 e0       	ldi	r23, 0x00	; 0
    a648:	43 e3       	ldi	r20, 0x33	; 51
    a64a:	0e 94 80 4a 	call	0x9500	; 0x9500 <TFT_English_pixel>
  TFT_English_pixel(32,202, '8');
    a64e:	80 e2       	ldi	r24, 0x20	; 32
    a650:	90 e0       	ldi	r25, 0x00	; 0
    a652:	6a ec       	ldi	r22, 0xCA	; 202
    a654:	70 e0       	ldi	r23, 0x00	; 0
    a656:	48 e3       	ldi	r20, 0x38	; 56
    a658:	0e 94 80 4a 	call	0x9500	; 0x9500 <TFT_English_pixel>
  TFT_English_pixel(202,202, '4');
    a65c:	8a ec       	ldi	r24, 0xCA	; 202
    a65e:	90 e0       	ldi	r25, 0x00	; 0
    a660:	6a ec       	ldi	r22, 0xCA	; 202
    a662:	70 e0       	ldi	r23, 0x00	; 0
    a664:	44 e3       	ldi	r20, 0x34	; 52
    a666:	0e 94 80 4a 	call	0x9500	; 0x9500 <TFT_English_pixel>
  TFT_English_pixel(68,238, '7');
    a66a:	84 e4       	ldi	r24, 0x44	; 68
    a66c:	90 e0       	ldi	r25, 0x00	; 0
    a66e:	6e ee       	ldi	r22, 0xEE	; 238
    a670:	70 e0       	ldi	r23, 0x00	; 0
    a672:	47 e3       	ldi	r20, 0x37	; 55
    a674:	0e 94 80 4a 	call	0x9500	; 0x9500 <TFT_English_pixel>
  TFT_English_pixel(164,238, '5');
    a678:	84 ea       	ldi	r24, 0xA4	; 164
    a67a:	90 e0       	ldi	r25, 0x00	; 0
    a67c:	6e ee       	ldi	r22, 0xEE	; 238
    a67e:	70 e0       	ldi	r23, 0x00	; 0
    a680:	45 e3       	ldi	r20, 0x35	; 53
    a682:	0e 94 80 4a 	call	0x9500	; 0x9500 <TFT_English_pixel>
  TFT_English_pixel(117,252, '6');
    a686:	85 e7       	ldi	r24, 0x75	; 117
    a688:	90 e0       	ldi	r25, 0x00	; 0
    a68a:	6c ef       	ldi	r22, 0xFC	; 252
    a68c:	70 e0       	ldi	r23, 0x00	; 0
    a68e:	46 e3       	ldi	r20, 0x36	; 54
    a690:	0e 94 80 4a 	call	0x9500	; 0x9500 <TFT_English_pixel>

  TFT_string(8,25, Silver,Black, "20");		// display calendar
    a694:	88 e0       	ldi	r24, 0x08	; 8
    a696:	69 e1       	ldi	r22, 0x19	; 25
    a698:	48 e1       	ldi	r20, 0x18	; 24
    a69a:	56 ec       	ldi	r21, 0xC6	; 198
    a69c:	20 e0       	ldi	r18, 0x00	; 0
    a69e:	30 e0       	ldi	r19, 0x00	; 0
    a6a0:	04 e3       	ldi	r16, 0x34	; 52
    a6a2:	1a e0       	ldi	r17, 0x0A	; 10
    a6a4:	0e 94 28 2f 	call	0x5e50	; 0x5e50 <TFT_string>
  TFT_hexadecimal(year,2);
    a6a8:	60 91 3f 0c 	lds	r22, 0x0C3F
    a6ac:	70 e0       	ldi	r23, 0x00	; 0
    a6ae:	80 e0       	ldi	r24, 0x00	; 0
    a6b0:	90 e0       	ldi	r25, 0x00	; 0
    a6b2:	42 e0       	ldi	r20, 0x02	; 2
    a6b4:	0e 94 57 30 	call	0x60ae	; 0x60ae <TFT_hexadecimal>
  TFT_English('/');
    a6b8:	8f e2       	ldi	r24, 0x2F	; 47
    a6ba:	0e 94 3e 2b 	call	0x567c	; 0x567c <TFT_English>
  TFT_hexadecimal(month,2);
    a6be:	60 91 5c 0b 	lds	r22, 0x0B5C
    a6c2:	70 e0       	ldi	r23, 0x00	; 0
    a6c4:	80 e0       	ldi	r24, 0x00	; 0
    a6c6:	90 e0       	ldi	r25, 0x00	; 0
    a6c8:	42 e0       	ldi	r20, 0x02	; 2
    a6ca:	0e 94 57 30 	call	0x60ae	; 0x60ae <TFT_hexadecimal>
  TFT_English('/');
    a6ce:	8f e2       	ldi	r24, 0x2F	; 47
    a6d0:	0e 94 3e 2b 	call	0x567c	; 0x567c <TFT_English>
  TFT_hexadecimal(date,2);
    a6d4:	60 91 45 0c 	lds	r22, 0x0C45
    a6d8:	70 e0       	ldi	r23, 0x00	; 0
    a6da:	80 e0       	ldi	r24, 0x00	; 0
    a6dc:	90 e0       	ldi	r25, 0x00	; 0
    a6de:	42 e0       	ldi	r20, 0x02	; 2
    a6e0:	0e 94 57 30 	call	0x60ae	; 0x60ae <TFT_hexadecimal>
  if(weekday == 0x01)      TFT_string(18,25, Silver,Black, "()");
    a6e4:	80 91 4e 0c 	lds	r24, 0x0C4E
    a6e8:	81 30       	cpi	r24, 0x01	; 1
    a6ea:	49 f4       	brne	.+18     	; 0xa6fe <Draw_pin+0xb0a>
    a6ec:	82 e1       	ldi	r24, 0x12	; 18
    a6ee:	69 e1       	ldi	r22, 0x19	; 25
    a6f0:	48 e1       	ldi	r20, 0x18	; 24
    a6f2:	56 ec       	ldi	r21, 0xC6	; 198
    a6f4:	20 e0       	ldi	r18, 0x00	; 0
    a6f6:	30 e0       	ldi	r19, 0x00	; 0
    a6f8:	07 e3       	ldi	r16, 0x37	; 55
    a6fa:	1a e0       	ldi	r17, 0x0A	; 10
    a6fc:	41 c0       	rjmp	.+130    	; 0xa780 <Draw_pin+0xb8c>
  else if(weekday == 0x02) TFT_string(18,25, Silver,Black, "()");
    a6fe:	82 30       	cpi	r24, 0x02	; 2
    a700:	49 f4       	brne	.+18     	; 0xa714 <Draw_pin+0xb20>
    a702:	82 e1       	ldi	r24, 0x12	; 18
    a704:	69 e1       	ldi	r22, 0x19	; 25
    a706:	48 e1       	ldi	r20, 0x18	; 24
    a708:	56 ec       	ldi	r21, 0xC6	; 198
    a70a:	20 e0       	ldi	r18, 0x00	; 0
    a70c:	30 e0       	ldi	r19, 0x00	; 0
    a70e:	0c e3       	ldi	r16, 0x3C	; 60
    a710:	1a e0       	ldi	r17, 0x0A	; 10
    a712:	36 c0       	rjmp	.+108    	; 0xa780 <Draw_pin+0xb8c>
  else if(weekday == 0x03) TFT_string(18,25, Silver,Black, "()");
    a714:	83 30       	cpi	r24, 0x03	; 3
    a716:	49 f4       	brne	.+18     	; 0xa72a <Draw_pin+0xb36>
    a718:	82 e1       	ldi	r24, 0x12	; 18
    a71a:	69 e1       	ldi	r22, 0x19	; 25
    a71c:	48 e1       	ldi	r20, 0x18	; 24
    a71e:	56 ec       	ldi	r21, 0xC6	; 198
    a720:	20 e0       	ldi	r18, 0x00	; 0
    a722:	30 e0       	ldi	r19, 0x00	; 0
    a724:	01 e4       	ldi	r16, 0x41	; 65
    a726:	1a e0       	ldi	r17, 0x0A	; 10
    a728:	2b c0       	rjmp	.+86     	; 0xa780 <Draw_pin+0xb8c>
  else if(weekday == 0x04) TFT_string(18,25, Silver,Black, "()");
    a72a:	84 30       	cpi	r24, 0x04	; 4
    a72c:	49 f4       	brne	.+18     	; 0xa740 <Draw_pin+0xb4c>
    a72e:	82 e1       	ldi	r24, 0x12	; 18
    a730:	69 e1       	ldi	r22, 0x19	; 25
    a732:	48 e1       	ldi	r20, 0x18	; 24
    a734:	56 ec       	ldi	r21, 0xC6	; 198
    a736:	20 e0       	ldi	r18, 0x00	; 0
    a738:	30 e0       	ldi	r19, 0x00	; 0
    a73a:	06 e4       	ldi	r16, 0x46	; 70
    a73c:	1a e0       	ldi	r17, 0x0A	; 10
    a73e:	20 c0       	rjmp	.+64     	; 0xa780 <Draw_pin+0xb8c>
  else if(weekday == 0x05) TFT_string(18,25, Silver,Black, "()");
    a740:	85 30       	cpi	r24, 0x05	; 5
    a742:	49 f4       	brne	.+18     	; 0xa756 <Draw_pin+0xb62>
    a744:	82 e1       	ldi	r24, 0x12	; 18
    a746:	69 e1       	ldi	r22, 0x19	; 25
    a748:	48 e1       	ldi	r20, 0x18	; 24
    a74a:	56 ec       	ldi	r21, 0xC6	; 198
    a74c:	20 e0       	ldi	r18, 0x00	; 0
    a74e:	30 e0       	ldi	r19, 0x00	; 0
    a750:	0b e4       	ldi	r16, 0x4B	; 75
    a752:	1a e0       	ldi	r17, 0x0A	; 10
    a754:	15 c0       	rjmp	.+42     	; 0xa780 <Draw_pin+0xb8c>
  else if(weekday == 0x06) TFT_string(18,25, Silver,Black, "()");
    a756:	86 30       	cpi	r24, 0x06	; 6
    a758:	49 f4       	brne	.+18     	; 0xa76c <Draw_pin+0xb78>
    a75a:	82 e1       	ldi	r24, 0x12	; 18
    a75c:	69 e1       	ldi	r22, 0x19	; 25
    a75e:	48 e1       	ldi	r20, 0x18	; 24
    a760:	56 ec       	ldi	r21, 0xC6	; 198
    a762:	20 e0       	ldi	r18, 0x00	; 0
    a764:	30 e0       	ldi	r19, 0x00	; 0
    a766:	00 e5       	ldi	r16, 0x50	; 80
    a768:	1a e0       	ldi	r17, 0x0A	; 10
    a76a:	0a c0       	rjmp	.+20     	; 0xa780 <Draw_pin+0xb8c>
  else if(weekday == 0x07) TFT_string(18,25, Silver,Black, "()");
    a76c:	87 30       	cpi	r24, 0x07	; 7
    a76e:	51 f4       	brne	.+20     	; 0xa784 <Draw_pin+0xb90>
    a770:	82 e1       	ldi	r24, 0x12	; 18
    a772:	69 e1       	ldi	r22, 0x19	; 25
    a774:	48 e1       	ldi	r20, 0x18	; 24
    a776:	56 ec       	ldi	r21, 0xC6	; 198
    a778:	20 e0       	ldi	r18, 0x00	; 0
    a77a:	30 e0       	ldi	r19, 0x00	; 0
    a77c:	05 e5       	ldi	r16, 0x55	; 85
    a77e:	1a e0       	ldi	r17, 0x0A	; 10
    a780:	0e 94 28 2f 	call	0x5e50	; 0x5e50 <TFT_string>

  Rectangle(60,196, 180,218, Green);
    a784:	8c e3       	ldi	r24, 0x3C	; 60
    a786:	90 e0       	ldi	r25, 0x00	; 0
    a788:	64 ec       	ldi	r22, 0xC4	; 196
    a78a:	70 e0       	ldi	r23, 0x00	; 0
    a78c:	44 eb       	ldi	r20, 0xB4	; 180
    a78e:	50 e0       	ldi	r21, 0x00	; 0
    a790:	2a ed       	ldi	r18, 0xDA	; 218
    a792:	30 e0       	ldi	r19, 0x00	; 0
    a794:	00 ee       	ldi	r16, 0xE0	; 224
    a796:	17 e0       	ldi	r17, 0x07	; 7
    a798:	0e 94 14 33 	call	0x6628	; 0x6628 <Rectangle>

  Line_soft(Xstart1_hour,Ystart1_hour, Xend_hour, Yend_hour, Magenta); // draw new hour pin
    a79c:	89 8d       	ldd	r24, Y+25	; 0x19
    a79e:	9a 8d       	ldd	r25, Y+26	; 0x1a
    a7a0:	6f 89       	ldd	r22, Y+23	; 0x17
    a7a2:	78 8d       	ldd	r23, Y+24	; 0x18
    a7a4:	49 89       	ldd	r20, Y+17	; 0x11
    a7a6:	5a 89       	ldd	r21, Y+18	; 0x12
    a7a8:	2f 85       	ldd	r18, Y+15	; 0x0f
    a7aa:	38 89       	ldd	r19, Y+16	; 0x10
    a7ac:	0f e1       	ldi	r16, 0x1F	; 31
    a7ae:	18 ef       	ldi	r17, 0xF8	; 248
    a7b0:	0e 94 e2 49 	call	0x93c4	; 0x93c4 <Line_soft>
  Line_soft(Xstart2_hour,Ystart2_hour, Xend_hour, Yend_hour, Magenta);
    a7b4:	8d 89       	ldd	r24, Y+21	; 0x15
    a7b6:	9e 89       	ldd	r25, Y+22	; 0x16
    a7b8:	6b 89       	ldd	r22, Y+19	; 0x13
    a7ba:	7c 89       	ldd	r23, Y+20	; 0x14
    a7bc:	49 89       	ldd	r20, Y+17	; 0x11
    a7be:	5a 89       	ldd	r21, Y+18	; 0x12
    a7c0:	2f 85       	ldd	r18, Y+15	; 0x0f
    a7c2:	38 89       	ldd	r19, Y+16	; 0x10
    a7c4:	0e 94 e2 49 	call	0x93c4	; 0x93c4 <Line_soft>

  Line_soft(Xstart1_minute,Ystart1_minute, Xend_minute,Yend_minute, Cyan); // draw new minute pin
    a7c8:	8d 85       	ldd	r24, Y+13	; 0x0d
    a7ca:	9e 85       	ldd	r25, Y+14	; 0x0e
    a7cc:	6b 85       	ldd	r22, Y+11	; 0x0b
    a7ce:	7c 85       	ldd	r23, Y+12	; 0x0c
    a7d0:	4b 8d       	ldd	r20, Y+27	; 0x1b
    a7d2:	5c 8d       	ldd	r21, Y+28	; 0x1c
    a7d4:	2d 81       	ldd	r18, Y+5	; 0x05
    a7d6:	3e 81       	ldd	r19, Y+6	; 0x06
    a7d8:	0f ef       	ldi	r16, 0xFF	; 255
    a7da:	17 e0       	ldi	r17, 0x07	; 7
    a7dc:	0e 94 e2 49 	call	0x93c4	; 0x93c4 <Line_soft>
  Line_soft(Xstart2_minute,Ystart2_minute, Xend_minute,Yend_minute, Cyan);
    a7e0:	89 85       	ldd	r24, Y+9	; 0x09
    a7e2:	9a 85       	ldd	r25, Y+10	; 0x0a
    a7e4:	6f 81       	ldd	r22, Y+7	; 0x07
    a7e6:	78 85       	ldd	r23, Y+8	; 0x08
    a7e8:	4b 8d       	ldd	r20, Y+27	; 0x1b
    a7ea:	5c 8d       	ldd	r21, Y+28	; 0x1c
    a7ec:	2d 81       	ldd	r18, Y+5	; 0x05
    a7ee:	3e 81       	ldd	r19, Y+6	; 0x06
    a7f0:	0e 94 e2 49 	call	0x93c4	; 0x93c4 <Line_soft>
    a7f4:	03 e0       	ldi	r16, 0x03	; 3
    a7f6:	10 e0       	ldi	r17, 0x00	; 0

  for(i = 3; i > 0; i--)			// draw new second pin
    Circle(Xcircle_second,Ycircle_second, i, Yellow);
    a7f8:	c6 01       	movw	r24, r12
    a7fa:	b3 01       	movw	r22, r6
    a7fc:	a8 01       	movw	r20, r16
    a7fe:	20 ee       	ldi	r18, 0xE0	; 224
    a800:	3f ef       	ldi	r19, 0xFF	; 255
    a802:	0e 94 e1 4c 	call	0x99c2	; 0x99c2 <Circle>
  Line_soft(Xstart2_hour,Ystart2_hour, Xend_hour, Yend_hour, Magenta);

  Line_soft(Xstart1_minute,Ystart1_minute, Xend_minute,Yend_minute, Cyan); // draw new minute pin
  Line_soft(Xstart2_minute,Ystart2_minute, Xend_minute,Yend_minute, Cyan);

  for(i = 3; i > 0; i--)			// draw new second pin
    a806:	01 50       	subi	r16, 0x01	; 1
    a808:	10 40       	sbci	r17, 0x00	; 0
    a80a:	b1 f7       	brne	.-20     	; 0xa7f8 <Draw_pin+0xc04>
    Circle(Xcircle_second,Ycircle_second, i, Yellow);
  Line_soft (Xstart_second,Ystart_second, Xend_second,Yend_second, Yellow);
    a80c:	c1 01       	movw	r24, r2
    a80e:	6b 81       	ldd	r22, Y+3	; 0x03
    a810:	7c 81       	ldd	r23, Y+4	; 0x04
    a812:	a4 01       	movw	r20, r8
    a814:	29 81       	ldd	r18, Y+1	; 0x01
    a816:	3a 81       	ldd	r19, Y+2	; 0x02
    a818:	00 ee       	ldi	r16, 0xE0	; 224
    a81a:	1f ef       	ldi	r17, 0xFF	; 255
    a81c:	0e 94 e2 49 	call	0x93c4	; 0x93c4 <Line_soft>

  Xstart1_hour_old = Xstart1_hour;		// store old value
    a820:	29 8d       	ldd	r18, Y+25	; 0x19
    a822:	3a 8d       	ldd	r19, Y+26	; 0x1a
    a824:	30 93 5b 0b 	sts	0x0B5B, r19
    a828:	20 93 5a 0b 	sts	0x0B5A, r18
  Ystart1_hour_old = Ystart1_hour;
    a82c:	8f 89       	ldd	r24, Y+23	; 0x17
    a82e:	98 8d       	ldd	r25, Y+24	; 0x18
    a830:	90 93 50 0c 	sts	0x0C50, r25
    a834:	80 93 4f 0c 	sts	0x0C4F, r24
  Xstart2_hour_old = Xstart2_hour;
    a838:	ed 89       	ldd	r30, Y+21	; 0x15
    a83a:	fe 89       	ldd	r31, Y+22	; 0x16
    a83c:	f0 93 4c 0b 	sts	0x0B4C, r31
    a840:	e0 93 4b 0b 	sts	0x0B4B, r30
  Ystart2_hour_old = Ystart2_hour;
    a844:	2b 89       	ldd	r18, Y+19	; 0x13
    a846:	3c 89       	ldd	r19, Y+20	; 0x14
    a848:	30 93 44 0b 	sts	0x0B44, r19
    a84c:	20 93 43 0b 	sts	0x0B43, r18
  Xend_hour_old = Xend_hour;
    a850:	89 89       	ldd	r24, Y+17	; 0x11
    a852:	9a 89       	ldd	r25, Y+18	; 0x12
    a854:	90 93 2b 0c 	sts	0x0C2B, r25
    a858:	80 93 2a 0c 	sts	0x0C2A, r24
  Yend_hour_old = Yend_hour;
    a85c:	ef 85       	ldd	r30, Y+15	; 0x0f
    a85e:	f8 89       	ldd	r31, Y+16	; 0x10
    a860:	f0 93 49 0c 	sts	0x0C49, r31
    a864:	e0 93 48 0c 	sts	0x0C48, r30

  Xstart1_minute_old = Xstart1_minute;
    a868:	2d 85       	ldd	r18, Y+13	; 0x0d
    a86a:	3e 85       	ldd	r19, Y+14	; 0x0e
    a86c:	30 93 32 0c 	sts	0x0C32, r19
    a870:	20 93 31 0c 	sts	0x0C31, r18
  Ystart1_minute_old = Ystart1_minute;
    a874:	8b 85       	ldd	r24, Y+11	; 0x0b
    a876:	9c 85       	ldd	r25, Y+12	; 0x0c
    a878:	90 93 29 0c 	sts	0x0C29, r25
    a87c:	80 93 28 0c 	sts	0x0C28, r24
  Xstart2_minute_old = Xstart2_minute;
    a880:	e9 85       	ldd	r30, Y+9	; 0x09
    a882:	fa 85       	ldd	r31, Y+10	; 0x0a
    a884:	f0 93 43 0c 	sts	0x0C43, r31
    a888:	e0 93 42 0c 	sts	0x0C42, r30
  Ystart2_minute_old = Ystart2_minute;
    a88c:	2f 81       	ldd	r18, Y+7	; 0x07
    a88e:	38 85       	ldd	r19, Y+8	; 0x08
    a890:	30 93 47 0c 	sts	0x0C47, r19
    a894:	20 93 46 0c 	sts	0x0C46, r18
  Xend_minute_old = Xend_minute;
    a898:	8b 8d       	ldd	r24, Y+27	; 0x1b
    a89a:	9c 8d       	ldd	r25, Y+28	; 0x1c
    a89c:	90 93 4e 0b 	sts	0x0B4E, r25
    a8a0:	80 93 4d 0b 	sts	0x0B4D, r24
  Yend_minute_old = Yend_minute;
    a8a4:	ed 81       	ldd	r30, Y+5	; 0x05
    a8a6:	fe 81       	ldd	r31, Y+6	; 0x06
    a8a8:	f0 93 47 0b 	sts	0x0B47, r31
    a8ac:	e0 93 46 0b 	sts	0x0B46, r30

  Xstart_second_old = Xstart_second;
    a8b0:	30 92 41 0c 	sts	0x0C41, r3
    a8b4:	20 92 40 0c 	sts	0x0C40, r2
  Ystart_second_old = Ystart_second;
    a8b8:	2b 81       	ldd	r18, Y+3	; 0x03
    a8ba:	3c 81       	ldd	r19, Y+4	; 0x04
    a8bc:	30 93 35 0c 	sts	0x0C35, r19
    a8c0:	20 93 34 0c 	sts	0x0C34, r18
  Xend_second_old = Xend_second;
    a8c4:	90 92 3b 0c 	sts	0x0C3B, r9
    a8c8:	80 92 3a 0c 	sts	0x0C3A, r8
  Yend_second_old = Yend_second;
    a8cc:	89 81       	ldd	r24, Y+1	; 0x01
    a8ce:	9a 81       	ldd	r25, Y+2	; 0x02
    a8d0:	90 93 4a 0b 	sts	0x0B4A, r25
    a8d4:	80 93 49 0b 	sts	0x0B49, r24
  Xcircle_second_old = Xcircle_second;
    a8d8:	d0 92 2e 0c 	sts	0x0C2E, r13
    a8dc:	c0 92 2d 0c 	sts	0x0C2D, r12
  Ycircle_second_old = Ycircle_second;
    a8e0:	70 92 4c 0c 	sts	0x0C4C, r7
    a8e4:	60 92 4b 0c 	sts	0x0C4B, r6
}
    a8e8:	6c 96       	adiw	r28, 0x1c	; 28
    a8ea:	0f b6       	in	r0, 0x3f	; 63
    a8ec:	f8 94       	cli
    a8ee:	de bf       	out	0x3e, r29	; 62
    a8f0:	0f be       	out	0x3f, r0	; 63
    a8f2:	cd bf       	out	0x3d, r28	; 61
    a8f4:	cf 91       	pop	r28
    a8f6:	df 91       	pop	r29
    a8f8:	1f 91       	pop	r17
    a8fa:	0f 91       	pop	r16
    a8fc:	ff 90       	pop	r15
    a8fe:	ef 90       	pop	r14
    a900:	df 90       	pop	r13
    a902:	cf 90       	pop	r12
    a904:	bf 90       	pop	r11
    a906:	af 90       	pop	r10
    a908:	9f 90       	pop	r9
    a90a:	8f 90       	pop	r8
    a90c:	7f 90       	pop	r7
    a90e:	6f 90       	pop	r6
    a910:	5f 90       	pop	r5
    a912:	4f 90       	pop	r4
    a914:	3f 90       	pop	r3
    a916:	2f 90       	pop	r2
    a918:	08 95       	ret

0000a91a <Draw_analog_clock>:
  else if((minute != 0x00) || (second != 0x00))
    time_flag = 0;
}

void Draw_analog_clock(void)			/* draw analog clock */
{
    a91a:	2f 92       	push	r2
    a91c:	3f 92       	push	r3
    a91e:	4f 92       	push	r4
    a920:	5f 92       	push	r5
    a922:	6f 92       	push	r6
    a924:	7f 92       	push	r7
    a926:	8f 92       	push	r8
    a928:	9f 92       	push	r9
    a92a:	af 92       	push	r10
    a92c:	bf 92       	push	r11
    a92e:	cf 92       	push	r12
    a930:	df 92       	push	r13
    a932:	ef 92       	push	r14
    a934:	ff 92       	push	r15
    a936:	0f 93       	push	r16
    a938:	1f 93       	push	r17
    a93a:	df 93       	push	r29
    a93c:	cf 93       	push	r28
    a93e:	00 d0       	rcall	.+0      	; 0xa940 <Draw_analog_clock+0x26>
    a940:	00 d0       	rcall	.+0      	; 0xa942 <Draw_analog_clock+0x28>
    a942:	cd b7       	in	r28, 0x3d	; 61
    a944:	de b7       	in	r29, 0x3e	; 62
    a946:	1c 82       	std	Y+4, r1	; 0x04
    a948:	1b 82       	std	Y+3, r1	; 0x03
    a94a:	1a 82       	std	Y+2, r1	; 0x02
    a94c:	19 82       	std	Y+1, r1	; 0x01
 unsigned int scale_in1 = 112;
 unsigned int scale_in2 = 106;
 signed int Xstart, Ystart, Xend, Yend;

 for(i = 0; i < 60 ; i++)			// draw clock scale
   if((i % 5) != 0)
    a94e:	8b 81       	ldd	r24, Y+3	; 0x03
    a950:	9c 81       	ldd	r25, Y+4	; 0x04
    a952:	65 e0       	ldi	r22, 0x05	; 5
    a954:	70 e0       	ldi	r23, 0x00	; 0
    a956:	0e 94 13 61 	call	0xc226	; 0xc226 <__udivmodhi4>
    a95a:	89 2b       	or	r24, r25
    a95c:	09 f4       	brne	.+2      	; 0xa960 <Draw_analog_clock+0x46>
    a95e:	5d c0       	rjmp	.+186    	; 0xaa1a <Draw_analog_clock+0x100>
     { Xstart = Xcenter + (signed int)(scale_in1*sin(3.141592/180*(i*6)));
    a960:	20 90 39 0b 	lds	r2, 0x0B39
    a964:	30 90 3a 0b 	lds	r3, 0x0B3A
    a968:	29 81       	ldd	r18, Y+1	; 0x01
    a96a:	3a 81       	ldd	r19, Y+2	; 0x02
    a96c:	b9 01       	movw	r22, r18
    a96e:	80 e0       	ldi	r24, 0x00	; 0
    a970:	90 e0       	ldi	r25, 0x00	; 0
    a972:	0e 94 53 5b 	call	0xb6a6	; 0xb6a6 <__floatunsisf>
    a976:	23 e3       	ldi	r18, 0x33	; 51
    a978:	3a ef       	ldi	r19, 0xFA	; 250
    a97a:	4e e8       	ldi	r20, 0x8E	; 142
    a97c:	5c e3       	ldi	r21, 0x3C	; 60
    a97e:	0e 94 1e 5c 	call	0xb83c	; 0xb83c <__mulsf3>
    a982:	7b 01       	movw	r14, r22
    a984:	8c 01       	movw	r16, r24
    a986:	c8 01       	movw	r24, r16
    a988:	0e 94 81 5c 	call	0xb902	; 0xb902 <sin>
    a98c:	2b 01       	movw	r4, r22
    a98e:	3c 01       	movw	r6, r24
       Ystart = Ycenter - (signed int)(scale_in1*cos(3.141592/180*(i*6)));
    a990:	80 90 3b 0b 	lds	r8, 0x0B3B
    a994:	90 90 3c 0b 	lds	r9, 0x0B3C
    a998:	b7 01       	movw	r22, r14
    a99a:	c8 01       	movw	r24, r16
    a99c:	0e 94 b7 5a 	call	0xb56e	; 0xb56e <cos>
    a9a0:	5b 01       	movw	r10, r22
    a9a2:	6c 01       	movw	r12, r24
       Xend   = Xcenter + (signed int)(scale_out*sin(3.141592/180*(i*6)));
       Yend   = Ycenter - (signed int)(scale_out*cos(3.141592/180*(i*6)));

       Line_soft(Xstart,Ystart, Xend,Yend, LightGrey);
    a9a4:	c3 01       	movw	r24, r6
    a9a6:	b2 01       	movw	r22, r4
    a9a8:	20 e0       	ldi	r18, 0x00	; 0
    a9aa:	30 e0       	ldi	r19, 0x00	; 0
    a9ac:	40 ee       	ldi	r20, 0xE0	; 224
    a9ae:	52 e4       	ldi	r21, 0x42	; 66
    a9b0:	0e 94 1e 5c 	call	0xb83c	; 0xb83c <__mulsf3>
    a9b4:	0e 94 22 5b 	call	0xb644	; 0xb644 <__fixsfsi>
    a9b8:	7b 01       	movw	r14, r22
    a9ba:	8c 01       	movw	r16, r24
    a9bc:	e2 0c       	add	r14, r2
    a9be:	f3 1c       	adc	r15, r3
    a9c0:	c6 01       	movw	r24, r12
    a9c2:	b5 01       	movw	r22, r10
    a9c4:	20 e0       	ldi	r18, 0x00	; 0
    a9c6:	30 e0       	ldi	r19, 0x00	; 0
    a9c8:	40 ee       	ldi	r20, 0xE0	; 224
    a9ca:	52 e4       	ldi	r21, 0x42	; 66
    a9cc:	0e 94 1e 5c 	call	0xb83c	; 0xb83c <__mulsf3>
    a9d0:	0e 94 22 5b 	call	0xb644	; 0xb644 <__fixsfsi>
    a9d4:	84 01       	movw	r16, r8
    a9d6:	06 1b       	sub	r16, r22
    a9d8:	17 0b       	sbc	r17, r23
    a9da:	c3 01       	movw	r24, r6
    a9dc:	b2 01       	movw	r22, r4
    a9de:	20 e0       	ldi	r18, 0x00	; 0
    a9e0:	30 e0       	ldi	r19, 0x00	; 0
    a9e2:	4c ee       	ldi	r20, 0xEC	; 236
    a9e4:	52 e4       	ldi	r21, 0x42	; 66
    a9e6:	0e 94 1e 5c 	call	0xb83c	; 0xb83c <__mulsf3>
    a9ea:	0e 94 22 5b 	call	0xb644	; 0xb644 <__fixsfsi>
    a9ee:	26 0e       	add	r2, r22
    a9f0:	37 1e       	adc	r3, r23
    a9f2:	c6 01       	movw	r24, r12
    a9f4:	b5 01       	movw	r22, r10
    a9f6:	20 e0       	ldi	r18, 0x00	; 0
    a9f8:	30 e0       	ldi	r19, 0x00	; 0
    a9fa:	4c ee       	ldi	r20, 0xEC	; 236
    a9fc:	52 e4       	ldi	r21, 0x42	; 66
    a9fe:	0e 94 1e 5c 	call	0xb83c	; 0xb83c <__mulsf3>
    aa02:	0e 94 22 5b 	call	0xb644	; 0xb644 <__fixsfsi>
    aa06:	86 1a       	sub	r8, r22
    aa08:	97 0a       	sbc	r9, r23
    aa0a:	c7 01       	movw	r24, r14
    aa0c:	b8 01       	movw	r22, r16
    aa0e:	a1 01       	movw	r20, r2
    aa10:	94 01       	movw	r18, r8
    aa12:	08 e1       	ldi	r16, 0x18	; 24
    aa14:	16 ec       	ldi	r17, 0xC6	; 198
    aa16:	0e 94 e2 49 	call	0x93c4	; 0x93c4 <Line_soft>
 unsigned int scale_out = 118;
 unsigned int scale_in1 = 112;
 unsigned int scale_in2 = 106;
 signed int Xstart, Ystart, Xend, Yend;

 for(i = 0; i < 60 ; i++)			// draw clock scale
    aa1a:	8b 81       	ldd	r24, Y+3	; 0x03
    aa1c:	9c 81       	ldd	r25, Y+4	; 0x04
    aa1e:	01 96       	adiw	r24, 0x01	; 1
    aa20:	9c 83       	std	Y+4, r25	; 0x04
    aa22:	8b 83       	std	Y+3, r24	; 0x03
    aa24:	e9 81       	ldd	r30, Y+1	; 0x01
    aa26:	fa 81       	ldd	r31, Y+2	; 0x02
    aa28:	36 96       	adiw	r30, 0x06	; 6
    aa2a:	fa 83       	std	Y+2, r31	; 0x02
    aa2c:	e9 83       	std	Y+1, r30	; 0x01
    aa2e:	cc 97       	sbiw	r24, 0x3c	; 60
    aa30:	09 f0       	breq	.+2      	; 0xaa34 <Draw_analog_clock+0x11a>
    aa32:	8d cf       	rjmp	.-230    	; 0xa94e <Draw_analog_clock+0x34>
    aa34:	1c 82       	std	Y+4, r1	; 0x04
    aa36:	1b 82       	std	Y+3, r1	; 0x03
       Yend   = Ycenter - (signed int)(scale_out*cos(3.141592/180*(i*6)));

       Line_soft(Xstart,Ystart, Xend,Yend, LightGrey);
     }
 for(i = 0; i < 12 ; i++)
   { Xstart = Xcenter + (signed int)(scale_in2*sin(3.141592/180*(i*30)));
    aa38:	20 90 39 0b 	lds	r2, 0x0B39
    aa3c:	30 90 3a 0b 	lds	r3, 0x0B3A
    aa40:	2b 81       	ldd	r18, Y+3	; 0x03
    aa42:	3c 81       	ldd	r19, Y+4	; 0x04
    aa44:	b9 01       	movw	r22, r18
    aa46:	80 e0       	ldi	r24, 0x00	; 0
    aa48:	90 e0       	ldi	r25, 0x00	; 0
    aa4a:	0e 94 53 5b 	call	0xb6a6	; 0xb6a6 <__floatunsisf>
    aa4e:	23 e3       	ldi	r18, 0x33	; 51
    aa50:	3a ef       	ldi	r19, 0xFA	; 250
    aa52:	4e e8       	ldi	r20, 0x8E	; 142
    aa54:	5c e3       	ldi	r21, 0x3C	; 60
    aa56:	0e 94 1e 5c 	call	0xb83c	; 0xb83c <__mulsf3>
    aa5a:	7b 01       	movw	r14, r22
    aa5c:	8c 01       	movw	r16, r24
    aa5e:	c8 01       	movw	r24, r16
    aa60:	0e 94 81 5c 	call	0xb902	; 0xb902 <sin>
    aa64:	2b 01       	movw	r4, r22
    aa66:	3c 01       	movw	r6, r24
     Ystart = Ycenter - (signed int)(scale_in2*cos(3.141592/180*(i*30)));
    aa68:	80 90 3b 0b 	lds	r8, 0x0B3B
    aa6c:	90 90 3c 0b 	lds	r9, 0x0B3C
    aa70:	b7 01       	movw	r22, r14
    aa72:	c8 01       	movw	r24, r16
    aa74:	0e 94 b7 5a 	call	0xb56e	; 0xb56e <cos>
    aa78:	5b 01       	movw	r10, r22
    aa7a:	6c 01       	movw	r12, r24
     Xend   = Xcenter + (signed int)(scale_out*sin(3.141592/180*(i*30)));
     Yend   = Ycenter - (signed int)(scale_out*cos(3.141592/180*(i*30)));

     Line_soft(Xstart,Ystart, Xend,Yend, White);
    aa7c:	c3 01       	movw	r24, r6
    aa7e:	b2 01       	movw	r22, r4
    aa80:	20 e0       	ldi	r18, 0x00	; 0
    aa82:	30 e0       	ldi	r19, 0x00	; 0
    aa84:	44 ed       	ldi	r20, 0xD4	; 212
    aa86:	52 e4       	ldi	r21, 0x42	; 66
    aa88:	0e 94 1e 5c 	call	0xb83c	; 0xb83c <__mulsf3>
    aa8c:	0e 94 22 5b 	call	0xb644	; 0xb644 <__fixsfsi>
    aa90:	7b 01       	movw	r14, r22
    aa92:	8c 01       	movw	r16, r24
    aa94:	e2 0c       	add	r14, r2
    aa96:	f3 1c       	adc	r15, r3
    aa98:	c6 01       	movw	r24, r12
    aa9a:	b5 01       	movw	r22, r10
    aa9c:	20 e0       	ldi	r18, 0x00	; 0
    aa9e:	30 e0       	ldi	r19, 0x00	; 0
    aaa0:	44 ed       	ldi	r20, 0xD4	; 212
    aaa2:	52 e4       	ldi	r21, 0x42	; 66
    aaa4:	0e 94 1e 5c 	call	0xb83c	; 0xb83c <__mulsf3>
    aaa8:	0e 94 22 5b 	call	0xb644	; 0xb644 <__fixsfsi>
    aaac:	84 01       	movw	r16, r8
    aaae:	06 1b       	sub	r16, r22
    aab0:	17 0b       	sbc	r17, r23
    aab2:	c3 01       	movw	r24, r6
    aab4:	b2 01       	movw	r22, r4
    aab6:	20 e0       	ldi	r18, 0x00	; 0
    aab8:	30 e0       	ldi	r19, 0x00	; 0
    aaba:	4c ee       	ldi	r20, 0xEC	; 236
    aabc:	52 e4       	ldi	r21, 0x42	; 66
    aabe:	0e 94 1e 5c 	call	0xb83c	; 0xb83c <__mulsf3>
    aac2:	0e 94 22 5b 	call	0xb644	; 0xb644 <__fixsfsi>
    aac6:	26 0e       	add	r2, r22
    aac8:	37 1e       	adc	r3, r23
    aaca:	c6 01       	movw	r24, r12
    aacc:	b5 01       	movw	r22, r10
    aace:	20 e0       	ldi	r18, 0x00	; 0
    aad0:	30 e0       	ldi	r19, 0x00	; 0
    aad2:	4c ee       	ldi	r20, 0xEC	; 236
    aad4:	52 e4       	ldi	r21, 0x42	; 66
    aad6:	0e 94 1e 5c 	call	0xb83c	; 0xb83c <__mulsf3>
    aada:	0e 94 22 5b 	call	0xb644	; 0xb644 <__fixsfsi>
    aade:	86 1a       	sub	r8, r22
    aae0:	97 0a       	sbc	r9, r23
    aae2:	c7 01       	movw	r24, r14
    aae4:	b8 01       	movw	r22, r16
    aae6:	a1 01       	movw	r20, r2
    aae8:	94 01       	movw	r18, r8
    aaea:	0f ef       	ldi	r16, 0xFF	; 255
    aaec:	1f ef       	ldi	r17, 0xFF	; 255
    aaee:	0e 94 e2 49 	call	0x93c4	; 0x93c4 <Line_soft>
    aaf2:	8b 81       	ldd	r24, Y+3	; 0x03
    aaf4:	9c 81       	ldd	r25, Y+4	; 0x04
    aaf6:	4e 96       	adiw	r24, 0x1e	; 30
    aaf8:	9c 83       	std	Y+4, r25	; 0x04
    aafa:	8b 83       	std	Y+3, r24	; 0x03
       Xend   = Xcenter + (signed int)(scale_out*sin(3.141592/180*(i*6)));
       Yend   = Ycenter - (signed int)(scale_out*cos(3.141592/180*(i*6)));

       Line_soft(Xstart,Ystart, Xend,Yend, LightGrey);
     }
 for(i = 0; i < 12 ; i++)
    aafc:	88 56       	subi	r24, 0x68	; 104
    aafe:	91 40       	sbci	r25, 0x01	; 1
    ab00:	09 f0       	breq	.+2      	; 0xab04 <Draw_analog_clock+0x1ea>
    ab02:	9a cf       	rjmp	.-204    	; 0xaa38 <Draw_analog_clock+0x11e>
     Yend   = Ycenter - (signed int)(scale_out*cos(3.141592/180*(i*30)));

     Line_soft(Xstart,Ystart, Xend,Yend, White);
   }

  Circle(Xcenter,Ycenter, 119, Cyan);		// draw outline
    ab04:	60 91 3b 0b 	lds	r22, 0x0B3B
    ab08:	70 91 3c 0b 	lds	r23, 0x0B3C
    ab0c:	80 91 39 0b 	lds	r24, 0x0B39
    ab10:	90 91 3a 0b 	lds	r25, 0x0B3A
    ab14:	47 e7       	ldi	r20, 0x77	; 119
    ab16:	50 e0       	ldi	r21, 0x00	; 0
    ab18:	2f ef       	ldi	r18, 0xFF	; 255
    ab1a:	37 e0       	ldi	r19, 0x07	; 7
    ab1c:	0e 94 e1 4c 	call	0x99c2	; 0x99c2 <Circle>
  Circle(Xcenter,Ycenter, 118, Cyan);
    ab20:	60 91 3b 0b 	lds	r22, 0x0B3B
    ab24:	70 91 3c 0b 	lds	r23, 0x0B3C
    ab28:	80 91 39 0b 	lds	r24, 0x0B39
    ab2c:	90 91 3a 0b 	lds	r25, 0x0B3A
    ab30:	46 e7       	ldi	r20, 0x76	; 118
    ab32:	50 e0       	ldi	r21, 0x00	; 0
    ab34:	2f ef       	ldi	r18, 0xFF	; 255
    ab36:	37 e0       	ldi	r19, 0x07	; 7
    ab38:	0e 94 e1 4c 	call	0x99c2	; 0x99c2 <Circle>
    ab3c:	04 e0       	ldi	r16, 0x04	; 4
    ab3e:	10 e0       	ldi	r17, 0x00	; 0

  for(i = 4; i > 0; i--)			// draw center
    Circle(Xcenter,Ycenter, i, Yellow);
    ab40:	60 91 3b 0b 	lds	r22, 0x0B3B
    ab44:	70 91 3c 0b 	lds	r23, 0x0B3C
    ab48:	80 91 39 0b 	lds	r24, 0x0B39
    ab4c:	90 91 3a 0b 	lds	r25, 0x0B3A
    ab50:	a8 01       	movw	r20, r16
    ab52:	20 ee       	ldi	r18, 0xE0	; 224
    ab54:	3f ef       	ldi	r19, 0xFF	; 255
    ab56:	0e 94 e1 4c 	call	0x99c2	; 0x99c2 <Circle>
   }

  Circle(Xcenter,Ycenter, 119, Cyan);		// draw outline
  Circle(Xcenter,Ycenter, 118, Cyan);

  for(i = 4; i > 0; i--)			// draw center
    ab5a:	01 50       	subi	r16, 0x01	; 1
    ab5c:	10 40       	sbci	r17, 0x00	; 0
    ab5e:	81 f7       	brne	.-32     	; 0xab40 <Draw_analog_clock+0x226>
    Circle(Xcenter,Ycenter, i, Yellow);
}
    ab60:	0f 90       	pop	r0
    ab62:	0f 90       	pop	r0
    ab64:	0f 90       	pop	r0
    ab66:	0f 90       	pop	r0
    ab68:	cf 91       	pop	r28
    ab6a:	df 91       	pop	r29
    ab6c:	1f 91       	pop	r17
    ab6e:	0f 91       	pop	r16
    ab70:	ff 90       	pop	r15
    ab72:	ef 90       	pop	r14
    ab74:	df 90       	pop	r13
    ab76:	cf 90       	pop	r12
    ab78:	bf 90       	pop	r11
    ab7a:	af 90       	pop	r10
    ab7c:	9f 90       	pop	r9
    ab7e:	8f 90       	pop	r8
    ab80:	7f 90       	pop	r7
    ab82:	6f 90       	pop	r6
    ab84:	5f 90       	pop	r5
    ab86:	4f 90       	pop	r4
    ab88:	3f 90       	pop	r3
    ab8a:	2f 90       	pop	r2
    ab8c:	08 95       	ret

0000ab8e <Analog_display_time>:

unsigned int Xcenter = 120;			// center x,y of analog clock
unsigned int Ycenter = 160;

void Analog_display_time(void)			/* display analog and digital time */
{
    ab8e:	ff 92       	push	r15
    ab90:	0f 93       	push	r16
    ab92:	1f 93       	push	r17
  second = DS1307_read(0x00);			// new second ?
    ab94:	80 e0       	ldi	r24, 0x00	; 0
    ab96:	0e 94 c2 42 	call	0x8584	; 0x8584 <DS1307_read>
    ab9a:	98 2f       	mov	r25, r24
    ab9c:	80 93 5f 0b 	sts	0x0B5F, r24
  if(second == second_old)
    aba0:	80 91 44 0c 	lds	r24, 0x0C44
    aba4:	98 17       	cp	r25, r24
    aba6:	09 f4       	brne	.+2      	; 0xabaa <Analog_display_time+0x1c>
    aba8:	b9 c0       	rjmp	.+370    	; 0xad1c <Analog_display_time+0x18e>
    return;
  else
    second_old = second;
    abaa:	90 93 44 0c 	sts	0x0C44, r25

  minute = DS1307_read(0x01);
    abae:	81 e0       	ldi	r24, 0x01	; 1
    abb0:	0e 94 c2 42 	call	0x8584	; 0x8584 <DS1307_read>
    abb4:	80 93 2c 0c 	sts	0x0C2C, r24
  hour = DS1307_read(0x02);
    abb8:	82 e0       	ldi	r24, 0x02	; 2
    abba:	0e 94 c2 42 	call	0x8584	; 0x8584 <DS1307_read>
    abbe:	80 93 33 0c 	sts	0x0C33, r24
  weekday = DS1307_read(0x03);
    abc2:	83 e0       	ldi	r24, 0x03	; 3
    abc4:	0e 94 c2 42 	call	0x8584	; 0x8584 <DS1307_read>
    abc8:	80 93 4e 0c 	sts	0x0C4E, r24
  date = DS1307_read(0x04);
    abcc:	84 e0       	ldi	r24, 0x04	; 4
    abce:	0e 94 c2 42 	call	0x8584	; 0x8584 <DS1307_read>
    abd2:	80 93 45 0c 	sts	0x0C45, r24
  month = DS1307_read(0x05);
    abd6:	85 e0       	ldi	r24, 0x05	; 5
    abd8:	0e 94 c2 42 	call	0x8584	; 0x8584 <DS1307_read>
    abdc:	80 93 5c 0b 	sts	0x0B5C, r24
  year = DS1307_read(0x06);
    abe0:	86 e0       	ldi	r24, 0x06	; 6
    abe2:	0e 94 c2 42 	call	0x8584	; 0x8584 <DS1307_read>
    abe6:	80 93 3f 0c 	sts	0x0C3F, r24
  TFT_command(0x22);
}

void TFT_xy(U08 xChar, U08 yChar)		/* set character position (x,y) */
{
  Xcharacter = xChar;
    abea:	8d e0       	ldi	r24, 0x0D	; 13
    abec:	80 93 3c 0c 	sts	0x0C3C, r24
  Ycharacter = yChar;
    abf0:	85 e2       	ldi	r24, 0x25	; 37
    abf2:	80 93 45 0b 	sts	0x0B45, r24
}

void TFT_color(U16 colorfore, U16 colorback)	/* set foreground and background color */
{
  foreground = colorfore;
    abf6:	80 ee       	ldi	r24, 0xE0	; 224
    abf8:	97 e0       	ldi	r25, 0x07	; 7
    abfa:	90 93 50 0b 	sts	0x0B50, r25
    abfe:	80 93 4f 0b 	sts	0x0B4F, r24
  background = colorback;
    ac02:	10 92 56 0b 	sts	0x0B56, r1
    ac06:	10 92 55 0b 	sts	0x0B55, r1

  TFT_xy(13,37);				// display hour
  TFT_color(Green,Black);
  TFT_hexadecimal(hour & 0x1F,2);
    ac0a:	60 91 33 0c 	lds	r22, 0x0C33
    ac0e:	70 e0       	ldi	r23, 0x00	; 0
    ac10:	80 e0       	ldi	r24, 0x00	; 0
    ac12:	90 e0       	ldi	r25, 0x00	; 0
    ac14:	6f 71       	andi	r22, 0x1F	; 31
    ac16:	70 70       	andi	r23, 0x00	; 0
    ac18:	80 70       	andi	r24, 0x00	; 0
    ac1a:	90 70       	andi	r25, 0x00	; 0
    ac1c:	42 e0       	ldi	r20, 0x02	; 2
    ac1e:	0e 94 57 30 	call	0x60ae	; 0x60ae <TFT_hexadecimal>
  if((hour & 0x20) == 0x00) TFT_string(8,37, Cyan,Black, "");
    ac22:	80 91 33 0c 	lds	r24, 0x0C33
    ac26:	85 fd       	sbrc	r24, 5
    ac28:	09 c0       	rjmp	.+18     	; 0xac3c <Analog_display_time+0xae>
    ac2a:	88 e0       	ldi	r24, 0x08	; 8
    ac2c:	65 e2       	ldi	r22, 0x25	; 37
    ac2e:	4f ef       	ldi	r20, 0xFF	; 255
    ac30:	57 e0       	ldi	r21, 0x07	; 7
    ac32:	20 e0       	ldi	r18, 0x00	; 0
    ac34:	30 e0       	ldi	r19, 0x00	; 0
    ac36:	0a e5       	ldi	r16, 0x5A	; 90
    ac38:	1a e0       	ldi	r17, 0x0A	; 10
    ac3a:	08 c0       	rjmp	.+16     	; 0xac4c <Analog_display_time+0xbe>
  else                      TFT_string(8,37, Cyan,Black, "");
    ac3c:	88 e0       	ldi	r24, 0x08	; 8
    ac3e:	65 e2       	ldi	r22, 0x25	; 37
    ac40:	4f ef       	ldi	r20, 0xFF	; 255
    ac42:	57 e0       	ldi	r21, 0x07	; 7
    ac44:	20 e0       	ldi	r18, 0x00	; 0
    ac46:	30 e0       	ldi	r19, 0x00	; 0
    ac48:	0f e5       	ldi	r16, 0x5F	; 95
    ac4a:	1a e0       	ldi	r17, 0x0A	; 10
    ac4c:	0e 94 28 2f 	call	0x5e50	; 0x5e50 <TFT_string>
  TFT_command(0x22);
}

void TFT_xy(U08 xChar, U08 yChar)		/* set character position (x,y) */
{
  Xcharacter = xChar;
    ac50:	80 e1       	ldi	r24, 0x10	; 16
    ac52:	80 93 3c 0c 	sts	0x0C3C, r24
  Ycharacter = yChar;
    ac56:	b5 e2       	ldi	r27, 0x25	; 37
    ac58:	fb 2e       	mov	r15, r27
    ac5a:	f0 92 45 0b 	sts	0x0B45, r15
}

void TFT_color(U16 colorfore, U16 colorback)	/* set foreground and background color */
{
  foreground = colorfore;
    ac5e:	00 ee       	ldi	r16, 0xE0	; 224
    ac60:	17 e0       	ldi	r17, 0x07	; 7
    ac62:	10 93 50 0b 	sts	0x0B50, r17
    ac66:	00 93 4f 0b 	sts	0x0B4F, r16
  background = colorback;
    ac6a:	10 92 56 0b 	sts	0x0B56, r1
    ac6e:	10 92 55 0b 	sts	0x0B55, r1
  TFT_xy(16,37);				// display minute
  TFT_color(Green,Black);
  TFT_hexadecimal(minute,2);
    ac72:	60 91 2c 0c 	lds	r22, 0x0C2C
    ac76:	70 e0       	ldi	r23, 0x00	; 0
    ac78:	80 e0       	ldi	r24, 0x00	; 0
    ac7a:	90 e0       	ldi	r25, 0x00	; 0
    ac7c:	42 e0       	ldi	r20, 0x02	; 2
    ac7e:	0e 94 57 30 	call	0x60ae	; 0x60ae <TFT_hexadecimal>
  TFT_command(0x22);
}

void TFT_xy(U08 xChar, U08 yChar)		/* set character position (x,y) */
{
  Xcharacter = xChar;
    ac82:	83 e1       	ldi	r24, 0x13	; 19
    ac84:	80 93 3c 0c 	sts	0x0C3C, r24
  Ycharacter = yChar;
    ac88:	f0 92 45 0b 	sts	0x0B45, r15
}

void TFT_color(U16 colorfore, U16 colorback)	/* set foreground and background color */
{
  foreground = colorfore;
    ac8c:	10 93 50 0b 	sts	0x0B50, r17
    ac90:	00 93 4f 0b 	sts	0x0B4F, r16
  background = colorback;
    ac94:	10 92 56 0b 	sts	0x0B56, r1
    ac98:	10 92 55 0b 	sts	0x0B55, r1
  TFT_xy(19,37);				// display second
  TFT_color(Green,Black);
  TFT_hexadecimal(second & 0x7F,2);
    ac9c:	60 91 5f 0b 	lds	r22, 0x0B5F
    aca0:	70 e0       	ldi	r23, 0x00	; 0
    aca2:	80 e0       	ldi	r24, 0x00	; 0
    aca4:	90 e0       	ldi	r25, 0x00	; 0
    aca6:	6f 77       	andi	r22, 0x7F	; 127
    aca8:	70 70       	andi	r23, 0x00	; 0
    acaa:	80 70       	andi	r24, 0x00	; 0
    acac:	90 70       	andi	r25, 0x00	; 0
    acae:	42 e0       	ldi	r20, 0x02	; 2
    acb0:	0e 94 57 30 	call	0x60ae	; 0x60ae <TFT_hexadecimal>
  TFT_command(0x22);
}

void TFT_xy(U08 xChar, U08 yChar)		/* set character position (x,y) */
{
  Xcharacter = xChar;
    acb4:	8c e1       	ldi	r24, 0x1C	; 28
    acb6:	80 93 3c 0c 	sts	0x0C3C, r24
  Ycharacter = yChar;
    acba:	f0 92 45 0b 	sts	0x0B45, r15
}

void TFT_color(U16 colorfore, U16 colorback)	/* set foreground and background color */
{
  foreground = colorfore;
    acbe:	10 93 50 0b 	sts	0x0B50, r17
    acc2:	00 93 4f 0b 	sts	0x0B4F, r16
  background = colorback;
    acc6:	10 92 56 0b 	sts	0x0B56, r1
    acca:	10 92 55 0b 	sts	0x0B55, r1

  TFT_xy(28,37); TFT_color(Green,Black);	// display home
  TFT_English(' ');
    acce:	80 e2       	ldi	r24, 0x20	; 32
    acd0:	0e 94 3e 2b 	call	0x567c	; 0x567c <TFT_English>

  Draw_pin();					// draw hour, minute, second pin
    acd4:	0e 94 fa 4d 	call	0x9bf4	; 0x9bf4 <Draw_pin>
  Circle(Xcenter,Ycenter, 5, Green);
    acd8:	60 91 3b 0b 	lds	r22, 0x0B3B
    acdc:	70 91 3c 0b 	lds	r23, 0x0B3C
    ace0:	80 91 39 0b 	lds	r24, 0x0B39
    ace4:	90 91 3a 0b 	lds	r25, 0x0B3A
    ace8:	45 e0       	ldi	r20, 0x05	; 5
    acea:	50 e0       	ldi	r21, 0x00	; 0
    acec:	20 ee       	ldi	r18, 0xE0	; 224
    acee:	37 e0       	ldi	r19, 0x07	; 7
    acf0:	0e 94 e1 4c 	call	0x99c2	; 0x99c2 <Circle>

  if((minute == 0x00) && (second == 0x00) && (time_flag == 0))
    acf4:	80 91 2c 0c 	lds	r24, 0x0C2C
    acf8:	88 23       	and	r24, r24
    acfa:	71 f4       	brne	.+28     	; 0xad18 <Analog_display_time+0x18a>
    acfc:	80 91 5f 0b 	lds	r24, 0x0B5F
    ad00:	88 23       	and	r24, r24
    ad02:	51 f4       	brne	.+20     	; 0xad18 <Analog_display_time+0x18a>
    ad04:	80 91 42 0b 	lds	r24, 0x0B42
    ad08:	88 23       	and	r24, r24
    ad0a:	41 f4       	brne	.+16     	; 0xad1c <Analog_display_time+0x18e>
    { time_flag = 1;
    ad0c:	81 e0       	ldi	r24, 0x01	; 1
    ad0e:	80 93 42 0b 	sts	0x0B42, r24
      Beep();
    ad12:	0e 94 31 25 	call	0x4a62	; 0x4a62 <Beep>
    ad16:	02 c0       	rjmp	.+4      	; 0xad1c <Analog_display_time+0x18e>
    }
  else if((minute != 0x00) || (second != 0x00))
    time_flag = 0;
    ad18:	10 92 42 0b 	sts	0x0B42, r1
}
    ad1c:	1f 91       	pop	r17
    ad1e:	0f 91       	pop	r16
    ad20:	ff 90       	pop	r15
    ad22:	08 95       	ret

0000ad24 <Test11>:
/* ---------------------------------------------------------------------------- */

unsigned char second_old, start_flag;

void Test11(void)				/* Test 11 */
{
    ad24:	0f 93       	push	r16
    ad26:	1f 93       	push	r17
  unsigned char key = no_key;

  TFT_clear_screen();				// clear screen
    ad28:	0e 94 cf 28 	call	0x519e	; 0x519e <TFT_clear_screen>
  TFT_portrait();				// portrait mode
    ad2c:	0e 94 a0 2a 	call	0x5540	; 0x5540 <TFT_portrait>

  DS1307_initialize();				// initialize DS1307 RTC
    ad30:	0e 94 5e 43 	call	0x86bc	; 0x86bc <DS1307_initialize>
void TFT_cursor(U16 cursor_color)		/* set cursor and color */
{
  if(cursor_color == Transparent)		// disable cursor
    cursor_flag = 0;
  else						// enable cursor
    { cursor_flag = 1;
    ad34:	81 e0       	ldi	r24, 0x01	; 1
    ad36:	80 93 3f 0b 	sts	0x0B3F, r24
      cursor = cursor_color;
    ad3a:	8f e1       	ldi	r24, 0x1F	; 31
    ad3c:	98 ef       	ldi	r25, 0xF8	; 248
    ad3e:	90 93 30 0c 	sts	0x0C30, r25
    ad42:	80 93 2f 0c 	sts	0x0C2F, r24

  TFT_cursor(Magenta);				// display cursor by Magenta color
  Xcursor = 28;
    ad46:	8c e1       	ldi	r24, 0x1C	; 28
    ad48:	80 93 4a 0c 	sts	0x0C4A, r24
  Ycursor = 37;
    ad4c:	85 e2       	ldi	r24, 0x25	; 37
    ad4e:	80 93 48 0b 	sts	0x0B48, r24

  start_flag = 0;
    ad52:	10 92 4d 0c 	sts	0x0C4D, r1

  TFT_string(4,1, White,Magenta," DS1307   "); // display title
    ad56:	84 e0       	ldi	r24, 0x04	; 4
    ad58:	61 e0       	ldi	r22, 0x01	; 1
    ad5a:	4f ef       	ldi	r20, 0xFF	; 255
    ad5c:	5f ef       	ldi	r21, 0xFF	; 255
    ad5e:	2f e1       	ldi	r18, 0x1F	; 31
    ad60:	38 ef       	ldi	r19, 0xF8	; 248
    ad62:	04 e6       	ldi	r16, 0x64	; 100
    ad64:	1a e0       	ldi	r17, 0x0A	; 10
    ad66:	0e 94 28 2f 	call	0x5e50	; 0x5e50 <TFT_string>
  Draw_analog_clock();				// draw analog clock
    ad6a:	0e 94 8d 54 	call	0xa91a	; 0xa91a <Draw_analog_clock>
  TFT_string(8,37, Cyan, Black, "");	// display digital clock
    ad6e:	88 e0       	ldi	r24, 0x08	; 8
    ad70:	65 e2       	ldi	r22, 0x25	; 37
    ad72:	4f ef       	ldi	r20, 0xFF	; 255
    ad74:	57 e0       	ldi	r21, 0x07	; 7
    ad76:	20 e0       	ldi	r18, 0x00	; 0
    ad78:	30 e0       	ldi	r19, 0x00	; 0
    ad7a:	0a e5       	ldi	r16, 0x5A	; 90
    ad7c:	1a e0       	ldi	r17, 0x0A	; 10
    ad7e:	0e 94 28 2f 	call	0x5e50	; 0x5e50 <TFT_string>
  TFT_string(13,37, Green,Black, "00:00:00");
    ad82:	8d e0       	ldi	r24, 0x0D	; 13
    ad84:	65 e2       	ldi	r22, 0x25	; 37
    ad86:	40 ee       	ldi	r20, 0xE0	; 224
    ad88:	57 e0       	ldi	r21, 0x07	; 7
    ad8a:	20 e0       	ldi	r18, 0x00	; 0
    ad8c:	30 e0       	ldi	r19, 0x00	; 0
    ad8e:	0b e7       	ldi	r16, 0x7B	; 123
    ad90:	1a e0       	ldi	r17, 0x0A	; 10
    ad92:	0e 94 28 2f 	call	0x5e50	; 0x5e50 <TFT_string>

  while(1)
    { key = Key_input();			// key input
    ad96:	0e 94 47 25 	call	0x4a8e	; 0x4a8e <Key_input>
      if((key == KEY4) && (Xcursor == 25) && (Ycursor == 37))
    ad9a:	87 30       	cpi	r24, 0x07	; 7
    ad9c:	49 f4       	brne	.+18     	; 0xadb0 <Test11+0x8c>
    ad9e:	80 91 4a 0c 	lds	r24, 0x0C4A
    ada2:	89 31       	cpi	r24, 0x19	; 25
    ada4:	c9 f4       	brne	.+50     	; 0xadd8 <Test11+0xb4>
    ada6:	80 91 48 0b 	lds	r24, 0x0B48
    adaa:	85 32       	cpi	r24, 0x25	; 37
    adac:	a9 f4       	brne	.+42     	; 0xadd8 <Test11+0xb4>
    adae:	1a c0       	rjmp	.+52     	; 0xade4 <Test11+0xc0>
        return;

      switch(key)
    adb0:	8b 30       	cpi	r24, 0x0B	; 11
    adb2:	79 f0       	breq	.+30     	; 0xadd2 <Test11+0xae>
    adb4:	8c 30       	cpi	r24, 0x0C	; 12
    adb6:	18 f4       	brcc	.+6      	; 0xadbe <Test11+0x9a>
    adb8:	87 30       	cpi	r24, 0x07	; 7
    adba:	89 f4       	brne	.+34     	; 0xadde <Test11+0xba>
    adbc:	0d c0       	rjmp	.+26     	; 0xadd8 <Test11+0xb4>
    adbe:	8d 30       	cpi	r24, 0x0D	; 13
    adc0:	29 f0       	breq	.+10     	; 0xadcc <Test11+0xa8>
    adc2:	8e 30       	cpi	r24, 0x0E	; 14
    adc4:	61 f4       	brne	.+24     	; 0xadde <Test11+0xba>
        { case KEY1 : Analog_cursor_left();	// if KEY1, go cursor left
    adc6:	0e 94 37 49 	call	0x926e	; 0x926e <Analog_cursor_left>
    adca:	e5 cf       	rjmp	.-54     	; 0xad96 <Test11+0x72>
                      break;
          case KEY2 : Analog_cursor_right();	// if KEY2, go cursor right
    adcc:	0e 94 8d 49 	call	0x931a	; 0x931a <Analog_cursor_right>
    add0:	e2 cf       	rjmp	.-60     	; 0xad96 <Test11+0x72>
                      break;
          case KEY3 : Analog_increment();	// if KEY3, increment time
    add2:	0e 94 d0 47 	call	0x8fa0	; 0x8fa0 <Analog_increment>
    add6:	df cf       	rjmp	.-66     	; 0xad96 <Test11+0x72>
                      break;
	  case KEY4 : Analog_decrement();	// if KEY4, decrement time
    add8:	0e 94 85 48 	call	0x910a	; 0x910a <Analog_decrement>
    addc:	dc cf       	rjmp	.-72     	; 0xad96 <Test11+0x72>
                      break;
	  default   : Analog_display_time();	// display time
    adde:	0e 94 c7 55 	call	0xab8e	; 0xab8e <Analog_display_time>
    ade2:	d9 cf       	rjmp	.-78     	; 0xad96 <Test11+0x72>
	              break;
        }
    }
}
    ade4:	1f 91       	pop	r17
    ade6:	0f 91       	pop	r16
    ade8:	08 95       	ret

0000adea <Test3>:
}

/* ---------------------------------------------------------------------------- */

void Test3(void)				/* Test 3 */
{
    adea:	af 92       	push	r10
    adec:	bf 92       	push	r11
    adee:	cf 92       	push	r12
    adf0:	df 92       	push	r13
    adf2:	ef 92       	push	r14
    adf4:	ff 92       	push	r15
    adf6:	0f 93       	push	r16
    adf8:	1f 93       	push	r17
    adfa:	cf 93       	push	r28
    adfc:	df 93       	push	r29
  unsigned int i, x, y;

  TFT_clear_screen();				// clear screen
    adfe:	0e 94 cf 28 	call	0x519e	; 0x519e <TFT_clear_screen>
  TFT_portrait();				// portrait mode
    ae02:	0e 94 a0 2a 	call	0x5540	; 0x5540 <TFT_portrait>

  Rectangle(0,0, 239,319, Green);		// display title
    ae06:	80 e0       	ldi	r24, 0x00	; 0
    ae08:	90 e0       	ldi	r25, 0x00	; 0
    ae0a:	60 e0       	ldi	r22, 0x00	; 0
    ae0c:	70 e0       	ldi	r23, 0x00	; 0
    ae0e:	4f ee       	ldi	r20, 0xEF	; 239
    ae10:	50 e0       	ldi	r21, 0x00	; 0
    ae12:	2f e3       	ldi	r18, 0x3F	; 63
    ae14:	31 e0       	ldi	r19, 0x01	; 1
    ae16:	00 ee       	ldi	r16, 0xE0	; 224
    ae18:	17 e0       	ldi	r17, 0x07	; 7
    ae1a:	0e 94 14 33 	call	0x6628	; 0x6628 <Rectangle>
  Rectangle(1,1, 238,318, Green);
    ae1e:	81 e0       	ldi	r24, 0x01	; 1
    ae20:	90 e0       	ldi	r25, 0x00	; 0
    ae22:	61 e0       	ldi	r22, 0x01	; 1
    ae24:	70 e0       	ldi	r23, 0x00	; 0
    ae26:	4e ee       	ldi	r20, 0xEE	; 238
    ae28:	50 e0       	ldi	r21, 0x00	; 0
    ae2a:	2e e3       	ldi	r18, 0x3E	; 62
    ae2c:	31 e0       	ldi	r19, 0x01	; 1
    ae2e:	0e 94 14 33 	call	0x6628	; 0x6628 <Rectangle>
  Rectangle(2,2, 237,317, Green);
    ae32:	82 e0       	ldi	r24, 0x02	; 2
    ae34:	90 e0       	ldi	r25, 0x00	; 0
    ae36:	62 e0       	ldi	r22, 0x02	; 2
    ae38:	70 e0       	ldi	r23, 0x00	; 0
    ae3a:	4d ee       	ldi	r20, 0xED	; 237
    ae3c:	50 e0       	ldi	r21, 0x00	; 0
    ae3e:	2d e3       	ldi	r18, 0x3D	; 61
    ae40:	31 e0       	ldi	r19, 0x01	; 1
    ae42:	0e 94 14 33 	call	0x6628	; 0x6628 <Rectangle>
  TFT_string(2,10,Green,Magenta,"(3) TFT-LCD  ");
    ae46:	82 e0       	ldi	r24, 0x02	; 2
    ae48:	6a e0       	ldi	r22, 0x0A	; 10
    ae4a:	40 ee       	ldi	r20, 0xE0	; 224
    ae4c:	57 e0       	ldi	r21, 0x07	; 7
    ae4e:	2f e1       	ldi	r18, 0x1F	; 31
    ae50:	38 ef       	ldi	r19, 0xF8	; 248
    ae52:	04 e8       	ldi	r16, 0x84	; 132
    ae54:	1a e0       	ldi	r17, 0x0A	; 10
    ae56:	0e 94 28 2f 	call	0x5e50	; 0x5e50 <TFT_string>
  Delay_ms(500);
    ae5a:	84 ef       	ldi	r24, 0xF4	; 244
    ae5c:	91 e0       	ldi	r25, 0x01	; 1
    ae5e:	0e 94 14 25 	call	0x4a28	; 0x4a28 <Delay_ms>
  TFT_clear_screen();
    ae62:	0e 94 cf 28 	call	0x519e	; 0x519e <TFT_clear_screen>

  Rectangle(0,0, 239,319, Magenta);		// graphic show 1(line)
    ae66:	80 e0       	ldi	r24, 0x00	; 0
    ae68:	90 e0       	ldi	r25, 0x00	; 0
    ae6a:	60 e0       	ldi	r22, 0x00	; 0
    ae6c:	70 e0       	ldi	r23, 0x00	; 0
    ae6e:	4f ee       	ldi	r20, 0xEF	; 239
    ae70:	50 e0       	ldi	r21, 0x00	; 0
    ae72:	2f e3       	ldi	r18, 0x3F	; 63
    ae74:	31 e0       	ldi	r19, 0x01	; 1
    ae76:	0f e1       	ldi	r16, 0x1F	; 31
    ae78:	18 ef       	ldi	r17, 0xF8	; 248
    ae7a:	0e 94 14 33 	call	0x6628	; 0x6628 <Rectangle>
  Rectangle(1,1, 238,318, Magenta);
    ae7e:	81 e0       	ldi	r24, 0x01	; 1
    ae80:	90 e0       	ldi	r25, 0x00	; 0
    ae82:	61 e0       	ldi	r22, 0x01	; 1
    ae84:	70 e0       	ldi	r23, 0x00	; 0
    ae86:	4e ee       	ldi	r20, 0xEE	; 238
    ae88:	50 e0       	ldi	r21, 0x00	; 0
    ae8a:	2e e3       	ldi	r18, 0x3E	; 62
    ae8c:	31 e0       	ldi	r19, 0x01	; 1
    ae8e:	0e 94 14 33 	call	0x6628	; 0x6628 <Rectangle>
  Delay_ms(500);
    ae92:	84 ef       	ldi	r24, 0xF4	; 244
    ae94:	91 e0       	ldi	r25, 0x01	; 1
    ae96:	0e 94 14 25 	call	0x4a28	; 0x4a28 <Delay_ms>
    ae9a:	ca e0       	ldi	r28, 0x0A	; 10
    ae9c:	d0 e0       	ldi	r29, 0x00	; 0
  for(x = 10; x <= 230; x += 10)
    { Line(x,0, x,319, Green);
    ae9e:	ce 01       	movw	r24, r28
    aea0:	60 e0       	ldi	r22, 0x00	; 0
    aea2:	70 e0       	ldi	r23, 0x00	; 0
    aea4:	ae 01       	movw	r20, r28
    aea6:	2f e3       	ldi	r18, 0x3F	; 63
    aea8:	31 e0       	ldi	r19, 0x01	; 1
    aeaa:	00 ee       	ldi	r16, 0xE0	; 224
    aeac:	17 e0       	ldi	r17, 0x07	; 7
    aeae:	0e 94 e0 31 	call	0x63c0	; 0x63c0 <Line>
      Delay_ms(50);
    aeb2:	82 e3       	ldi	r24, 0x32	; 50
    aeb4:	90 e0       	ldi	r25, 0x00	; 0
    aeb6:	0e 94 14 25 	call	0x4a28	; 0x4a28 <Delay_ms>
  TFT_clear_screen();

  Rectangle(0,0, 239,319, Magenta);		// graphic show 1(line)
  Rectangle(1,1, 238,318, Magenta);
  Delay_ms(500);
  for(x = 10; x <= 230; x += 10)
    aeba:	2a 96       	adiw	r28, 0x0a	; 10
    aebc:	c0 3f       	cpi	r28, 0xF0	; 240
    aebe:	d1 05       	cpc	r29, r1
    aec0:	71 f7       	brne	.-36     	; 0xae9e <Test3+0xb4>
    aec2:	ca e0       	ldi	r28, 0x0A	; 10
    aec4:	d0 e0       	ldi	r29, 0x00	; 0
    { Line(x,0, x,319, Green);
      Delay_ms(50);
    }
  for(y = 10; y <= 310; y += 10)
    { Line(0,y, 239,y, Green);
    aec6:	80 e0       	ldi	r24, 0x00	; 0
    aec8:	90 e0       	ldi	r25, 0x00	; 0
    aeca:	be 01       	movw	r22, r28
    aecc:	4f ee       	ldi	r20, 0xEF	; 239
    aece:	50 e0       	ldi	r21, 0x00	; 0
    aed0:	9e 01       	movw	r18, r28
    aed2:	00 ee       	ldi	r16, 0xE0	; 224
    aed4:	17 e0       	ldi	r17, 0x07	; 7
    aed6:	0e 94 e0 31 	call	0x63c0	; 0x63c0 <Line>
      Delay_ms(50);
    aeda:	82 e3       	ldi	r24, 0x32	; 50
    aedc:	90 e0       	ldi	r25, 0x00	; 0
    aede:	0e 94 14 25 	call	0x4a28	; 0x4a28 <Delay_ms>
  Delay_ms(500);
  for(x = 10; x <= 230; x += 10)
    { Line(x,0, x,319, Green);
      Delay_ms(50);
    }
  for(y = 10; y <= 310; y += 10)
    aee2:	2a 96       	adiw	r28, 0x0a	; 10
    aee4:	81 e0       	ldi	r24, 0x01	; 1
    aee6:	c0 34       	cpi	r28, 0x40	; 64
    aee8:	d8 07       	cpc	r29, r24
    aeea:	69 f7       	brne	.-38     	; 0xaec6 <Test3+0xdc>
    { Line(0,y, 239,y, Green);
      Delay_ms(50);
    }
  Delay_ms(3000);
    aeec:	88 eb       	ldi	r24, 0xB8	; 184
    aeee:	9b e0       	ldi	r25, 0x0B	; 11
    aef0:	0e 94 14 25 	call	0x4a28	; 0x4a28 <Delay_ms>
  TFT_clear_screen();
    aef4:	0e 94 cf 28 	call	0x519e	; 0x519e <TFT_clear_screen>

  Rectangle(0,0, 239,319, Magenta);		// (ramp)
    aef8:	80 e0       	ldi	r24, 0x00	; 0
    aefa:	90 e0       	ldi	r25, 0x00	; 0
    aefc:	60 e0       	ldi	r22, 0x00	; 0
    aefe:	70 e0       	ldi	r23, 0x00	; 0
    af00:	4f ee       	ldi	r20, 0xEF	; 239
    af02:	50 e0       	ldi	r21, 0x00	; 0
    af04:	2f e3       	ldi	r18, 0x3F	; 63
    af06:	31 e0       	ldi	r19, 0x01	; 1
    af08:	0f e1       	ldi	r16, 0x1F	; 31
    af0a:	18 ef       	ldi	r17, 0xF8	; 248
    af0c:	0e 94 14 33 	call	0x6628	; 0x6628 <Rectangle>
  Rectangle(1,1, 238,318, Magenta);
    af10:	81 e0       	ldi	r24, 0x01	; 1
    af12:	90 e0       	ldi	r25, 0x00	; 0
    af14:	61 e0       	ldi	r22, 0x01	; 1
    af16:	70 e0       	ldi	r23, 0x00	; 0
    af18:	4e ee       	ldi	r20, 0xEE	; 238
    af1a:	50 e0       	ldi	r21, 0x00	; 0
    af1c:	2e e3       	ldi	r18, 0x3E	; 62
    af1e:	31 e0       	ldi	r19, 0x01	; 1
    af20:	0e 94 14 33 	call	0x6628	; 0x6628 <Rectangle>
    af24:	cc e0       	ldi	r28, 0x0C	; 12
    af26:	d0 e0       	ldi	r29, 0x00	; 0
    af28:	a4 e1       	ldi	r26, 0x14	; 20
    af2a:	ea 2e       	mov	r14, r26
    af2c:	f1 2c       	mov	r15, r1
  for(i = 0,x = 12,y = 20; i <= 34; i++,x += 12,y += 20)
    { Line(x,0, 0,y, Green);
      Line(0,319-y, x,319, Green);
    af2e:	ff e3       	ldi	r31, 0x3F	; 63
    af30:	cf 2e       	mov	r12, r31
    af32:	f1 e0       	ldi	r31, 0x01	; 1
    af34:	df 2e       	mov	r13, r31
  TFT_clear_screen();

  Rectangle(0,0, 239,319, Magenta);		// (ramp)
  Rectangle(1,1, 238,318, Magenta);
  for(i = 0,x = 12,y = 20; i <= 34; i++,x += 12,y += 20)
    { Line(x,0, 0,y, Green);
    af36:	ce 01       	movw	r24, r28
    af38:	60 e0       	ldi	r22, 0x00	; 0
    af3a:	70 e0       	ldi	r23, 0x00	; 0
    af3c:	40 e0       	ldi	r20, 0x00	; 0
    af3e:	50 e0       	ldi	r21, 0x00	; 0
    af40:	97 01       	movw	r18, r14
    af42:	00 ee       	ldi	r16, 0xE0	; 224
    af44:	17 e0       	ldi	r17, 0x07	; 7
    af46:	0e 94 e0 31 	call	0x63c0	; 0x63c0 <Line>
      Line(0,319-y, x,319, Green);
    af4a:	b6 01       	movw	r22, r12
    af4c:	6e 19       	sub	r22, r14
    af4e:	7f 09       	sbc	r23, r15
    af50:	80 e0       	ldi	r24, 0x00	; 0
    af52:	90 e0       	ldi	r25, 0x00	; 0
    af54:	ae 01       	movw	r20, r28
    af56:	2f e3       	ldi	r18, 0x3F	; 63
    af58:	31 e0       	ldi	r19, 0x01	; 1
    af5a:	0e 94 e0 31 	call	0x63c0	; 0x63c0 <Line>
      Delay_ms(50);
    af5e:	82 e3       	ldi	r24, 0x32	; 50
    af60:	90 e0       	ldi	r25, 0x00	; 0
    af62:	0e 94 14 25 	call	0x4a28	; 0x4a28 <Delay_ms>
  Delay_ms(3000);
  TFT_clear_screen();

  Rectangle(0,0, 239,319, Magenta);		// (ramp)
  Rectangle(1,1, 238,318, Magenta);
  for(i = 0,x = 12,y = 20; i <= 34; i++,x += 12,y += 20)
    af66:	2c 96       	adiw	r28, 0x0c	; 12
    af68:	84 e1       	ldi	r24, 0x14	; 20
    af6a:	90 e0       	ldi	r25, 0x00	; 0
    af6c:	e8 0e       	add	r14, r24
    af6e:	f9 1e       	adc	r15, r25
    af70:	91 e0       	ldi	r25, 0x01	; 1
    af72:	c0 3b       	cpi	r28, 0xB0	; 176
    af74:	d9 07       	cpc	r29, r25
    af76:	f9 f6       	brne	.-66     	; 0xaf36 <Test3+0x14c>
    af78:	c4 ea       	ldi	r28, 0xA4	; 164
    af7a:	d1 e0       	ldi	r29, 0x01	; 1
    af7c:	ec eb       	ldi	r30, 0xBC	; 188
    af7e:	ee 2e       	mov	r14, r30
    af80:	e2 e0       	ldi	r30, 0x02	; 2
    af82:	fe 2e       	mov	r15, r30
      Line(0,319-y, x,319, Green);
      Delay_ms(50);
    }
  for(i = 0,x = 420,y = 700; i <= 34; i++,x -= 12,y -= 20)
    { Line(x,0, 0,y, Red);
      Line(0,319-y, x,319, Red);
    af84:	7f e3       	ldi	r23, 0x3F	; 63
    af86:	c7 2e       	mov	r12, r23
    af88:	71 e0       	ldi	r23, 0x01	; 1
    af8a:	d7 2e       	mov	r13, r23
    { Line(x,0, 0,y, Green);
      Line(0,319-y, x,319, Green);
      Delay_ms(50);
    }
  for(i = 0,x = 420,y = 700; i <= 34; i++,x -= 12,y -= 20)
    { Line(x,0, 0,y, Red);
    af8c:	ce 01       	movw	r24, r28
    af8e:	60 e0       	ldi	r22, 0x00	; 0
    af90:	70 e0       	ldi	r23, 0x00	; 0
    af92:	40 e0       	ldi	r20, 0x00	; 0
    af94:	50 e0       	ldi	r21, 0x00	; 0
    af96:	97 01       	movw	r18, r14
    af98:	00 e0       	ldi	r16, 0x00	; 0
    af9a:	18 ef       	ldi	r17, 0xF8	; 248
    af9c:	0e 94 e0 31 	call	0x63c0	; 0x63c0 <Line>
      Line(0,319-y, x,319, Red);
    afa0:	b6 01       	movw	r22, r12
    afa2:	6e 19       	sub	r22, r14
    afa4:	7f 09       	sbc	r23, r15
    afa6:	80 e0       	ldi	r24, 0x00	; 0
    afa8:	90 e0       	ldi	r25, 0x00	; 0
    afaa:	ae 01       	movw	r20, r28
    afac:	2f e3       	ldi	r18, 0x3F	; 63
    afae:	31 e0       	ldi	r19, 0x01	; 1
    afb0:	0e 94 e0 31 	call	0x63c0	; 0x63c0 <Line>
      Delay_ms(50);
    afb4:	82 e3       	ldi	r24, 0x32	; 50
    afb6:	90 e0       	ldi	r25, 0x00	; 0
    afb8:	0e 94 14 25 	call	0x4a28	; 0x4a28 <Delay_ms>
  for(i = 0,x = 12,y = 20; i <= 34; i++,x += 12,y += 20)
    { Line(x,0, 0,y, Green);
      Line(0,319-y, x,319, Green);
      Delay_ms(50);
    }
  for(i = 0,x = 420,y = 700; i <= 34; i++,x -= 12,y -= 20)
    afbc:	2c 97       	sbiw	r28, 0x0c	; 12
    afbe:	8c ee       	ldi	r24, 0xEC	; 236
    afc0:	9f ef       	ldi	r25, 0xFF	; 255
    afc2:	e8 0e       	add	r14, r24
    afc4:	f9 1e       	adc	r15, r25
    afc6:	20 97       	sbiw	r28, 0x00	; 0
    afc8:	09 f7       	brne	.-62     	; 0xaf8c <Test3+0x1a2>
    { Line(x,0, 0,y, Red);
      Line(0,319-y, x,319, Red);
      Delay_ms(50);
    }
  Delay_ms(3000);
    afca:	88 eb       	ldi	r24, 0xB8	; 184
    afcc:	9b e0       	ldi	r25, 0x0B	; 11
    afce:	0e 94 14 25 	call	0x4a28	; 0x4a28 <Delay_ms>
  TFT_clear_screen();
    afd2:	0e 94 cf 28 	call	0x519e	; 0x519e <TFT_clear_screen>

  Rectangle(0,0, 239,319, Magenta);		// graphic show 2(rectangle)
    afd6:	80 e0       	ldi	r24, 0x00	; 0
    afd8:	90 e0       	ldi	r25, 0x00	; 0
    afda:	60 e0       	ldi	r22, 0x00	; 0
    afdc:	70 e0       	ldi	r23, 0x00	; 0
    afde:	4f ee       	ldi	r20, 0xEF	; 239
    afe0:	50 e0       	ldi	r21, 0x00	; 0
    afe2:	2f e3       	ldi	r18, 0x3F	; 63
    afe4:	31 e0       	ldi	r19, 0x01	; 1
    afe6:	0f e1       	ldi	r16, 0x1F	; 31
    afe8:	18 ef       	ldi	r17, 0xF8	; 248
    afea:	0e 94 14 33 	call	0x6628	; 0x6628 <Rectangle>
  Rectangle(1,1, 238,318, Magenta);
    afee:	81 e0       	ldi	r24, 0x01	; 1
    aff0:	90 e0       	ldi	r25, 0x00	; 0
    aff2:	61 e0       	ldi	r22, 0x01	; 1
    aff4:	70 e0       	ldi	r23, 0x00	; 0
    aff6:	4e ee       	ldi	r20, 0xEE	; 238
    aff8:	50 e0       	ldi	r21, 0x00	; 0
    affa:	2e e3       	ldi	r18, 0x3E	; 62
    affc:	31 e0       	ldi	r19, 0x01	; 1
    affe:	0e 94 14 33 	call	0x6628	; 0x6628 <Rectangle>
    b002:	c2 e7       	ldi	r28, 0x72	; 114
    b004:	d0 e0       	ldi	r29, 0x00	; 0
    b006:	68 e9       	ldi	r22, 0x98	; 152
    b008:	e6 2e       	mov	r14, r22
    b00a:	f1 2c       	mov	r15, r1
  for(i = 0,x = 114,y = 152; i <= 18; i++,x -= 6,y -= 8)
    { Rectangle(x,y, 239-x,319-y, Cyan);
    b00c:	5f ee       	ldi	r21, 0xEF	; 239
    b00e:	a5 2e       	mov	r10, r21
    b010:	b1 2c       	mov	r11, r1
    b012:	4f e3       	ldi	r20, 0x3F	; 63
    b014:	c4 2e       	mov	r12, r20
    b016:	41 e0       	ldi	r20, 0x01	; 1
    b018:	d4 2e       	mov	r13, r20
    b01a:	a5 01       	movw	r20, r10
    b01c:	4c 1b       	sub	r20, r28
    b01e:	5d 0b       	sbc	r21, r29
    b020:	96 01       	movw	r18, r12
    b022:	2e 19       	sub	r18, r14
    b024:	3f 09       	sbc	r19, r15
    b026:	ce 01       	movw	r24, r28
    b028:	b7 01       	movw	r22, r14
    b02a:	0f ef       	ldi	r16, 0xFF	; 255
    b02c:	17 e0       	ldi	r17, 0x07	; 7
    b02e:	0e 94 14 33 	call	0x6628	; 0x6628 <Rectangle>
      Delay_ms(50);
    b032:	82 e3       	ldi	r24, 0x32	; 50
    b034:	90 e0       	ldi	r25, 0x00	; 0
    b036:	0e 94 14 25 	call	0x4a28	; 0x4a28 <Delay_ms>
  Delay_ms(3000);
  TFT_clear_screen();

  Rectangle(0,0, 239,319, Magenta);		// graphic show 2(rectangle)
  Rectangle(1,1, 238,318, Magenta);
  for(i = 0,x = 114,y = 152; i <= 18; i++,x -= 6,y -= 8)
    b03a:	26 97       	sbiw	r28, 0x06	; 6
    b03c:	88 ef       	ldi	r24, 0xF8	; 248
    b03e:	9f ef       	ldi	r25, 0xFF	; 255
    b040:	e8 0e       	add	r14, r24
    b042:	f9 1e       	adc	r15, r25
    b044:	20 97       	sbiw	r28, 0x00	; 0
    b046:	49 f7       	brne	.-46     	; 0xb01a <Test3+0x230>
    { Rectangle(x,y, 239-x,319-y, Cyan);
      Delay_ms(50);
    }
  Delay_ms(1000);
    b048:	88 ee       	ldi	r24, 0xE8	; 232
    b04a:	93 e0       	ldi	r25, 0x03	; 3
    b04c:	0e 94 14 25 	call	0x4a28	; 0x4a28 <Delay_ms>
    b050:	c6 e0       	ldi	r28, 0x06	; 6
    b052:	d0 e0       	ldi	r29, 0x00	; 0
    b054:	38 e0       	ldi	r19, 0x08	; 8
    b056:	e3 2e       	mov	r14, r19
    b058:	f1 2c       	mov	r15, r1
  for(i = 0,x = 6,y = 8; i <= 18; i++,x += 6,y += 8)
    { Rectangle(x,y, 239-x,319-y, White);
    b05a:	2f ee       	ldi	r18, 0xEF	; 239
    b05c:	a2 2e       	mov	r10, r18
    b05e:	b1 2c       	mov	r11, r1
    b060:	9f e3       	ldi	r25, 0x3F	; 63
    b062:	c9 2e       	mov	r12, r25
    b064:	91 e0       	ldi	r25, 0x01	; 1
    b066:	d9 2e       	mov	r13, r25
    b068:	a5 01       	movw	r20, r10
    b06a:	4c 1b       	sub	r20, r28
    b06c:	5d 0b       	sbc	r21, r29
    b06e:	96 01       	movw	r18, r12
    b070:	2e 19       	sub	r18, r14
    b072:	3f 09       	sbc	r19, r15
    b074:	ce 01       	movw	r24, r28
    b076:	b7 01       	movw	r22, r14
    b078:	0f ef       	ldi	r16, 0xFF	; 255
    b07a:	1f ef       	ldi	r17, 0xFF	; 255
    b07c:	0e 94 14 33 	call	0x6628	; 0x6628 <Rectangle>
      Delay_ms(50);
    b080:	82 e3       	ldi	r24, 0x32	; 50
    b082:	90 e0       	ldi	r25, 0x00	; 0
    b084:	0e 94 14 25 	call	0x4a28	; 0x4a28 <Delay_ms>
  for(i = 0,x = 114,y = 152; i <= 18; i++,x -= 6,y -= 8)
    { Rectangle(x,y, 239-x,319-y, Cyan);
      Delay_ms(50);
    }
  Delay_ms(1000);
  for(i = 0,x = 6,y = 8; i <= 18; i++,x += 6,y += 8)
    b088:	26 96       	adiw	r28, 0x06	; 6
    b08a:	88 e0       	ldi	r24, 0x08	; 8
    b08c:	90 e0       	ldi	r25, 0x00	; 0
    b08e:	e8 0e       	add	r14, r24
    b090:	f9 1e       	adc	r15, r25
    b092:	c8 37       	cpi	r28, 0x78	; 120
    b094:	d1 05       	cpc	r29, r1
    b096:	41 f7       	brne	.-48     	; 0xb068 <Test3+0x27e>
    b098:	c2 e7       	ldi	r28, 0x72	; 114
    b09a:	d0 e0       	ldi	r29, 0x00	; 0
    b09c:	88 e9       	ldi	r24, 0x98	; 152
    b09e:	e8 2e       	mov	r14, r24
    b0a0:	f1 2c       	mov	r15, r1
    { Rectangle(x,y, 239-x,319-y, White);
      Delay_ms(50);
    }
  for(i = 0,x = 114,y = 152; i <= 18; i++,x -= 6,y -= 8)
    { Rectangle(x,y, 239-x,319-y, Green);
    b0a2:	0f ee       	ldi	r16, 0xEF	; 239
    b0a4:	a0 2e       	mov	r10, r16
    b0a6:	b1 2c       	mov	r11, r1
    b0a8:	1f e3       	ldi	r17, 0x3F	; 63
    b0aa:	c1 2e       	mov	r12, r17
    b0ac:	11 e0       	ldi	r17, 0x01	; 1
    b0ae:	d1 2e       	mov	r13, r17
    b0b0:	a5 01       	movw	r20, r10
    b0b2:	4c 1b       	sub	r20, r28
    b0b4:	5d 0b       	sbc	r21, r29
    b0b6:	96 01       	movw	r18, r12
    b0b8:	2e 19       	sub	r18, r14
    b0ba:	3f 09       	sbc	r19, r15
    b0bc:	ce 01       	movw	r24, r28
    b0be:	b7 01       	movw	r22, r14
    b0c0:	00 ee       	ldi	r16, 0xE0	; 224
    b0c2:	17 e0       	ldi	r17, 0x07	; 7
    b0c4:	0e 94 14 33 	call	0x6628	; 0x6628 <Rectangle>
      Delay_ms(50);
    b0c8:	82 e3       	ldi	r24, 0x32	; 50
    b0ca:	90 e0       	ldi	r25, 0x00	; 0
    b0cc:	0e 94 14 25 	call	0x4a28	; 0x4a28 <Delay_ms>
  Delay_ms(1000);
  for(i = 0,x = 6,y = 8; i <= 18; i++,x += 6,y += 8)
    { Rectangle(x,y, 239-x,319-y, White);
      Delay_ms(50);
    }
  for(i = 0,x = 114,y = 152; i <= 18; i++,x -= 6,y -= 8)
    b0d0:	26 97       	sbiw	r28, 0x06	; 6
    b0d2:	88 ef       	ldi	r24, 0xF8	; 248
    b0d4:	9f ef       	ldi	r25, 0xFF	; 255
    b0d6:	e8 0e       	add	r14, r24
    b0d8:	f9 1e       	adc	r15, r25
    b0da:	20 97       	sbiw	r28, 0x00	; 0
    b0dc:	49 f7       	brne	.-46     	; 0xb0b0 <Test3+0x2c6>
    { Rectangle(x,y, 239-x,319-y, Green);
      Delay_ms(50);
    }
  Delay_ms(3000);
    b0de:	88 eb       	ldi	r24, 0xB8	; 184
    b0e0:	9b e0       	ldi	r25, 0x0B	; 11
    b0e2:	0e 94 14 25 	call	0x4a28	; 0x4a28 <Delay_ms>
  TFT_clear_screen();
    b0e6:	0e 94 cf 28 	call	0x519e	; 0x519e <TFT_clear_screen>

  Rectangle(0,0, 239,319, Magenta);		// graphic show 3(circle)
    b0ea:	80 e0       	ldi	r24, 0x00	; 0
    b0ec:	90 e0       	ldi	r25, 0x00	; 0
    b0ee:	60 e0       	ldi	r22, 0x00	; 0
    b0f0:	70 e0       	ldi	r23, 0x00	; 0
    b0f2:	4f ee       	ldi	r20, 0xEF	; 239
    b0f4:	50 e0       	ldi	r21, 0x00	; 0
    b0f6:	2f e3       	ldi	r18, 0x3F	; 63
    b0f8:	31 e0       	ldi	r19, 0x01	; 1
    b0fa:	0f e1       	ldi	r16, 0x1F	; 31
    b0fc:	18 ef       	ldi	r17, 0xF8	; 248
    b0fe:	0e 94 14 33 	call	0x6628	; 0x6628 <Rectangle>
  Rectangle(1,1, 238,318, Magenta);
    b102:	81 e0       	ldi	r24, 0x01	; 1
    b104:	90 e0       	ldi	r25, 0x00	; 0
    b106:	61 e0       	ldi	r22, 0x01	; 1
    b108:	70 e0       	ldi	r23, 0x00	; 0
    b10a:	4e ee       	ldi	r20, 0xEE	; 238
    b10c:	50 e0       	ldi	r21, 0x00	; 0
    b10e:	2e e3       	ldi	r18, 0x3E	; 62
    b110:	31 e0       	ldi	r19, 0x01	; 1
    b112:	0e 94 14 33 	call	0x6628	; 0x6628 <Rectangle>
    b116:	ca e0       	ldi	r28, 0x0A	; 10
    b118:	d0 e0       	ldi	r29, 0x00	; 0
  for(i = 10; i <= 160; i += 10)
    { Circle(120,160,i, Green);
    b11a:	88 e7       	ldi	r24, 0x78	; 120
    b11c:	90 e0       	ldi	r25, 0x00	; 0
    b11e:	60 ea       	ldi	r22, 0xA0	; 160
    b120:	70 e0       	ldi	r23, 0x00	; 0
    b122:	ae 01       	movw	r20, r28
    b124:	20 ee       	ldi	r18, 0xE0	; 224
    b126:	37 e0       	ldi	r19, 0x07	; 7
    b128:	0e 94 e1 4c 	call	0x99c2	; 0x99c2 <Circle>
      Delay_ms(50);
    b12c:	82 e3       	ldi	r24, 0x32	; 50
    b12e:	90 e0       	ldi	r25, 0x00	; 0
    b130:	0e 94 14 25 	call	0x4a28	; 0x4a28 <Delay_ms>
  Delay_ms(3000);
  TFT_clear_screen();

  Rectangle(0,0, 239,319, Magenta);		// graphic show 3(circle)
  Rectangle(1,1, 238,318, Magenta);
  for(i = 10; i <= 160; i += 10)
    b134:	2a 96       	adiw	r28, 0x0a	; 10
    b136:	ca 3a       	cpi	r28, 0xAA	; 170
    b138:	d1 05       	cpc	r29, r1
    b13a:	79 f7       	brne	.-34     	; 0xb11a <Test3+0x330>
    { Circle(120,160,i, Green);
      Delay_ms(50);
    }
  Delay_ms(1000);
    b13c:	88 ee       	ldi	r24, 0xE8	; 232
    b13e:	93 e0       	ldi	r25, 0x03	; 3
    b140:	0e 94 14 25 	call	0x4a28	; 0x4a28 <Delay_ms>
    b144:	c0 ea       	ldi	r28, 0xA0	; 160
    b146:	d0 e0       	ldi	r29, 0x00	; 0
  for(i = 160; i >= 10; i -= 10)
    { Circle(120,160,i, Red);
    b148:	88 e7       	ldi	r24, 0x78	; 120
    b14a:	90 e0       	ldi	r25, 0x00	; 0
    b14c:	60 ea       	ldi	r22, 0xA0	; 160
    b14e:	70 e0       	ldi	r23, 0x00	; 0
    b150:	ae 01       	movw	r20, r28
    b152:	20 e0       	ldi	r18, 0x00	; 0
    b154:	38 ef       	ldi	r19, 0xF8	; 248
    b156:	0e 94 e1 4c 	call	0x99c2	; 0x99c2 <Circle>
      Delay_ms(50);
    b15a:	82 e3       	ldi	r24, 0x32	; 50
    b15c:	90 e0       	ldi	r25, 0x00	; 0
    b15e:	0e 94 14 25 	call	0x4a28	; 0x4a28 <Delay_ms>
  for(i = 10; i <= 160; i += 10)
    { Circle(120,160,i, Green);
      Delay_ms(50);
    }
  Delay_ms(1000);
  for(i = 160; i >= 10; i -= 10)
    b162:	2a 97       	sbiw	r28, 0x0a	; 10
    b164:	89 f7       	brne	.-30     	; 0xb148 <Test3+0x35e>
    b166:	ca e0       	ldi	r28, 0x0A	; 10
    b168:	d0 e0       	ldi	r29, 0x00	; 0
    { Circle(120,160,i, Red);
      Delay_ms(50);
    }
  for(i = 10; i <= 160; i += 10)
    { Circle(120,160,i, White);
    b16a:	88 e7       	ldi	r24, 0x78	; 120
    b16c:	90 e0       	ldi	r25, 0x00	; 0
    b16e:	60 ea       	ldi	r22, 0xA0	; 160
    b170:	70 e0       	ldi	r23, 0x00	; 0
    b172:	ae 01       	movw	r20, r28
    b174:	2f ef       	ldi	r18, 0xFF	; 255
    b176:	3f ef       	ldi	r19, 0xFF	; 255
    b178:	0e 94 e1 4c 	call	0x99c2	; 0x99c2 <Circle>
      Delay_ms(50);
    b17c:	82 e3       	ldi	r24, 0x32	; 50
    b17e:	90 e0       	ldi	r25, 0x00	; 0
    b180:	0e 94 14 25 	call	0x4a28	; 0x4a28 <Delay_ms>
  Delay_ms(1000);
  for(i = 160; i >= 10; i -= 10)
    { Circle(120,160,i, Red);
      Delay_ms(50);
    }
  for(i = 10; i <= 160; i += 10)
    b184:	2a 96       	adiw	r28, 0x0a	; 10
    b186:	ca 3a       	cpi	r28, 0xAA	; 170
    b188:	d1 05       	cpc	r29, r1
    b18a:	79 f7       	brne	.-34     	; 0xb16a <Test3+0x380>
    { Circle(120,160,i, White);
      Delay_ms(50);
    }
  Delay_ms(3000);
    b18c:	88 eb       	ldi	r24, 0xB8	; 184
    b18e:	9b e0       	ldi	r25, 0x0B	; 11
    b190:	0e 94 14 25 	call	0x4a28	; 0x4a28 <Delay_ms>
  TFT_clear_screen();
    b194:	0e 94 cf 28 	call	0x519e	; 0x519e <TFT_clear_screen>

  Rectangle(0,0, 239,319, Magenta);		// (two)
    b198:	80 e0       	ldi	r24, 0x00	; 0
    b19a:	90 e0       	ldi	r25, 0x00	; 0
    b19c:	60 e0       	ldi	r22, 0x00	; 0
    b19e:	70 e0       	ldi	r23, 0x00	; 0
    b1a0:	4f ee       	ldi	r20, 0xEF	; 239
    b1a2:	50 e0       	ldi	r21, 0x00	; 0
    b1a4:	2f e3       	ldi	r18, 0x3F	; 63
    b1a6:	31 e0       	ldi	r19, 0x01	; 1
    b1a8:	0f e1       	ldi	r16, 0x1F	; 31
    b1aa:	18 ef       	ldi	r17, 0xF8	; 248
    b1ac:	0e 94 14 33 	call	0x6628	; 0x6628 <Rectangle>
  Rectangle(1,1, 238,318, Magenta);
    b1b0:	81 e0       	ldi	r24, 0x01	; 1
    b1b2:	90 e0       	ldi	r25, 0x00	; 0
    b1b4:	61 e0       	ldi	r22, 0x01	; 1
    b1b6:	70 e0       	ldi	r23, 0x00	; 0
    b1b8:	4e ee       	ldi	r20, 0xEE	; 238
    b1ba:	50 e0       	ldi	r21, 0x00	; 0
    b1bc:	2e e3       	ldi	r18, 0x3E	; 62
    b1be:	31 e0       	ldi	r19, 0x01	; 1
    b1c0:	0e 94 14 33 	call	0x6628	; 0x6628 <Rectangle>
    b1c4:	ca e0       	ldi	r28, 0x0A	; 10
    b1c6:	d0 e0       	ldi	r29, 0x00	; 0
  for(i = 10; i <= 120; i += 10)
    { Circle(120,80,i, Green);
    b1c8:	88 e7       	ldi	r24, 0x78	; 120
    b1ca:	90 e0       	ldi	r25, 0x00	; 0
    b1cc:	60 e5       	ldi	r22, 0x50	; 80
    b1ce:	70 e0       	ldi	r23, 0x00	; 0
    b1d0:	ae 01       	movw	r20, r28
    b1d2:	20 ee       	ldi	r18, 0xE0	; 224
    b1d4:	37 e0       	ldi	r19, 0x07	; 7
    b1d6:	0e 94 e1 4c 	call	0x99c2	; 0x99c2 <Circle>
      Circle(120,240,i, Green);
    b1da:	88 e7       	ldi	r24, 0x78	; 120
    b1dc:	90 e0       	ldi	r25, 0x00	; 0
    b1de:	60 ef       	ldi	r22, 0xF0	; 240
    b1e0:	70 e0       	ldi	r23, 0x00	; 0
    b1e2:	ae 01       	movw	r20, r28
    b1e4:	20 ee       	ldi	r18, 0xE0	; 224
    b1e6:	37 e0       	ldi	r19, 0x07	; 7
    b1e8:	0e 94 e1 4c 	call	0x99c2	; 0x99c2 <Circle>
      Delay_ms(50);
    b1ec:	82 e3       	ldi	r24, 0x32	; 50
    b1ee:	90 e0       	ldi	r25, 0x00	; 0
    b1f0:	0e 94 14 25 	call	0x4a28	; 0x4a28 <Delay_ms>
  Delay_ms(3000);
  TFT_clear_screen();

  Rectangle(0,0, 239,319, Magenta);		// (two)
  Rectangle(1,1, 238,318, Magenta);
  for(i = 10; i <= 120; i += 10)
    b1f4:	2a 96       	adiw	r28, 0x0a	; 10
    b1f6:	c2 38       	cpi	r28, 0x82	; 130
    b1f8:	d1 05       	cpc	r29, r1
    b1fa:	31 f7       	brne	.-52     	; 0xb1c8 <Test3+0x3de>
    { Circle(120,80,i, Green);
      Circle(120,240,i, Green);
      Delay_ms(50);
    }
  Delay_ms(1000);
    b1fc:	88 ee       	ldi	r24, 0xE8	; 232
    b1fe:	93 e0       	ldi	r25, 0x03	; 3
    b200:	0e 94 14 25 	call	0x4a28	; 0x4a28 <Delay_ms>
    b204:	c8 e7       	ldi	r28, 0x78	; 120
    b206:	d0 e0       	ldi	r29, 0x00	; 0
  for(i = 120; i >= 10; i -= 10)
    { Circle(120,80,i, White);
    b208:	88 e7       	ldi	r24, 0x78	; 120
    b20a:	90 e0       	ldi	r25, 0x00	; 0
    b20c:	60 e5       	ldi	r22, 0x50	; 80
    b20e:	70 e0       	ldi	r23, 0x00	; 0
    b210:	ae 01       	movw	r20, r28
    b212:	2f ef       	ldi	r18, 0xFF	; 255
    b214:	3f ef       	ldi	r19, 0xFF	; 255
    b216:	0e 94 e1 4c 	call	0x99c2	; 0x99c2 <Circle>
      Circle(120,240,i, White);
    b21a:	88 e7       	ldi	r24, 0x78	; 120
    b21c:	90 e0       	ldi	r25, 0x00	; 0
    b21e:	60 ef       	ldi	r22, 0xF0	; 240
    b220:	70 e0       	ldi	r23, 0x00	; 0
    b222:	ae 01       	movw	r20, r28
    b224:	2f ef       	ldi	r18, 0xFF	; 255
    b226:	3f ef       	ldi	r19, 0xFF	; 255
    b228:	0e 94 e1 4c 	call	0x99c2	; 0x99c2 <Circle>
      Delay_ms(50);
    b22c:	82 e3       	ldi	r24, 0x32	; 50
    b22e:	90 e0       	ldi	r25, 0x00	; 0
    b230:	0e 94 14 25 	call	0x4a28	; 0x4a28 <Delay_ms>
    { Circle(120,80,i, Green);
      Circle(120,240,i, Green);
      Delay_ms(50);
    }
  Delay_ms(1000);
  for(i = 120; i >= 10; i -= 10)
    b234:	2a 97       	sbiw	r28, 0x0a	; 10
    b236:	41 f7       	brne	.-48     	; 0xb208 <Test3+0x41e>
    b238:	ca e0       	ldi	r28, 0x0A	; 10
    b23a:	d0 e0       	ldi	r29, 0x00	; 0
    { Circle(120,80,i, White);
      Circle(120,240,i, White);
      Delay_ms(50);
    }
  for(i = 10; i <= 120; i += 10)
    { Circle(120,80,i, Cyan);
    b23c:	88 e7       	ldi	r24, 0x78	; 120
    b23e:	90 e0       	ldi	r25, 0x00	; 0
    b240:	60 e5       	ldi	r22, 0x50	; 80
    b242:	70 e0       	ldi	r23, 0x00	; 0
    b244:	ae 01       	movw	r20, r28
    b246:	2f ef       	ldi	r18, 0xFF	; 255
    b248:	37 e0       	ldi	r19, 0x07	; 7
    b24a:	0e 94 e1 4c 	call	0x99c2	; 0x99c2 <Circle>
      Circle(120,240,i, Cyan);
    b24e:	88 e7       	ldi	r24, 0x78	; 120
    b250:	90 e0       	ldi	r25, 0x00	; 0
    b252:	60 ef       	ldi	r22, 0xF0	; 240
    b254:	70 e0       	ldi	r23, 0x00	; 0
    b256:	ae 01       	movw	r20, r28
    b258:	2f ef       	ldi	r18, 0xFF	; 255
    b25a:	37 e0       	ldi	r19, 0x07	; 7
    b25c:	0e 94 e1 4c 	call	0x99c2	; 0x99c2 <Circle>
      Delay_ms(50);
    b260:	82 e3       	ldi	r24, 0x32	; 50
    b262:	90 e0       	ldi	r25, 0x00	; 0
    b264:	0e 94 14 25 	call	0x4a28	; 0x4a28 <Delay_ms>
  for(i = 120; i >= 10; i -= 10)
    { Circle(120,80,i, White);
      Circle(120,240,i, White);
      Delay_ms(50);
    }
  for(i = 10; i <= 120; i += 10)
    b268:	2a 96       	adiw	r28, 0x0a	; 10
    b26a:	c2 38       	cpi	r28, 0x82	; 130
    b26c:	d1 05       	cpc	r29, r1
    b26e:	31 f7       	brne	.-52     	; 0xb23c <Test3+0x452>
    { Circle(120,80,i, Cyan);
      Circle(120,240,i, Cyan);
      Delay_ms(50);
    }
  Delay_ms(3000);
    b270:	88 eb       	ldi	r24, 0xB8	; 184
    b272:	9b e0       	ldi	r25, 0x0B	; 11
    b274:	0e 94 14 25 	call	0x4a28	; 0x4a28 <Delay_ms>
  TFT_clear_screen();
    b278:	0e 94 cf 28 	call	0x519e	; 0x519e <TFT_clear_screen>

  Rectangle(0,0, 239,319, Magenta);		// graphic show 4(sine)
    b27c:	80 e0       	ldi	r24, 0x00	; 0
    b27e:	90 e0       	ldi	r25, 0x00	; 0
    b280:	60 e0       	ldi	r22, 0x00	; 0
    b282:	70 e0       	ldi	r23, 0x00	; 0
    b284:	4f ee       	ldi	r20, 0xEF	; 239
    b286:	50 e0       	ldi	r21, 0x00	; 0
    b288:	2f e3       	ldi	r18, 0x3F	; 63
    b28a:	31 e0       	ldi	r19, 0x01	; 1
    b28c:	0f e1       	ldi	r16, 0x1F	; 31
    b28e:	18 ef       	ldi	r17, 0xF8	; 248
    b290:	0e 94 14 33 	call	0x6628	; 0x6628 <Rectangle>
  Rectangle(1,1, 238,318, Magenta);
    b294:	81 e0       	ldi	r24, 0x01	; 1
    b296:	90 e0       	ldi	r25, 0x00	; 0
    b298:	61 e0       	ldi	r22, 0x01	; 1
    b29a:	70 e0       	ldi	r23, 0x00	; 0
    b29c:	4e ee       	ldi	r20, 0xEE	; 238
    b29e:	50 e0       	ldi	r21, 0x00	; 0
    b2a0:	2e e3       	ldi	r18, 0x3E	; 62
    b2a2:	31 e0       	ldi	r19, 0x01	; 1
    b2a4:	0e 94 14 33 	call	0x6628	; 0x6628 <Rectangle>
  Line(120,0, 120,319, Magenta);
    b2a8:	88 e7       	ldi	r24, 0x78	; 120
    b2aa:	90 e0       	ldi	r25, 0x00	; 0
    b2ac:	60 e0       	ldi	r22, 0x00	; 0
    b2ae:	70 e0       	ldi	r23, 0x00	; 0
    b2b0:	48 e7       	ldi	r20, 0x78	; 120
    b2b2:	50 e0       	ldi	r21, 0x00	; 0
    b2b4:	2f e3       	ldi	r18, 0x3F	; 63
    b2b6:	31 e0       	ldi	r19, 0x01	; 1
    b2b8:	0e 94 e0 31 	call	0x63c0	; 0x63c0 <Line>
    b2bc:	ca e0       	ldi	r28, 0x0A	; 10
    b2be:	d0 e0       	ldi	r29, 0x00	; 0
  for(i = 10; i <= 120; i += 10)
    { Sine(i, 0, Green);
    b2c0:	ce 01       	movw	r24, r28
    b2c2:	60 e0       	ldi	r22, 0x00	; 0
    b2c4:	40 ee       	ldi	r20, 0xE0	; 224
    b2c6:	57 e0       	ldi	r21, 0x07	; 7
    b2c8:	0e 94 37 4c 	call	0x986e	; 0x986e <Sine>
      Delay_ms(20);
    b2cc:	84 e1       	ldi	r24, 0x14	; 20
    b2ce:	90 e0       	ldi	r25, 0x00	; 0
    b2d0:	0e 94 14 25 	call	0x4a28	; 0x4a28 <Delay_ms>
  TFT_clear_screen();

  Rectangle(0,0, 239,319, Magenta);		// graphic show 4(sine)
  Rectangle(1,1, 238,318, Magenta);
  Line(120,0, 120,319, Magenta);
  for(i = 10; i <= 120; i += 10)
    b2d4:	2a 96       	adiw	r28, 0x0a	; 10
    b2d6:	c2 38       	cpi	r28, 0x82	; 130
    b2d8:	d1 05       	cpc	r29, r1
    b2da:	91 f7       	brne	.-28     	; 0xb2c0 <Test3+0x4d6>
    { Sine(i, 0, Green);
      Delay_ms(20);
    }
  Delay_ms(1000);
    b2dc:	88 ee       	ldi	r24, 0xE8	; 232
    b2de:	93 e0       	ldi	r25, 0x03	; 3
    b2e0:	0e 94 14 25 	call	0x4a28	; 0x4a28 <Delay_ms>
    b2e4:	ca e0       	ldi	r28, 0x0A	; 10
    b2e6:	d0 e0       	ldi	r29, 0x00	; 0
  for(i = 10; i <= 120; i += 10)
    { Sine(i, 1, Blue);
    b2e8:	ce 01       	movw	r24, r28
    b2ea:	61 e0       	ldi	r22, 0x01	; 1
    b2ec:	4f e1       	ldi	r20, 0x1F	; 31
    b2ee:	50 e0       	ldi	r21, 0x00	; 0
    b2f0:	0e 94 37 4c 	call	0x986e	; 0x986e <Sine>
      Delay_ms(20);
    b2f4:	84 e1       	ldi	r24, 0x14	; 20
    b2f6:	90 e0       	ldi	r25, 0x00	; 0
    b2f8:	0e 94 14 25 	call	0x4a28	; 0x4a28 <Delay_ms>
  for(i = 10; i <= 120; i += 10)
    { Sine(i, 0, Green);
      Delay_ms(20);
    }
  Delay_ms(1000);
  for(i = 10; i <= 120; i += 10)
    b2fc:	2a 96       	adiw	r28, 0x0a	; 10
    b2fe:	c2 38       	cpi	r28, 0x82	; 130
    b300:	d1 05       	cpc	r29, r1
    b302:	91 f7       	brne	.-28     	; 0xb2e8 <Test3+0x4fe>
    { Sine(i, 1, Blue);
      Delay_ms(20);
    }
  Delay_ms(3000);
    b304:	88 eb       	ldi	r24, 0xB8	; 184
    b306:	9b e0       	ldi	r25, 0x0B	; 11
    b308:	0e 94 14 25 	call	0x4a28	; 0x4a28 <Delay_ms>
}
    b30c:	df 91       	pop	r29
    b30e:	cf 91       	pop	r28
    b310:	1f 91       	pop	r17
    b312:	0f 91       	pop	r16
    b314:	ff 90       	pop	r15
    b316:	ef 90       	pop	r14
    b318:	df 90       	pop	r13
    b31a:	cf 90       	pop	r12
    b31c:	bf 90       	pop	r11
    b31e:	af 90       	pop	r10
    b320:	08 95       	ret

0000b322 <main>:
void TFT_English_pixel(U16 Xpixel,U16 Ypixel, U08 code); // write a English ASCII character

/* ---------------------------------------------------------------------------- */

int main(void)
{
    b322:	0f 93       	push	r16
    b324:	1f 93       	push	r17
  unsigned char key = no_key, test = 1;

  MCU_initialize();          			// initialize ATmega128A MCU 
    b326:	0e 94 ef 24 	call	0x49de	; 0x49de <MCU_initialize>
  Delay_ms(200);
    b32a:	88 ec       	ldi	r24, 0xC8	; 200
    b32c:	90 e0       	ldi	r25, 0x00	; 0
    b32e:	0e 94 14 25 	call	0x4a28	; 0x4a28 <Delay_ms>
  LCD_initialize();				// initialize text LCD module
    b332:	0e 94 8e 25 	call	0x4b1c	; 0x4b1c <LCD_initialize>
  TFT_initialize();				// initialize TFT-LCD module
    b336:	0e 94 d4 28 	call	0x51a8	; 0x51a8 <TFT_initialize>

  LCD_string(0x80," OK-128TFT V1.0 ");		// display title
    b33a:	80 e8       	ldi	r24, 0x80	; 128
    b33c:	6e e9       	ldi	r22, 0x9E	; 158
    b33e:	7a e0       	ldi	r23, 0x0A	; 10
    b340:	0e 94 aa 25 	call	0x4b54	; 0x4b54 <LCD_string>
  LCD_string(0xC0,"  by  D.Y.Yoon  ");
    b344:	80 ec       	ldi	r24, 0xC0	; 192
    b346:	6f ea       	ldi	r22, 0xAF	; 175
    b348:	7a e0       	ldi	r23, 0x0A	; 10
    b34a:	0e 94 aa 25 	call	0x4b54	; 0x4b54 <LCD_string>

  TFT_string(2,10,White,Magenta,"OK-128TFT   ");
    b34e:	82 e0       	ldi	r24, 0x02	; 2
    b350:	6a e0       	ldi	r22, 0x0A	; 10
    b352:	4f ef       	ldi	r20, 0xFF	; 255
    b354:	5f ef       	ldi	r21, 0xFF	; 255
    b356:	2f e1       	ldi	r18, 0x1F	; 31
    b358:	38 ef       	ldi	r19, 0xF8	; 248
    b35a:	00 e0       	ldi	r16, 0x00	; 0
    b35c:	11 e0       	ldi	r17, 0x01	; 1
    b35e:	0e 94 28 2f 	call	0x5e50	; 0x5e50 <TFT_string>
  TFT_string(2,20,Cyan,   Black,"      2011 10 31      ");
    b362:	82 e0       	ldi	r24, 0x02	; 2
    b364:	64 e1       	ldi	r22, 0x14	; 20
    b366:	4f ef       	ldi	r20, 0xFF	; 255
    b368:	57 e0       	ldi	r21, 0x07	; 7
    b36a:	20 e0       	ldi	r18, 0x00	; 0
    b36c:	30 e0       	ldi	r19, 0x00	; 0
    b36e:	00 ec       	ldi	r16, 0xC0	; 192
    b370:	1a e0       	ldi	r17, 0x0A	; 10
    b372:	0e 94 28 2f 	call	0x5e50	; 0x5e50 <TFT_string>
  TFT_string(2,25,Green,  Black,"                 ");
    b376:	82 e0       	ldi	r24, 0x02	; 2
    b378:	69 e1       	ldi	r22, 0x19	; 25
    b37a:	40 ee       	ldi	r20, 0xE0	; 224
    b37c:	57 e0       	ldi	r21, 0x07	; 7
    b37e:	20 e0       	ldi	r18, 0x00	; 0
    b380:	30 e0       	ldi	r19, 0x00	; 0
    b382:	0d ed       	ldi	r16, 0xDD	; 221
    b384:	1a e0       	ldi	r17, 0x0A	; 10
    b386:	0e 94 28 2f 	call	0x5e50	; 0x5e50 <TFT_string>
  TFT_string(2,30,Yellow, Black,"  ( :  Ohm)  ");
    b38a:	82 e0       	ldi	r24, 0x02	; 2
    b38c:	6e e1       	ldi	r22, 0x1E	; 30
    b38e:	40 ee       	ldi	r20, 0xE0	; 224
    b390:	5f ef       	ldi	r21, 0xFF	; 255
    b392:	20 e0       	ldi	r18, 0x00	; 0
    b394:	30 e0       	ldi	r19, 0x00	; 0
    b396:	09 ef       	ldi	r16, 0xF9	; 249
    b398:	1a e0       	ldi	r17, 0x0A	; 10
    b39a:	0e 94 28 2f 	call	0x5e50	; 0x5e50 <TFT_string>

  sbi(PORTD,4);					// booting LED and beep
    b39e:	94 9a       	sbi	0x12, 4	; 18
  Beep();
    b3a0:	0e 94 31 25 	call	0x4a62	; 0x4a62 <Beep>
  Delay_ms(100);
    b3a4:	84 e6       	ldi	r24, 0x64	; 100
    b3a6:	90 e0       	ldi	r25, 0x00	; 0
    b3a8:	0e 94 14 25 	call	0x4a28	; 0x4a28 <Delay_ms>
  cbi(PORTD,4);
    b3ac:	94 98       	cbi	0x12, 4	; 18
  sbi(PORTD,5);
    b3ae:	95 9a       	sbi	0x12, 5	; 18
  Beep();
    b3b0:	0e 94 31 25 	call	0x4a62	; 0x4a62 <Beep>
  Delay_ms(100);
    b3b4:	84 e6       	ldi	r24, 0x64	; 100
    b3b6:	90 e0       	ldi	r25, 0x00	; 0
    b3b8:	0e 94 14 25 	call	0x4a28	; 0x4a28 <Delay_ms>
  cbi(PORTD,5);
    b3bc:	95 98       	cbi	0x12, 5	; 18
  sbi(PORTD,6);
    b3be:	96 9a       	sbi	0x12, 6	; 18
  Beep();
    b3c0:	0e 94 31 25 	call	0x4a62	; 0x4a62 <Beep>
  Delay_ms(100);
    b3c4:	84 e6       	ldi	r24, 0x64	; 100
    b3c6:	90 e0       	ldi	r25, 0x00	; 0
    b3c8:	0e 94 14 25 	call	0x4a28	; 0x4a28 <Delay_ms>
  cbi(PORTD,6);
    b3cc:	96 98       	cbi	0x12, 6	; 18
  sbi(PORTD,7);
    b3ce:	97 9a       	sbi	0x12, 7	; 18
  Beep();
    b3d0:	0e 94 31 25 	call	0x4a62	; 0x4a62 <Beep>
  Delay_ms(100);
    b3d4:	84 e6       	ldi	r24, 0x64	; 100
    b3d6:	90 e0       	ldi	r25, 0x00	; 0
    b3d8:	0e 94 14 25 	call	0x4a28	; 0x4a28 <Delay_ms>
  cbi(PORTD,7);
    b3dc:	97 98       	cbi	0x12, 7	; 18
  Delay_ms(2000);
    b3de:	80 ed       	ldi	r24, 0xD0	; 208
    b3e0:	97 e0       	ldi	r25, 0x07	; 7
    b3e2:	0e 94 14 25 	call	0x4a28	; 0x4a28 <Delay_ms>

  LCD_string(0xC0,"    Test  01    ");		// display test number
    b3e6:	80 ec       	ldi	r24, 0xC0	; 192
    b3e8:	65 e1       	ldi	r22, 0x15	; 21
    b3ea:	7b e0       	ldi	r23, 0x0B	; 11
    b3ec:	0e 94 aa 25 	call	0x4b54	; 0x4b54 <LCD_string>

  Display_screen();				// display test screen
    b3f0:	0e 94 0e 36 	call	0x6c1c	; 0x6c1c <Display_screen>
  Display_test(test);				// display test number
    b3f4:	81 e0       	ldi	r24, 0x01	; 1
    b3f6:	0e 94 3d 37 	call	0x6e7a	; 0x6e7a <Display_test>
    b3fa:	8f e0       	ldi	r24, 0x0F	; 15
    b3fc:	11 e0       	ldi	r17, 0x01	; 1
    b3fe:	02 c0       	rjmp	.+4      	; 0xb404 <main+0xe2>

  while(1)
    { while(key == no_key)			// wait key input
        key = Key_input();
    b400:	0e 94 47 25 	call	0x4a8e	; 0x4a8e <Key_input>

  Display_screen();				// display test screen
  Display_test(test);				// display test number

  while(1)
    { while(key == no_key)			// wait key input
    b404:	8f 30       	cpi	r24, 0x0F	; 15
    b406:	e1 f3       	breq	.-8      	; 0xb400 <main+0xde>
        key = Key_input();

      if(key == KEY3)				// if KEY3, decrenment test number
    b408:	8b 30       	cpi	r24, 0x0B	; 11
    b40a:	29 f4       	brne	.+10     	; 0xb416 <main+0xf4>
       { key = no_key;
         test--;
    b40c:	11 50       	subi	r17, 0x01	; 1
         if(test == 0) test = 11;
    b40e:	09 f0       	breq	.+2      	; 0xb412 <main+0xf0>
    b410:	45 c0       	rjmp	.+138    	; 0xb49c <main+0x17a>
    b412:	1b e0       	ldi	r17, 0x0B	; 11
    b414:	43 c0       	rjmp	.+134    	; 0xb49c <main+0x17a>
         Display_test(test);
       }
      else if(key == KEY4)			// if KEY4, increnment test number
    b416:	87 30       	cpi	r24, 0x07	; 7
    b418:	29 f4       	brne	.+10     	; 0xb424 <main+0x102>
       { key = no_key;
         test++;
    b41a:	1f 5f       	subi	r17, 0xFF	; 255
         if(test > 11) test = 1;
    b41c:	1c 30       	cpi	r17, 0x0C	; 12
    b41e:	f0 f1       	brcs	.+124    	; 0xb49c <main+0x17a>
    b420:	11 e0       	ldi	r17, 0x01	; 1
    b422:	3c c0       	rjmp	.+120    	; 0xb49c <main+0x17a>
         Display_test(test);
       }
      else if(key == KEY2)			// if KEY2, ignore and skip
    b424:	8d 30       	cpi	r24, 0x0D	; 13
    b426:	61 f3       	breq	.-40     	; 0xb400 <main+0xde>
       key = no_key;
      else if(key == KEY1)			// if KEY1, run test number
    b428:	8e 30       	cpi	r24, 0x0E	; 14
    b42a:	61 f7       	brne	.-40     	; 0xb404 <main+0xe2>
       { key = no_key;
         if(test == 1) Test1();
    b42c:	11 30       	cpi	r17, 0x01	; 1
    b42e:	19 f4       	brne	.+6      	; 0xb436 <main+0x114>
    b430:	0e 94 79 39 	call	0x72f2	; 0x72f2 <Test1>
    b434:	31 c0       	rjmp	.+98     	; 0xb498 <main+0x176>
         else if(test == 2) Test2();
    b436:	12 30       	cpi	r17, 0x02	; 2
    b438:	19 f4       	brne	.+6      	; 0xb440 <main+0x11e>
    b43a:	0e 94 19 3b 	call	0x7632	; 0x7632 <Test2>
    b43e:	2c c0       	rjmp	.+88     	; 0xb498 <main+0x176>
         else if(test == 3) Test3();
    b440:	13 30       	cpi	r17, 0x03	; 3
    b442:	19 f4       	brne	.+6      	; 0xb44a <main+0x128>
    b444:	0e 94 f5 56 	call	0xadea	; 0xadea <Test3>
    b448:	27 c0       	rjmp	.+78     	; 0xb498 <main+0x176>
         else if(test == 4) Test4();
    b44a:	14 30       	cpi	r17, 0x04	; 4
    b44c:	19 f4       	brne	.+6      	; 0xb454 <main+0x132>
    b44e:	0e 94 12 3d 	call	0x7a24	; 0x7a24 <Test4>
    b452:	22 c0       	rjmp	.+68     	; 0xb498 <main+0x176>
         else if(test == 5) Test5();
    b454:	15 30       	cpi	r17, 0x05	; 5
    b456:	19 f4       	brne	.+6      	; 0xb45e <main+0x13c>
    b458:	0e 94 53 3e 	call	0x7ca6	; 0x7ca6 <Test5>
    b45c:	1d c0       	rjmp	.+58     	; 0xb498 <main+0x176>
         else if(test == 6) Test6();
    b45e:	16 30       	cpi	r17, 0x06	; 6
    b460:	19 f4       	brne	.+6      	; 0xb468 <main+0x146>
    b462:	0e 94 2f 3f 	call	0x7e5e	; 0x7e5e <Test6>
    b466:	18 c0       	rjmp	.+48     	; 0xb498 <main+0x176>
         else if(test == 7) Test7();
    b468:	17 30       	cpi	r17, 0x07	; 7
    b46a:	19 f4       	brne	.+6      	; 0xb472 <main+0x150>
    b46c:	0e 94 f5 3f 	call	0x7fea	; 0x7fea <Test7>
    b470:	13 c0       	rjmp	.+38     	; 0xb498 <main+0x176>
         else if(test == 8) Test8();
    b472:	18 30       	cpi	r17, 0x08	; 8
    b474:	19 f4       	brne	.+6      	; 0xb47c <main+0x15a>
    b476:	0e 94 52 4b 	call	0x96a4	; 0x96a4 <Test8>
    b47a:	0e c0       	rjmp	.+28     	; 0xb498 <main+0x176>
         else if(test == 9) Test9();
    b47c:	19 30       	cpi	r17, 0x09	; 9
    b47e:	19 f4       	brne	.+6      	; 0xb486 <main+0x164>
    b480:	0e 94 ae 41 	call	0x835c	; 0x835c <Test9>
    b484:	09 c0       	rjmp	.+18     	; 0xb498 <main+0x176>
         else if(test == 10) Test10();
    b486:	1a 30       	cpi	r17, 0x0A	; 10
    b488:	19 f4       	brne	.+6      	; 0xb490 <main+0x16e>
    b48a:	0e 94 52 47 	call	0x8ea4	; 0x8ea4 <Test10>
    b48e:	04 c0       	rjmp	.+8      	; 0xb498 <main+0x176>
         else if(test == 11) Test11();
    b490:	1b 30       	cpi	r17, 0x0B	; 11
    b492:	11 f4       	brne	.+4      	; 0xb498 <main+0x176>
    b494:	0e 94 92 56 	call	0xad24	; 0xad24 <Test11>

         Display_screen();			// display test screen
    b498:	0e 94 0e 36 	call	0x6c1c	; 0x6c1c <Display_screen>
         Display_test(test);			// display test number
    b49c:	81 2f       	mov	r24, r17
    b49e:	0e 94 3d 37 	call	0x6e7a	; 0x6e7a <Display_test>
    b4a2:	ae cf       	rjmp	.-164    	; 0xb400 <main+0xde>

0000b4a4 <__subsf3>:
    b4a4:	50 58       	subi	r21, 0x80	; 128

0000b4a6 <__addsf3>:
    b4a6:	bb 27       	eor	r27, r27
    b4a8:	aa 27       	eor	r26, r26
    b4aa:	0e d0       	rcall	.+28     	; 0xb4c8 <__addsf3x>
    b4ac:	78 c1       	rjmp	.+752    	; 0xb79e <__fp_round>
    b4ae:	41 d1       	rcall	.+642    	; 0xb732 <__fp_pscA>
    b4b0:	30 f0       	brcs	.+12     	; 0xb4be <__addsf3+0x18>
    b4b2:	46 d1       	rcall	.+652    	; 0xb740 <__fp_pscB>
    b4b4:	20 f0       	brcs	.+8      	; 0xb4be <__addsf3+0x18>
    b4b6:	31 f4       	brne	.+12     	; 0xb4c4 <__addsf3+0x1e>
    b4b8:	9f 3f       	cpi	r25, 0xFF	; 255
    b4ba:	11 f4       	brne	.+4      	; 0xb4c0 <__addsf3+0x1a>
    b4bc:	1e f4       	brtc	.+6      	; 0xb4c4 <__addsf3+0x1e>
    b4be:	36 c1       	rjmp	.+620    	; 0xb72c <__fp_nan>
    b4c0:	0e f4       	brtc	.+2      	; 0xb4c4 <__addsf3+0x1e>
    b4c2:	e0 95       	com	r30
    b4c4:	e7 fb       	bst	r30, 7
    b4c6:	2c c1       	rjmp	.+600    	; 0xb720 <__fp_inf>

0000b4c8 <__addsf3x>:
    b4c8:	e9 2f       	mov	r30, r25
    b4ca:	8b d1       	rcall	.+790    	; 0xb7e2 <__fp_split3>
    b4cc:	80 f3       	brcs	.-32     	; 0xb4ae <__addsf3+0x8>
    b4ce:	ba 17       	cp	r27, r26
    b4d0:	62 07       	cpc	r22, r18
    b4d2:	73 07       	cpc	r23, r19
    b4d4:	84 07       	cpc	r24, r20
    b4d6:	95 07       	cpc	r25, r21
    b4d8:	18 f0       	brcs	.+6      	; 0xb4e0 <__addsf3x+0x18>
    b4da:	71 f4       	brne	.+28     	; 0xb4f8 <__addsf3x+0x30>
    b4dc:	9e f5       	brtc	.+102    	; 0xb544 <__addsf3x+0x7c>
    b4de:	a3 c1       	rjmp	.+838    	; 0xb826 <__fp_zero>
    b4e0:	0e f4       	brtc	.+2      	; 0xb4e4 <__addsf3x+0x1c>
    b4e2:	e0 95       	com	r30
    b4e4:	0b 2e       	mov	r0, r27
    b4e6:	ba 2f       	mov	r27, r26
    b4e8:	a0 2d       	mov	r26, r0
    b4ea:	0b 01       	movw	r0, r22
    b4ec:	b9 01       	movw	r22, r18
    b4ee:	90 01       	movw	r18, r0
    b4f0:	0c 01       	movw	r0, r24
    b4f2:	ca 01       	movw	r24, r20
    b4f4:	a0 01       	movw	r20, r0
    b4f6:	11 24       	eor	r1, r1
    b4f8:	ff 27       	eor	r31, r31
    b4fa:	59 1b       	sub	r21, r25
    b4fc:	99 f0       	breq	.+38     	; 0xb524 <__addsf3x+0x5c>
    b4fe:	59 3f       	cpi	r21, 0xF9	; 249
    b500:	50 f4       	brcc	.+20     	; 0xb516 <__addsf3x+0x4e>
    b502:	50 3e       	cpi	r21, 0xE0	; 224
    b504:	68 f1       	brcs	.+90     	; 0xb560 <__addsf3x+0x98>
    b506:	1a 16       	cp	r1, r26
    b508:	f0 40       	sbci	r31, 0x00	; 0
    b50a:	a2 2f       	mov	r26, r18
    b50c:	23 2f       	mov	r18, r19
    b50e:	34 2f       	mov	r19, r20
    b510:	44 27       	eor	r20, r20
    b512:	58 5f       	subi	r21, 0xF8	; 248
    b514:	f3 cf       	rjmp	.-26     	; 0xb4fc <__addsf3x+0x34>
    b516:	46 95       	lsr	r20
    b518:	37 95       	ror	r19
    b51a:	27 95       	ror	r18
    b51c:	a7 95       	ror	r26
    b51e:	f0 40       	sbci	r31, 0x00	; 0
    b520:	53 95       	inc	r21
    b522:	c9 f7       	brne	.-14     	; 0xb516 <__addsf3x+0x4e>
    b524:	7e f4       	brtc	.+30     	; 0xb544 <__addsf3x+0x7c>
    b526:	1f 16       	cp	r1, r31
    b528:	ba 0b       	sbc	r27, r26
    b52a:	62 0b       	sbc	r22, r18
    b52c:	73 0b       	sbc	r23, r19
    b52e:	84 0b       	sbc	r24, r20
    b530:	ba f0       	brmi	.+46     	; 0xb560 <__addsf3x+0x98>
    b532:	91 50       	subi	r25, 0x01	; 1
    b534:	a1 f0       	breq	.+40     	; 0xb55e <__addsf3x+0x96>
    b536:	ff 0f       	add	r31, r31
    b538:	bb 1f       	adc	r27, r27
    b53a:	66 1f       	adc	r22, r22
    b53c:	77 1f       	adc	r23, r23
    b53e:	88 1f       	adc	r24, r24
    b540:	c2 f7       	brpl	.-16     	; 0xb532 <__addsf3x+0x6a>
    b542:	0e c0       	rjmp	.+28     	; 0xb560 <__addsf3x+0x98>
    b544:	ba 0f       	add	r27, r26
    b546:	62 1f       	adc	r22, r18
    b548:	73 1f       	adc	r23, r19
    b54a:	84 1f       	adc	r24, r20
    b54c:	48 f4       	brcc	.+18     	; 0xb560 <__addsf3x+0x98>
    b54e:	87 95       	ror	r24
    b550:	77 95       	ror	r23
    b552:	67 95       	ror	r22
    b554:	b7 95       	ror	r27
    b556:	f7 95       	ror	r31
    b558:	9e 3f       	cpi	r25, 0xFE	; 254
    b55a:	08 f0       	brcs	.+2      	; 0xb55e <__addsf3x+0x96>
    b55c:	b3 cf       	rjmp	.-154    	; 0xb4c4 <__addsf3+0x1e>
    b55e:	93 95       	inc	r25
    b560:	88 0f       	add	r24, r24
    b562:	08 f0       	brcs	.+2      	; 0xb566 <__addsf3x+0x9e>
    b564:	99 27       	eor	r25, r25
    b566:	ee 0f       	add	r30, r30
    b568:	97 95       	ror	r25
    b56a:	87 95       	ror	r24
    b56c:	08 95       	ret

0000b56e <cos>:
    b56e:	f0 d0       	rcall	.+480    	; 0xb750 <__fp_rempio2>
    b570:	e3 95       	inc	r30
    b572:	26 c1       	rjmp	.+588    	; 0xb7c0 <__fp_sinus>

0000b574 <__divsf3>:
    b574:	0c d0       	rcall	.+24     	; 0xb58e <__divsf3x>
    b576:	13 c1       	rjmp	.+550    	; 0xb79e <__fp_round>
    b578:	e3 d0       	rcall	.+454    	; 0xb740 <__fp_pscB>
    b57a:	40 f0       	brcs	.+16     	; 0xb58c <__divsf3+0x18>
    b57c:	da d0       	rcall	.+436    	; 0xb732 <__fp_pscA>
    b57e:	30 f0       	brcs	.+12     	; 0xb58c <__divsf3+0x18>
    b580:	21 f4       	brne	.+8      	; 0xb58a <__divsf3+0x16>
    b582:	5f 3f       	cpi	r21, 0xFF	; 255
    b584:	19 f0       	breq	.+6      	; 0xb58c <__divsf3+0x18>
    b586:	cc c0       	rjmp	.+408    	; 0xb720 <__fp_inf>
    b588:	51 11       	cpse	r21, r1
    b58a:	4e c1       	rjmp	.+668    	; 0xb828 <__fp_szero>
    b58c:	cf c0       	rjmp	.+414    	; 0xb72c <__fp_nan>

0000b58e <__divsf3x>:
    b58e:	29 d1       	rcall	.+594    	; 0xb7e2 <__fp_split3>
    b590:	98 f3       	brcs	.-26     	; 0xb578 <__divsf3+0x4>

0000b592 <__divsf3_pse>:
    b592:	99 23       	and	r25, r25
    b594:	c9 f3       	breq	.-14     	; 0xb588 <__divsf3+0x14>
    b596:	55 23       	and	r21, r21
    b598:	b1 f3       	breq	.-20     	; 0xb586 <__divsf3+0x12>
    b59a:	95 1b       	sub	r25, r21
    b59c:	55 0b       	sbc	r21, r21
    b59e:	bb 27       	eor	r27, r27
    b5a0:	aa 27       	eor	r26, r26
    b5a2:	62 17       	cp	r22, r18
    b5a4:	73 07       	cpc	r23, r19
    b5a6:	84 07       	cpc	r24, r20
    b5a8:	38 f0       	brcs	.+14     	; 0xb5b8 <__divsf3_pse+0x26>
    b5aa:	9f 5f       	subi	r25, 0xFF	; 255
    b5ac:	5f 4f       	sbci	r21, 0xFF	; 255
    b5ae:	22 0f       	add	r18, r18
    b5b0:	33 1f       	adc	r19, r19
    b5b2:	44 1f       	adc	r20, r20
    b5b4:	aa 1f       	adc	r26, r26
    b5b6:	a9 f3       	breq	.-22     	; 0xb5a2 <__divsf3_pse+0x10>
    b5b8:	33 d0       	rcall	.+102    	; 0xb620 <__divsf3_pse+0x8e>
    b5ba:	0e 2e       	mov	r0, r30
    b5bc:	3a f0       	brmi	.+14     	; 0xb5cc <__divsf3_pse+0x3a>
    b5be:	e0 e8       	ldi	r30, 0x80	; 128
    b5c0:	30 d0       	rcall	.+96     	; 0xb622 <__divsf3_pse+0x90>
    b5c2:	91 50       	subi	r25, 0x01	; 1
    b5c4:	50 40       	sbci	r21, 0x00	; 0
    b5c6:	e6 95       	lsr	r30
    b5c8:	00 1c       	adc	r0, r0
    b5ca:	ca f7       	brpl	.-14     	; 0xb5be <__divsf3_pse+0x2c>
    b5cc:	29 d0       	rcall	.+82     	; 0xb620 <__divsf3_pse+0x8e>
    b5ce:	fe 2f       	mov	r31, r30
    b5d0:	27 d0       	rcall	.+78     	; 0xb620 <__divsf3_pse+0x8e>
    b5d2:	66 0f       	add	r22, r22
    b5d4:	77 1f       	adc	r23, r23
    b5d6:	88 1f       	adc	r24, r24
    b5d8:	bb 1f       	adc	r27, r27
    b5da:	26 17       	cp	r18, r22
    b5dc:	37 07       	cpc	r19, r23
    b5de:	48 07       	cpc	r20, r24
    b5e0:	ab 07       	cpc	r26, r27
    b5e2:	b0 e8       	ldi	r27, 0x80	; 128
    b5e4:	09 f0       	breq	.+2      	; 0xb5e8 <__divsf3_pse+0x56>
    b5e6:	bb 0b       	sbc	r27, r27
    b5e8:	80 2d       	mov	r24, r0
    b5ea:	bf 01       	movw	r22, r30
    b5ec:	ff 27       	eor	r31, r31
    b5ee:	93 58       	subi	r25, 0x83	; 131
    b5f0:	5f 4f       	sbci	r21, 0xFF	; 255
    b5f2:	2a f0       	brmi	.+10     	; 0xb5fe <__divsf3_pse+0x6c>
    b5f4:	9e 3f       	cpi	r25, 0xFE	; 254
    b5f6:	51 05       	cpc	r21, r1
    b5f8:	68 f0       	brcs	.+26     	; 0xb614 <__divsf3_pse+0x82>
    b5fa:	92 c0       	rjmp	.+292    	; 0xb720 <__fp_inf>
    b5fc:	15 c1       	rjmp	.+554    	; 0xb828 <__fp_szero>
    b5fe:	5f 3f       	cpi	r21, 0xFF	; 255
    b600:	ec f3       	brlt	.-6      	; 0xb5fc <__divsf3_pse+0x6a>
    b602:	98 3e       	cpi	r25, 0xE8	; 232
    b604:	dc f3       	brlt	.-10     	; 0xb5fc <__divsf3_pse+0x6a>
    b606:	86 95       	lsr	r24
    b608:	77 95       	ror	r23
    b60a:	67 95       	ror	r22
    b60c:	b7 95       	ror	r27
    b60e:	f7 95       	ror	r31
    b610:	9f 5f       	subi	r25, 0xFF	; 255
    b612:	c9 f7       	brne	.-14     	; 0xb606 <__divsf3_pse+0x74>
    b614:	88 0f       	add	r24, r24
    b616:	91 1d       	adc	r25, r1
    b618:	96 95       	lsr	r25
    b61a:	87 95       	ror	r24
    b61c:	97 f9       	bld	r25, 7
    b61e:	08 95       	ret
    b620:	e1 e0       	ldi	r30, 0x01	; 1
    b622:	66 0f       	add	r22, r22
    b624:	77 1f       	adc	r23, r23
    b626:	88 1f       	adc	r24, r24
    b628:	bb 1f       	adc	r27, r27
    b62a:	62 17       	cp	r22, r18
    b62c:	73 07       	cpc	r23, r19
    b62e:	84 07       	cpc	r24, r20
    b630:	ba 07       	cpc	r27, r26
    b632:	20 f0       	brcs	.+8      	; 0xb63c <__divsf3_pse+0xaa>
    b634:	62 1b       	sub	r22, r18
    b636:	73 0b       	sbc	r23, r19
    b638:	84 0b       	sbc	r24, r20
    b63a:	ba 0b       	sbc	r27, r26
    b63c:	ee 1f       	adc	r30, r30
    b63e:	88 f7       	brcc	.-30     	; 0xb622 <__divsf3_pse+0x90>
    b640:	e0 95       	com	r30
    b642:	08 95       	ret

0000b644 <__fixsfsi>:
    b644:	04 d0       	rcall	.+8      	; 0xb64e <__fixunssfsi>
    b646:	68 94       	set
    b648:	b1 11       	cpse	r27, r1
    b64a:	ee c0       	rjmp	.+476    	; 0xb828 <__fp_szero>
    b64c:	08 95       	ret

0000b64e <__fixunssfsi>:
    b64e:	d1 d0       	rcall	.+418    	; 0xb7f2 <__fp_splitA>
    b650:	88 f0       	brcs	.+34     	; 0xb674 <__fixunssfsi+0x26>
    b652:	9f 57       	subi	r25, 0x7F	; 127
    b654:	90 f0       	brcs	.+36     	; 0xb67a <__fixunssfsi+0x2c>
    b656:	b9 2f       	mov	r27, r25
    b658:	99 27       	eor	r25, r25
    b65a:	b7 51       	subi	r27, 0x17	; 23
    b65c:	a0 f0       	brcs	.+40     	; 0xb686 <__fixunssfsi+0x38>
    b65e:	d1 f0       	breq	.+52     	; 0xb694 <__fixunssfsi+0x46>
    b660:	66 0f       	add	r22, r22
    b662:	77 1f       	adc	r23, r23
    b664:	88 1f       	adc	r24, r24
    b666:	99 1f       	adc	r25, r25
    b668:	1a f0       	brmi	.+6      	; 0xb670 <__fixunssfsi+0x22>
    b66a:	ba 95       	dec	r27
    b66c:	c9 f7       	brne	.-14     	; 0xb660 <__fixunssfsi+0x12>
    b66e:	12 c0       	rjmp	.+36     	; 0xb694 <__fixunssfsi+0x46>
    b670:	b1 30       	cpi	r27, 0x01	; 1
    b672:	81 f0       	breq	.+32     	; 0xb694 <__fixunssfsi+0x46>
    b674:	d8 d0       	rcall	.+432    	; 0xb826 <__fp_zero>
    b676:	b1 e0       	ldi	r27, 0x01	; 1
    b678:	08 95       	ret
    b67a:	d5 c0       	rjmp	.+426    	; 0xb826 <__fp_zero>
    b67c:	67 2f       	mov	r22, r23
    b67e:	78 2f       	mov	r23, r24
    b680:	88 27       	eor	r24, r24
    b682:	b8 5f       	subi	r27, 0xF8	; 248
    b684:	39 f0       	breq	.+14     	; 0xb694 <__fixunssfsi+0x46>
    b686:	b9 3f       	cpi	r27, 0xF9	; 249
    b688:	cc f3       	brlt	.-14     	; 0xb67c <__fixunssfsi+0x2e>
    b68a:	86 95       	lsr	r24
    b68c:	77 95       	ror	r23
    b68e:	67 95       	ror	r22
    b690:	b3 95       	inc	r27
    b692:	d9 f7       	brne	.-10     	; 0xb68a <__fixunssfsi+0x3c>
    b694:	3e f4       	brtc	.+14     	; 0xb6a4 <__fixunssfsi+0x56>
    b696:	90 95       	com	r25
    b698:	80 95       	com	r24
    b69a:	70 95       	com	r23
    b69c:	61 95       	neg	r22
    b69e:	7f 4f       	sbci	r23, 0xFF	; 255
    b6a0:	8f 4f       	sbci	r24, 0xFF	; 255
    b6a2:	9f 4f       	sbci	r25, 0xFF	; 255
    b6a4:	08 95       	ret

0000b6a6 <__floatunsisf>:
    b6a6:	e8 94       	clt
    b6a8:	09 c0       	rjmp	.+18     	; 0xb6bc <__floatsisf+0x12>

0000b6aa <__floatsisf>:
    b6aa:	97 fb       	bst	r25, 7
    b6ac:	3e f4       	brtc	.+14     	; 0xb6bc <__floatsisf+0x12>
    b6ae:	90 95       	com	r25
    b6b0:	80 95       	com	r24
    b6b2:	70 95       	com	r23
    b6b4:	61 95       	neg	r22
    b6b6:	7f 4f       	sbci	r23, 0xFF	; 255
    b6b8:	8f 4f       	sbci	r24, 0xFF	; 255
    b6ba:	9f 4f       	sbci	r25, 0xFF	; 255
    b6bc:	99 23       	and	r25, r25
    b6be:	a9 f0       	breq	.+42     	; 0xb6ea <__floatsisf+0x40>
    b6c0:	f9 2f       	mov	r31, r25
    b6c2:	96 e9       	ldi	r25, 0x96	; 150
    b6c4:	bb 27       	eor	r27, r27
    b6c6:	93 95       	inc	r25
    b6c8:	f6 95       	lsr	r31
    b6ca:	87 95       	ror	r24
    b6cc:	77 95       	ror	r23
    b6ce:	67 95       	ror	r22
    b6d0:	b7 95       	ror	r27
    b6d2:	f1 11       	cpse	r31, r1
    b6d4:	f8 cf       	rjmp	.-16     	; 0xb6c6 <__floatsisf+0x1c>
    b6d6:	fa f4       	brpl	.+62     	; 0xb716 <__floatsisf+0x6c>
    b6d8:	bb 0f       	add	r27, r27
    b6da:	11 f4       	brne	.+4      	; 0xb6e0 <__floatsisf+0x36>
    b6dc:	60 ff       	sbrs	r22, 0
    b6de:	1b c0       	rjmp	.+54     	; 0xb716 <__floatsisf+0x6c>
    b6e0:	6f 5f       	subi	r22, 0xFF	; 255
    b6e2:	7f 4f       	sbci	r23, 0xFF	; 255
    b6e4:	8f 4f       	sbci	r24, 0xFF	; 255
    b6e6:	9f 4f       	sbci	r25, 0xFF	; 255
    b6e8:	16 c0       	rjmp	.+44     	; 0xb716 <__floatsisf+0x6c>
    b6ea:	88 23       	and	r24, r24
    b6ec:	11 f0       	breq	.+4      	; 0xb6f2 <__floatsisf+0x48>
    b6ee:	96 e9       	ldi	r25, 0x96	; 150
    b6f0:	11 c0       	rjmp	.+34     	; 0xb714 <__floatsisf+0x6a>
    b6f2:	77 23       	and	r23, r23
    b6f4:	21 f0       	breq	.+8      	; 0xb6fe <__floatsisf+0x54>
    b6f6:	9e e8       	ldi	r25, 0x8E	; 142
    b6f8:	87 2f       	mov	r24, r23
    b6fa:	76 2f       	mov	r23, r22
    b6fc:	05 c0       	rjmp	.+10     	; 0xb708 <__floatsisf+0x5e>
    b6fe:	66 23       	and	r22, r22
    b700:	71 f0       	breq	.+28     	; 0xb71e <__floatsisf+0x74>
    b702:	96 e8       	ldi	r25, 0x86	; 134
    b704:	86 2f       	mov	r24, r22
    b706:	70 e0       	ldi	r23, 0x00	; 0
    b708:	60 e0       	ldi	r22, 0x00	; 0
    b70a:	2a f0       	brmi	.+10     	; 0xb716 <__floatsisf+0x6c>
    b70c:	9a 95       	dec	r25
    b70e:	66 0f       	add	r22, r22
    b710:	77 1f       	adc	r23, r23
    b712:	88 1f       	adc	r24, r24
    b714:	da f7       	brpl	.-10     	; 0xb70c <__floatsisf+0x62>
    b716:	88 0f       	add	r24, r24
    b718:	96 95       	lsr	r25
    b71a:	87 95       	ror	r24
    b71c:	97 f9       	bld	r25, 7
    b71e:	08 95       	ret

0000b720 <__fp_inf>:
    b720:	97 f9       	bld	r25, 7
    b722:	9f 67       	ori	r25, 0x7F	; 127
    b724:	80 e8       	ldi	r24, 0x80	; 128
    b726:	70 e0       	ldi	r23, 0x00	; 0
    b728:	60 e0       	ldi	r22, 0x00	; 0
    b72a:	08 95       	ret

0000b72c <__fp_nan>:
    b72c:	9f ef       	ldi	r25, 0xFF	; 255
    b72e:	80 ec       	ldi	r24, 0xC0	; 192
    b730:	08 95       	ret

0000b732 <__fp_pscA>:
    b732:	00 24       	eor	r0, r0
    b734:	0a 94       	dec	r0
    b736:	16 16       	cp	r1, r22
    b738:	17 06       	cpc	r1, r23
    b73a:	18 06       	cpc	r1, r24
    b73c:	09 06       	cpc	r0, r25
    b73e:	08 95       	ret

0000b740 <__fp_pscB>:
    b740:	00 24       	eor	r0, r0
    b742:	0a 94       	dec	r0
    b744:	12 16       	cp	r1, r18
    b746:	13 06       	cpc	r1, r19
    b748:	14 06       	cpc	r1, r20
    b74a:	05 06       	cpc	r0, r21
    b74c:	08 95       	ret
    b74e:	ee cf       	rjmp	.-36     	; 0xb72c <__fp_nan>

0000b750 <__fp_rempio2>:
    b750:	50 d0       	rcall	.+160    	; 0xb7f2 <__fp_splitA>
    b752:	e8 f3       	brcs	.-6      	; 0xb74e <__fp_pscB+0xe>
    b754:	e8 94       	clt
    b756:	e0 e0       	ldi	r30, 0x00	; 0
    b758:	bb 27       	eor	r27, r27
    b75a:	9f 57       	subi	r25, 0x7F	; 127
    b75c:	f0 f0       	brcs	.+60     	; 0xb79a <__fp_rempio2+0x4a>
    b75e:	2a ed       	ldi	r18, 0xDA	; 218
    b760:	3f e0       	ldi	r19, 0x0F	; 15
    b762:	49 ec       	ldi	r20, 0xC9	; 201
    b764:	06 c0       	rjmp	.+12     	; 0xb772 <__fp_rempio2+0x22>
    b766:	ee 0f       	add	r30, r30
    b768:	bb 0f       	add	r27, r27
    b76a:	66 1f       	adc	r22, r22
    b76c:	77 1f       	adc	r23, r23
    b76e:	88 1f       	adc	r24, r24
    b770:	28 f0       	brcs	.+10     	; 0xb77c <__fp_rempio2+0x2c>
    b772:	b2 3a       	cpi	r27, 0xA2	; 162
    b774:	62 07       	cpc	r22, r18
    b776:	73 07       	cpc	r23, r19
    b778:	84 07       	cpc	r24, r20
    b77a:	28 f0       	brcs	.+10     	; 0xb786 <__fp_rempio2+0x36>
    b77c:	b2 5a       	subi	r27, 0xA2	; 162
    b77e:	62 0b       	sbc	r22, r18
    b780:	73 0b       	sbc	r23, r19
    b782:	84 0b       	sbc	r24, r20
    b784:	e3 95       	inc	r30
    b786:	9a 95       	dec	r25
    b788:	72 f7       	brpl	.-36     	; 0xb766 <__fp_rempio2+0x16>
    b78a:	80 38       	cpi	r24, 0x80	; 128
    b78c:	30 f4       	brcc	.+12     	; 0xb79a <__fp_rempio2+0x4a>
    b78e:	9a 95       	dec	r25
    b790:	bb 0f       	add	r27, r27
    b792:	66 1f       	adc	r22, r22
    b794:	77 1f       	adc	r23, r23
    b796:	88 1f       	adc	r24, r24
    b798:	d2 f7       	brpl	.-12     	; 0xb78e <__fp_rempio2+0x3e>
    b79a:	90 48       	sbci	r25, 0x80	; 128
    b79c:	20 c1       	rjmp	.+576    	; 0xb9de <__fp_mpack_finite>

0000b79e <__fp_round>:
    b79e:	09 2e       	mov	r0, r25
    b7a0:	03 94       	inc	r0
    b7a2:	00 0c       	add	r0, r0
    b7a4:	11 f4       	brne	.+4      	; 0xb7aa <__fp_round+0xc>
    b7a6:	88 23       	and	r24, r24
    b7a8:	52 f0       	brmi	.+20     	; 0xb7be <__fp_round+0x20>
    b7aa:	bb 0f       	add	r27, r27
    b7ac:	40 f4       	brcc	.+16     	; 0xb7be <__fp_round+0x20>
    b7ae:	bf 2b       	or	r27, r31
    b7b0:	11 f4       	brne	.+4      	; 0xb7b6 <__fp_round+0x18>
    b7b2:	60 ff       	sbrs	r22, 0
    b7b4:	04 c0       	rjmp	.+8      	; 0xb7be <__fp_round+0x20>
    b7b6:	6f 5f       	subi	r22, 0xFF	; 255
    b7b8:	7f 4f       	sbci	r23, 0xFF	; 255
    b7ba:	8f 4f       	sbci	r24, 0xFF	; 255
    b7bc:	9f 4f       	sbci	r25, 0xFF	; 255
    b7be:	08 95       	ret

0000b7c0 <__fp_sinus>:
    b7c0:	ef 93       	push	r30
    b7c2:	e0 ff       	sbrs	r30, 0
    b7c4:	06 c0       	rjmp	.+12     	; 0xb7d2 <__fp_sinus+0x12>
    b7c6:	a2 ea       	ldi	r26, 0xA2	; 162
    b7c8:	2a ed       	ldi	r18, 0xDA	; 218
    b7ca:	3f e0       	ldi	r19, 0x0F	; 15
    b7cc:	49 ec       	ldi	r20, 0xC9	; 201
    b7ce:	5f eb       	ldi	r21, 0xBF	; 191
    b7d0:	7b de       	rcall	.-778    	; 0xb4c8 <__addsf3x>
    b7d2:	e5 df       	rcall	.-54     	; 0xb79e <__fp_round>
    b7d4:	0f 90       	pop	r0
    b7d6:	03 94       	inc	r0
    b7d8:	01 fc       	sbrc	r0, 1
    b7da:	90 58       	subi	r25, 0x80	; 128
    b7dc:	ec e8       	ldi	r30, 0x8C	; 140
    b7de:	f0 e0       	ldi	r31, 0x00	; 0
    b7e0:	11 c1       	rjmp	.+546    	; 0xba04 <__fp_powsodd>

0000b7e2 <__fp_split3>:
    b7e2:	57 fd       	sbrc	r21, 7
    b7e4:	90 58       	subi	r25, 0x80	; 128
    b7e6:	44 0f       	add	r20, r20
    b7e8:	55 1f       	adc	r21, r21
    b7ea:	59 f0       	breq	.+22     	; 0xb802 <__fp_splitA+0x10>
    b7ec:	5f 3f       	cpi	r21, 0xFF	; 255
    b7ee:	71 f0       	breq	.+28     	; 0xb80c <__fp_splitA+0x1a>
    b7f0:	47 95       	ror	r20

0000b7f2 <__fp_splitA>:
    b7f2:	88 0f       	add	r24, r24
    b7f4:	97 fb       	bst	r25, 7
    b7f6:	99 1f       	adc	r25, r25
    b7f8:	61 f0       	breq	.+24     	; 0xb812 <__fp_splitA+0x20>
    b7fa:	9f 3f       	cpi	r25, 0xFF	; 255
    b7fc:	79 f0       	breq	.+30     	; 0xb81c <__fp_splitA+0x2a>
    b7fe:	87 95       	ror	r24
    b800:	08 95       	ret
    b802:	12 16       	cp	r1, r18
    b804:	13 06       	cpc	r1, r19
    b806:	14 06       	cpc	r1, r20
    b808:	55 1f       	adc	r21, r21
    b80a:	f2 cf       	rjmp	.-28     	; 0xb7f0 <__fp_split3+0xe>
    b80c:	46 95       	lsr	r20
    b80e:	f1 df       	rcall	.-30     	; 0xb7f2 <__fp_splitA>
    b810:	08 c0       	rjmp	.+16     	; 0xb822 <__fp_splitA+0x30>
    b812:	16 16       	cp	r1, r22
    b814:	17 06       	cpc	r1, r23
    b816:	18 06       	cpc	r1, r24
    b818:	99 1f       	adc	r25, r25
    b81a:	f1 cf       	rjmp	.-30     	; 0xb7fe <__fp_splitA+0xc>
    b81c:	86 95       	lsr	r24
    b81e:	71 05       	cpc	r23, r1
    b820:	61 05       	cpc	r22, r1
    b822:	08 94       	sec
    b824:	08 95       	ret

0000b826 <__fp_zero>:
    b826:	e8 94       	clt

0000b828 <__fp_szero>:
    b828:	bb 27       	eor	r27, r27
    b82a:	66 27       	eor	r22, r22
    b82c:	77 27       	eor	r23, r23
    b82e:	cb 01       	movw	r24, r22
    b830:	97 f9       	bld	r25, 7
    b832:	08 95       	ret

0000b834 <__gesf2>:
    b834:	ae d0       	rcall	.+348    	; 0xb992 <__fp_cmp>
    b836:	08 f4       	brcc	.+2      	; 0xb83a <__gesf2+0x6>
    b838:	8f ef       	ldi	r24, 0xFF	; 255
    b83a:	08 95       	ret

0000b83c <__mulsf3>:
    b83c:	0b d0       	rcall	.+22     	; 0xb854 <__mulsf3x>
    b83e:	af cf       	rjmp	.-162    	; 0xb79e <__fp_round>
    b840:	78 df       	rcall	.-272    	; 0xb732 <__fp_pscA>
    b842:	28 f0       	brcs	.+10     	; 0xb84e <__mulsf3+0x12>
    b844:	7d df       	rcall	.-262    	; 0xb740 <__fp_pscB>
    b846:	18 f0       	brcs	.+6      	; 0xb84e <__mulsf3+0x12>
    b848:	95 23       	and	r25, r21
    b84a:	09 f0       	breq	.+2      	; 0xb84e <__mulsf3+0x12>
    b84c:	69 cf       	rjmp	.-302    	; 0xb720 <__fp_inf>
    b84e:	6e cf       	rjmp	.-292    	; 0xb72c <__fp_nan>
    b850:	11 24       	eor	r1, r1
    b852:	ea cf       	rjmp	.-44     	; 0xb828 <__fp_szero>

0000b854 <__mulsf3x>:
    b854:	c6 df       	rcall	.-116    	; 0xb7e2 <__fp_split3>
    b856:	a0 f3       	brcs	.-24     	; 0xb840 <__mulsf3+0x4>

0000b858 <__mulsf3_pse>:
    b858:	95 9f       	mul	r25, r21
    b85a:	d1 f3       	breq	.-12     	; 0xb850 <__mulsf3+0x14>
    b85c:	95 0f       	add	r25, r21
    b85e:	50 e0       	ldi	r21, 0x00	; 0
    b860:	55 1f       	adc	r21, r21
    b862:	62 9f       	mul	r22, r18
    b864:	f0 01       	movw	r30, r0
    b866:	72 9f       	mul	r23, r18
    b868:	bb 27       	eor	r27, r27
    b86a:	f0 0d       	add	r31, r0
    b86c:	b1 1d       	adc	r27, r1
    b86e:	63 9f       	mul	r22, r19
    b870:	aa 27       	eor	r26, r26
    b872:	f0 0d       	add	r31, r0
    b874:	b1 1d       	adc	r27, r1
    b876:	aa 1f       	adc	r26, r26
    b878:	64 9f       	mul	r22, r20
    b87a:	66 27       	eor	r22, r22
    b87c:	b0 0d       	add	r27, r0
    b87e:	a1 1d       	adc	r26, r1
    b880:	66 1f       	adc	r22, r22
    b882:	82 9f       	mul	r24, r18
    b884:	22 27       	eor	r18, r18
    b886:	b0 0d       	add	r27, r0
    b888:	a1 1d       	adc	r26, r1
    b88a:	62 1f       	adc	r22, r18
    b88c:	73 9f       	mul	r23, r19
    b88e:	b0 0d       	add	r27, r0
    b890:	a1 1d       	adc	r26, r1
    b892:	62 1f       	adc	r22, r18
    b894:	83 9f       	mul	r24, r19
    b896:	a0 0d       	add	r26, r0
    b898:	61 1d       	adc	r22, r1
    b89a:	22 1f       	adc	r18, r18
    b89c:	74 9f       	mul	r23, r20
    b89e:	33 27       	eor	r19, r19
    b8a0:	a0 0d       	add	r26, r0
    b8a2:	61 1d       	adc	r22, r1
    b8a4:	23 1f       	adc	r18, r19
    b8a6:	84 9f       	mul	r24, r20
    b8a8:	60 0d       	add	r22, r0
    b8aa:	21 1d       	adc	r18, r1
    b8ac:	82 2f       	mov	r24, r18
    b8ae:	76 2f       	mov	r23, r22
    b8b0:	6a 2f       	mov	r22, r26
    b8b2:	11 24       	eor	r1, r1
    b8b4:	9f 57       	subi	r25, 0x7F	; 127
    b8b6:	50 40       	sbci	r21, 0x00	; 0
    b8b8:	8a f0       	brmi	.+34     	; 0xb8dc <__mulsf3_pse+0x84>
    b8ba:	e1 f0       	breq	.+56     	; 0xb8f4 <__mulsf3_pse+0x9c>
    b8bc:	88 23       	and	r24, r24
    b8be:	4a f0       	brmi	.+18     	; 0xb8d2 <__mulsf3_pse+0x7a>
    b8c0:	ee 0f       	add	r30, r30
    b8c2:	ff 1f       	adc	r31, r31
    b8c4:	bb 1f       	adc	r27, r27
    b8c6:	66 1f       	adc	r22, r22
    b8c8:	77 1f       	adc	r23, r23
    b8ca:	88 1f       	adc	r24, r24
    b8cc:	91 50       	subi	r25, 0x01	; 1
    b8ce:	50 40       	sbci	r21, 0x00	; 0
    b8d0:	a9 f7       	brne	.-22     	; 0xb8bc <__mulsf3_pse+0x64>
    b8d2:	9e 3f       	cpi	r25, 0xFE	; 254
    b8d4:	51 05       	cpc	r21, r1
    b8d6:	70 f0       	brcs	.+28     	; 0xb8f4 <__mulsf3_pse+0x9c>
    b8d8:	23 cf       	rjmp	.-442    	; 0xb720 <__fp_inf>
    b8da:	a6 cf       	rjmp	.-180    	; 0xb828 <__fp_szero>
    b8dc:	5f 3f       	cpi	r21, 0xFF	; 255
    b8de:	ec f3       	brlt	.-6      	; 0xb8da <__mulsf3_pse+0x82>
    b8e0:	98 3e       	cpi	r25, 0xE8	; 232
    b8e2:	dc f3       	brlt	.-10     	; 0xb8da <__mulsf3_pse+0x82>
    b8e4:	86 95       	lsr	r24
    b8e6:	77 95       	ror	r23
    b8e8:	67 95       	ror	r22
    b8ea:	b7 95       	ror	r27
    b8ec:	f7 95       	ror	r31
    b8ee:	e7 95       	ror	r30
    b8f0:	9f 5f       	subi	r25, 0xFF	; 255
    b8f2:	c1 f7       	brne	.-16     	; 0xb8e4 <__mulsf3_pse+0x8c>
    b8f4:	fe 2b       	or	r31, r30
    b8f6:	88 0f       	add	r24, r24
    b8f8:	91 1d       	adc	r25, r1
    b8fa:	96 95       	lsr	r25
    b8fc:	87 95       	ror	r24
    b8fe:	97 f9       	bld	r25, 7
    b900:	08 95       	ret

0000b902 <sin>:
    b902:	9f 93       	push	r25
    b904:	25 df       	rcall	.-438    	; 0xb750 <__fp_rempio2>
    b906:	0f 90       	pop	r0
    b908:	07 fc       	sbrc	r0, 7
    b90a:	ee 5f       	subi	r30, 0xFE	; 254
    b90c:	59 cf       	rjmp	.-334    	; 0xb7c0 <__fp_sinus>
    b90e:	11 f4       	brne	.+4      	; 0xb914 <sin+0x12>
    b910:	0e f4       	brtc	.+2      	; 0xb914 <sin+0x12>
    b912:	0c cf       	rjmp	.-488    	; 0xb72c <__fp_nan>
    b914:	62 c0       	rjmp	.+196    	; 0xb9da <__fp_mpack>

0000b916 <sqrt>:
    b916:	6d df       	rcall	.-294    	; 0xb7f2 <__fp_splitA>
    b918:	d0 f3       	brcs	.-12     	; 0xb90e <sin+0xc>
    b91a:	99 23       	and	r25, r25
    b91c:	d9 f3       	breq	.-10     	; 0xb914 <sin+0x12>
    b91e:	ce f3       	brts	.-14     	; 0xb912 <sin+0x10>
    b920:	9f 57       	subi	r25, 0x7F	; 127
    b922:	55 0b       	sbc	r21, r21
    b924:	87 ff       	sbrs	r24, 7
    b926:	67 d0       	rcall	.+206    	; 0xb9f6 <__fp_norm2>
    b928:	00 24       	eor	r0, r0
    b92a:	a0 e6       	ldi	r26, 0x60	; 96
    b92c:	40 ea       	ldi	r20, 0xA0	; 160
    b92e:	90 01       	movw	r18, r0
    b930:	80 58       	subi	r24, 0x80	; 128
    b932:	56 95       	lsr	r21
    b934:	97 95       	ror	r25
    b936:	28 f4       	brcc	.+10     	; 0xb942 <sqrt+0x2c>
    b938:	80 5c       	subi	r24, 0xC0	; 192
    b93a:	66 0f       	add	r22, r22
    b93c:	77 1f       	adc	r23, r23
    b93e:	88 1f       	adc	r24, r24
    b940:	20 f0       	brcs	.+8      	; 0xb94a <sqrt+0x34>
    b942:	26 17       	cp	r18, r22
    b944:	37 07       	cpc	r19, r23
    b946:	48 07       	cpc	r20, r24
    b948:	30 f4       	brcc	.+12     	; 0xb956 <sqrt+0x40>
    b94a:	62 1b       	sub	r22, r18
    b94c:	73 0b       	sbc	r23, r19
    b94e:	84 0b       	sbc	r24, r20
    b950:	20 29       	or	r18, r0
    b952:	31 29       	or	r19, r1
    b954:	4a 2b       	or	r20, r26
    b956:	a6 95       	lsr	r26
    b958:	17 94       	ror	r1
    b95a:	07 94       	ror	r0
    b95c:	20 25       	eor	r18, r0
    b95e:	31 25       	eor	r19, r1
    b960:	4a 27       	eor	r20, r26
    b962:	58 f7       	brcc	.-42     	; 0xb93a <sqrt+0x24>
    b964:	66 0f       	add	r22, r22
    b966:	77 1f       	adc	r23, r23
    b968:	88 1f       	adc	r24, r24
    b96a:	20 f0       	brcs	.+8      	; 0xb974 <sqrt+0x5e>
    b96c:	26 17       	cp	r18, r22
    b96e:	37 07       	cpc	r19, r23
    b970:	48 07       	cpc	r20, r24
    b972:	30 f4       	brcc	.+12     	; 0xb980 <sqrt+0x6a>
    b974:	62 0b       	sbc	r22, r18
    b976:	73 0b       	sbc	r23, r19
    b978:	84 0b       	sbc	r24, r20
    b97a:	20 0d       	add	r18, r0
    b97c:	31 1d       	adc	r19, r1
    b97e:	41 1d       	adc	r20, r1
    b980:	a0 95       	com	r26
    b982:	81 f7       	brne	.-32     	; 0xb964 <sqrt+0x4e>
    b984:	b9 01       	movw	r22, r18
    b986:	84 2f       	mov	r24, r20
    b988:	91 58       	subi	r25, 0x81	; 129
    b98a:	88 0f       	add	r24, r24
    b98c:	96 95       	lsr	r25
    b98e:	87 95       	ror	r24
    b990:	08 95       	ret

0000b992 <__fp_cmp>:
    b992:	99 0f       	add	r25, r25
    b994:	00 08       	sbc	r0, r0
    b996:	55 0f       	add	r21, r21
    b998:	aa 0b       	sbc	r26, r26
    b99a:	e0 e8       	ldi	r30, 0x80	; 128
    b99c:	fe ef       	ldi	r31, 0xFE	; 254
    b99e:	16 16       	cp	r1, r22
    b9a0:	17 06       	cpc	r1, r23
    b9a2:	e8 07       	cpc	r30, r24
    b9a4:	f9 07       	cpc	r31, r25
    b9a6:	c0 f0       	brcs	.+48     	; 0xb9d8 <__fp_cmp+0x46>
    b9a8:	12 16       	cp	r1, r18
    b9aa:	13 06       	cpc	r1, r19
    b9ac:	e4 07       	cpc	r30, r20
    b9ae:	f5 07       	cpc	r31, r21
    b9b0:	98 f0       	brcs	.+38     	; 0xb9d8 <__fp_cmp+0x46>
    b9b2:	62 1b       	sub	r22, r18
    b9b4:	73 0b       	sbc	r23, r19
    b9b6:	84 0b       	sbc	r24, r20
    b9b8:	95 0b       	sbc	r25, r21
    b9ba:	39 f4       	brne	.+14     	; 0xb9ca <__fp_cmp+0x38>
    b9bc:	0a 26       	eor	r0, r26
    b9be:	61 f0       	breq	.+24     	; 0xb9d8 <__fp_cmp+0x46>
    b9c0:	23 2b       	or	r18, r19
    b9c2:	24 2b       	or	r18, r20
    b9c4:	25 2b       	or	r18, r21
    b9c6:	21 f4       	brne	.+8      	; 0xb9d0 <__fp_cmp+0x3e>
    b9c8:	08 95       	ret
    b9ca:	0a 26       	eor	r0, r26
    b9cc:	09 f4       	brne	.+2      	; 0xb9d0 <__fp_cmp+0x3e>
    b9ce:	a1 40       	sbci	r26, 0x01	; 1
    b9d0:	a6 95       	lsr	r26
    b9d2:	8f ef       	ldi	r24, 0xFF	; 255
    b9d4:	81 1d       	adc	r24, r1
    b9d6:	81 1d       	adc	r24, r1
    b9d8:	08 95       	ret

0000b9da <__fp_mpack>:
    b9da:	9f 3f       	cpi	r25, 0xFF	; 255
    b9dc:	31 f0       	breq	.+12     	; 0xb9ea <__fp_mpack_finite+0xc>

0000b9de <__fp_mpack_finite>:
    b9de:	91 50       	subi	r25, 0x01	; 1
    b9e0:	20 f4       	brcc	.+8      	; 0xb9ea <__fp_mpack_finite+0xc>
    b9e2:	87 95       	ror	r24
    b9e4:	77 95       	ror	r23
    b9e6:	67 95       	ror	r22
    b9e8:	b7 95       	ror	r27
    b9ea:	88 0f       	add	r24, r24
    b9ec:	91 1d       	adc	r25, r1
    b9ee:	96 95       	lsr	r25
    b9f0:	87 95       	ror	r24
    b9f2:	97 f9       	bld	r25, 7
    b9f4:	08 95       	ret

0000b9f6 <__fp_norm2>:
    b9f6:	91 50       	subi	r25, 0x01	; 1
    b9f8:	50 40       	sbci	r21, 0x00	; 0
    b9fa:	66 0f       	add	r22, r22
    b9fc:	77 1f       	adc	r23, r23
    b9fe:	88 1f       	adc	r24, r24
    ba00:	d2 f7       	brpl	.-12     	; 0xb9f6 <__fp_norm2>
    ba02:	08 95       	ret

0000ba04 <__fp_powsodd>:
    ba04:	9f 93       	push	r25
    ba06:	8f 93       	push	r24
    ba08:	7f 93       	push	r23
    ba0a:	6f 93       	push	r22
    ba0c:	ff 93       	push	r31
    ba0e:	ef 93       	push	r30
    ba10:	9b 01       	movw	r18, r22
    ba12:	ac 01       	movw	r20, r24
    ba14:	13 df       	rcall	.-474    	; 0xb83c <__mulsf3>
    ba16:	ef 91       	pop	r30
    ba18:	ff 91       	pop	r31
    ba1a:	05 d0       	rcall	.+10     	; 0xba26 <__fp_powser>
    ba1c:	2f 91       	pop	r18
    ba1e:	3f 91       	pop	r19
    ba20:	4f 91       	pop	r20
    ba22:	5f 91       	pop	r21
    ba24:	0b cf       	rjmp	.-490    	; 0xb83c <__mulsf3>

0000ba26 <__fp_powser>:
    ba26:	df 93       	push	r29
    ba28:	cf 93       	push	r28
    ba2a:	1f 93       	push	r17
    ba2c:	0f 93       	push	r16
    ba2e:	ff 92       	push	r15
    ba30:	ef 92       	push	r14
    ba32:	df 92       	push	r13
    ba34:	7b 01       	movw	r14, r22
    ba36:	8c 01       	movw	r16, r24
    ba38:	68 94       	set
    ba3a:	05 c0       	rjmp	.+10     	; 0xba46 <__fp_powser+0x20>
    ba3c:	da 2e       	mov	r13, r26
    ba3e:	ef 01       	movw	r28, r30
    ba40:	09 df       	rcall	.-494    	; 0xb854 <__mulsf3x>
    ba42:	fe 01       	movw	r30, r28
    ba44:	e8 94       	clt
    ba46:	a5 91       	lpm	r26, Z+
    ba48:	25 91       	lpm	r18, Z+
    ba4a:	35 91       	lpm	r19, Z+
    ba4c:	45 91       	lpm	r20, Z+
    ba4e:	55 91       	lpm	r21, Z+
    ba50:	ae f3       	brts	.-22     	; 0xba3c <__fp_powser+0x16>
    ba52:	ef 01       	movw	r28, r30
    ba54:	39 dd       	rcall	.-1422   	; 0xb4c8 <__addsf3x>
    ba56:	fe 01       	movw	r30, r28
    ba58:	97 01       	movw	r18, r14
    ba5a:	a8 01       	movw	r20, r16
    ba5c:	da 94       	dec	r13
    ba5e:	79 f7       	brne	.-34     	; 0xba3e <__fp_powser+0x18>
    ba60:	df 90       	pop	r13
    ba62:	ef 90       	pop	r14
    ba64:	ff 90       	pop	r15
    ba66:	0f 91       	pop	r16
    ba68:	1f 91       	pop	r17
    ba6a:	cf 91       	pop	r28
    ba6c:	df 91       	pop	r29
    ba6e:	08 95       	ret

0000ba70 <vfprintf>:
    ba70:	2f 92       	push	r2
    ba72:	3f 92       	push	r3
    ba74:	4f 92       	push	r4
    ba76:	5f 92       	push	r5
    ba78:	6f 92       	push	r6
    ba7a:	7f 92       	push	r7
    ba7c:	8f 92       	push	r8
    ba7e:	9f 92       	push	r9
    ba80:	af 92       	push	r10
    ba82:	bf 92       	push	r11
    ba84:	cf 92       	push	r12
    ba86:	df 92       	push	r13
    ba88:	ef 92       	push	r14
    ba8a:	ff 92       	push	r15
    ba8c:	0f 93       	push	r16
    ba8e:	1f 93       	push	r17
    ba90:	df 93       	push	r29
    ba92:	cf 93       	push	r28
    ba94:	cd b7       	in	r28, 0x3d	; 61
    ba96:	de b7       	in	r29, 0x3e	; 62
    ba98:	61 97       	sbiw	r28, 0x11	; 17
    ba9a:	0f b6       	in	r0, 0x3f	; 63
    ba9c:	f8 94       	cli
    ba9e:	de bf       	out	0x3e, r29	; 62
    baa0:	0f be       	out	0x3f, r0	; 63
    baa2:	cd bf       	out	0x3d, r28	; 61
    baa4:	3c 01       	movw	r6, r24
    baa6:	7f 87       	std	Y+15, r23	; 0x0f
    baa8:	6e 87       	std	Y+14, r22	; 0x0e
    baaa:	6a 01       	movw	r12, r20
    baac:	fc 01       	movw	r30, r24
    baae:	17 82       	std	Z+7, r1	; 0x07
    bab0:	16 82       	std	Z+6, r1	; 0x06
    bab2:	83 81       	ldd	r24, Z+3	; 0x03
    bab4:	81 fd       	sbrc	r24, 1
    bab6:	03 c0       	rjmp	.+6      	; 0xbabe <vfprintf+0x4e>
    bab8:	6f ef       	ldi	r22, 0xFF	; 255
    baba:	7f ef       	ldi	r23, 0xFF	; 255
    babc:	6f c3       	rjmp	.+1758   	; 0xc19c <vfprintf+0x72c>
    babe:	9e 01       	movw	r18, r28
    bac0:	2f 5f       	subi	r18, 0xFF	; 255
    bac2:	3f 4f       	sbci	r19, 0xFF	; 255
    bac4:	39 8b       	std	Y+17, r19	; 0x11
    bac6:	28 8b       	std	Y+16, r18	; 0x10
    bac8:	f3 01       	movw	r30, r6
    baca:	23 81       	ldd	r18, Z+3	; 0x03
    bacc:	ee 85       	ldd	r30, Y+14	; 0x0e
    bace:	ff 85       	ldd	r31, Y+15	; 0x0f
    bad0:	23 fd       	sbrc	r18, 3
    bad2:	85 91       	lpm	r24, Z+
    bad4:	23 ff       	sbrs	r18, 3
    bad6:	81 91       	ld	r24, Z+
    bad8:	ff 87       	std	Y+15, r31	; 0x0f
    bada:	ee 87       	std	Y+14, r30	; 0x0e
    badc:	88 23       	and	r24, r24
    bade:	09 f4       	brne	.+2      	; 0xbae2 <vfprintf+0x72>
    bae0:	5a c3       	rjmp	.+1716   	; 0xc196 <vfprintf+0x726>
    bae2:	85 32       	cpi	r24, 0x25	; 37
    bae4:	51 f4       	brne	.+20     	; 0xbafa <vfprintf+0x8a>
    bae6:	ee 85       	ldd	r30, Y+14	; 0x0e
    bae8:	ff 85       	ldd	r31, Y+15	; 0x0f
    baea:	23 fd       	sbrc	r18, 3
    baec:	85 91       	lpm	r24, Z+
    baee:	23 ff       	sbrs	r18, 3
    baf0:	81 91       	ld	r24, Z+
    baf2:	ff 87       	std	Y+15, r31	; 0x0f
    baf4:	ee 87       	std	Y+14, r30	; 0x0e
    baf6:	85 32       	cpi	r24, 0x25	; 37
    baf8:	29 f4       	brne	.+10     	; 0xbb04 <vfprintf+0x94>
    bafa:	90 e0       	ldi	r25, 0x00	; 0
    bafc:	b3 01       	movw	r22, r6
    bafe:	0e 94 65 62 	call	0xc4ca	; 0xc4ca <fputc>
    bb02:	e2 cf       	rjmp	.-60     	; 0xbac8 <vfprintf+0x58>
    bb04:	98 2f       	mov	r25, r24
    bb06:	10 e0       	ldi	r17, 0x00	; 0
    bb08:	88 24       	eor	r8, r8
    bb0a:	99 24       	eor	r9, r9
    bb0c:	10 32       	cpi	r17, 0x20	; 32
    bb0e:	b0 f4       	brcc	.+44     	; 0xbb3c <vfprintf+0xcc>
    bb10:	9b 32       	cpi	r25, 0x2B	; 43
    bb12:	69 f0       	breq	.+26     	; 0xbb2e <vfprintf+0xbe>
    bb14:	9c 32       	cpi	r25, 0x2C	; 44
    bb16:	28 f4       	brcc	.+10     	; 0xbb22 <vfprintf+0xb2>
    bb18:	90 32       	cpi	r25, 0x20	; 32
    bb1a:	51 f0       	breq	.+20     	; 0xbb30 <vfprintf+0xc0>
    bb1c:	93 32       	cpi	r25, 0x23	; 35
    bb1e:	71 f4       	brne	.+28     	; 0xbb3c <vfprintf+0xcc>
    bb20:	0b c0       	rjmp	.+22     	; 0xbb38 <vfprintf+0xc8>
    bb22:	9d 32       	cpi	r25, 0x2D	; 45
    bb24:	39 f0       	breq	.+14     	; 0xbb34 <vfprintf+0xc4>
    bb26:	90 33       	cpi	r25, 0x30	; 48
    bb28:	49 f4       	brne	.+18     	; 0xbb3c <vfprintf+0xcc>
    bb2a:	11 60       	ori	r17, 0x01	; 1
    bb2c:	28 c0       	rjmp	.+80     	; 0xbb7e <vfprintf+0x10e>
    bb2e:	12 60       	ori	r17, 0x02	; 2
    bb30:	14 60       	ori	r17, 0x04	; 4
    bb32:	25 c0       	rjmp	.+74     	; 0xbb7e <vfprintf+0x10e>
    bb34:	18 60       	ori	r17, 0x08	; 8
    bb36:	23 c0       	rjmp	.+70     	; 0xbb7e <vfprintf+0x10e>
    bb38:	10 61       	ori	r17, 0x10	; 16
    bb3a:	21 c0       	rjmp	.+66     	; 0xbb7e <vfprintf+0x10e>
    bb3c:	17 fd       	sbrc	r17, 7
    bb3e:	2a c0       	rjmp	.+84     	; 0xbb94 <vfprintf+0x124>
    bb40:	89 2f       	mov	r24, r25
    bb42:	80 53       	subi	r24, 0x30	; 48
    bb44:	8a 30       	cpi	r24, 0x0A	; 10
    bb46:	78 f4       	brcc	.+30     	; 0xbb66 <vfprintf+0xf6>
    bb48:	16 ff       	sbrs	r17, 6
    bb4a:	06 c0       	rjmp	.+12     	; 0xbb58 <vfprintf+0xe8>
    bb4c:	fa e0       	ldi	r31, 0x0A	; 10
    bb4e:	9f 9e       	mul	r9, r31
    bb50:	90 2c       	mov	r9, r0
    bb52:	11 24       	eor	r1, r1
    bb54:	98 0e       	add	r9, r24
    bb56:	13 c0       	rjmp	.+38     	; 0xbb7e <vfprintf+0x10e>
    bb58:	3a e0       	ldi	r19, 0x0A	; 10
    bb5a:	83 9e       	mul	r8, r19
    bb5c:	80 2c       	mov	r8, r0
    bb5e:	11 24       	eor	r1, r1
    bb60:	88 0e       	add	r8, r24
    bb62:	10 62       	ori	r17, 0x20	; 32
    bb64:	0c c0       	rjmp	.+24     	; 0xbb7e <vfprintf+0x10e>
    bb66:	9e 32       	cpi	r25, 0x2E	; 46
    bb68:	21 f4       	brne	.+8      	; 0xbb72 <vfprintf+0x102>
    bb6a:	16 fd       	sbrc	r17, 6
    bb6c:	14 c3       	rjmp	.+1576   	; 0xc196 <vfprintf+0x726>
    bb6e:	10 64       	ori	r17, 0x40	; 64
    bb70:	06 c0       	rjmp	.+12     	; 0xbb7e <vfprintf+0x10e>
    bb72:	9c 36       	cpi	r25, 0x6C	; 108
    bb74:	11 f4       	brne	.+4      	; 0xbb7a <vfprintf+0x10a>
    bb76:	10 68       	ori	r17, 0x80	; 128
    bb78:	02 c0       	rjmp	.+4      	; 0xbb7e <vfprintf+0x10e>
    bb7a:	98 36       	cpi	r25, 0x68	; 104
    bb7c:	59 f4       	brne	.+22     	; 0xbb94 <vfprintf+0x124>
    bb7e:	ee 85       	ldd	r30, Y+14	; 0x0e
    bb80:	ff 85       	ldd	r31, Y+15	; 0x0f
    bb82:	23 fd       	sbrc	r18, 3
    bb84:	95 91       	lpm	r25, Z+
    bb86:	23 ff       	sbrs	r18, 3
    bb88:	91 91       	ld	r25, Z+
    bb8a:	ff 87       	std	Y+15, r31	; 0x0f
    bb8c:	ee 87       	std	Y+14, r30	; 0x0e
    bb8e:	99 23       	and	r25, r25
    bb90:	09 f0       	breq	.+2      	; 0xbb94 <vfprintf+0x124>
    bb92:	bc cf       	rjmp	.-136    	; 0xbb0c <vfprintf+0x9c>
    bb94:	89 2f       	mov	r24, r25
    bb96:	85 54       	subi	r24, 0x45	; 69
    bb98:	83 30       	cpi	r24, 0x03	; 3
    bb9a:	20 f4       	brcc	.+8      	; 0xbba4 <vfprintf+0x134>
    bb9c:	81 2f       	mov	r24, r17
    bb9e:	80 61       	ori	r24, 0x10	; 16
    bba0:	90 5e       	subi	r25, 0xE0	; 224
    bba2:	07 c0       	rjmp	.+14     	; 0xbbb2 <vfprintf+0x142>
    bba4:	89 2f       	mov	r24, r25
    bba6:	85 56       	subi	r24, 0x65	; 101
    bba8:	83 30       	cpi	r24, 0x03	; 3
    bbaa:	08 f0       	brcs	.+2      	; 0xbbae <vfprintf+0x13e>
    bbac:	9f c1       	rjmp	.+830    	; 0xbeec <vfprintf+0x47c>
    bbae:	81 2f       	mov	r24, r17
    bbb0:	8f 7e       	andi	r24, 0xEF	; 239
    bbb2:	86 fd       	sbrc	r24, 6
    bbb4:	02 c0       	rjmp	.+4      	; 0xbbba <vfprintf+0x14a>
    bbb6:	76 e0       	ldi	r23, 0x06	; 6
    bbb8:	97 2e       	mov	r9, r23
    bbba:	6f e3       	ldi	r22, 0x3F	; 63
    bbbc:	f6 2e       	mov	r15, r22
    bbbe:	f8 22       	and	r15, r24
    bbc0:	95 36       	cpi	r25, 0x65	; 101
    bbc2:	19 f4       	brne	.+6      	; 0xbbca <vfprintf+0x15a>
    bbc4:	f0 e4       	ldi	r31, 0x40	; 64
    bbc6:	ff 2a       	or	r15, r31
    bbc8:	07 c0       	rjmp	.+14     	; 0xbbd8 <vfprintf+0x168>
    bbca:	96 36       	cpi	r25, 0x66	; 102
    bbcc:	19 f4       	brne	.+6      	; 0xbbd4 <vfprintf+0x164>
    bbce:	20 e8       	ldi	r18, 0x80	; 128
    bbd0:	f2 2a       	or	r15, r18
    bbd2:	02 c0       	rjmp	.+4      	; 0xbbd8 <vfprintf+0x168>
    bbd4:	91 10       	cpse	r9, r1
    bbd6:	9a 94       	dec	r9
    bbd8:	f7 fe       	sbrs	r15, 7
    bbda:	0a c0       	rjmp	.+20     	; 0xbbf0 <vfprintf+0x180>
    bbdc:	3b e3       	ldi	r19, 0x3B	; 59
    bbde:	39 15       	cp	r19, r9
    bbe0:	18 f4       	brcc	.+6      	; 0xbbe8 <vfprintf+0x178>
    bbe2:	5c e3       	ldi	r21, 0x3C	; 60
    bbe4:	b5 2e       	mov	r11, r21
    bbe6:	02 c0       	rjmp	.+4      	; 0xbbec <vfprintf+0x17c>
    bbe8:	b9 2c       	mov	r11, r9
    bbea:	b3 94       	inc	r11
    bbec:	27 e0       	ldi	r18, 0x07	; 7
    bbee:	09 c0       	rjmp	.+18     	; 0xbc02 <vfprintf+0x192>
    bbf0:	47 e0       	ldi	r20, 0x07	; 7
    bbf2:	49 15       	cp	r20, r9
    bbf4:	20 f4       	brcc	.+8      	; 0xbbfe <vfprintf+0x18e>
    bbf6:	bb 24       	eor	r11, r11
    bbf8:	47 e0       	ldi	r20, 0x07	; 7
    bbfa:	94 2e       	mov	r9, r20
    bbfc:	f7 cf       	rjmp	.-18     	; 0xbbec <vfprintf+0x17c>
    bbfe:	29 2d       	mov	r18, r9
    bc00:	bb 24       	eor	r11, r11
    bc02:	c6 01       	movw	r24, r12
    bc04:	04 96       	adiw	r24, 0x04	; 4
    bc06:	9d 87       	std	Y+13, r25	; 0x0d
    bc08:	8c 87       	std	Y+12, r24	; 0x0c
    bc0a:	f6 01       	movw	r30, r12
    bc0c:	60 81       	ld	r22, Z
    bc0e:	71 81       	ldd	r23, Z+1	; 0x01
    bc10:	82 81       	ldd	r24, Z+2	; 0x02
    bc12:	93 81       	ldd	r25, Z+3	; 0x03
    bc14:	ae 01       	movw	r20, r28
    bc16:	4f 5f       	subi	r20, 0xFF	; 255
    bc18:	5f 4f       	sbci	r21, 0xFF	; 255
    bc1a:	0b 2d       	mov	r16, r11
    bc1c:	0e 94 77 61 	call	0xc2ee	; 0xc2ee <__ftoa_engine>
    bc20:	6c 01       	movw	r12, r24
    bc22:	09 81       	ldd	r16, Y+1	; 0x01
    bc24:	20 2e       	mov	r2, r16
    bc26:	33 24       	eor	r3, r3
    bc28:	00 ff       	sbrs	r16, 0
    bc2a:	04 c0       	rjmp	.+8      	; 0xbc34 <vfprintf+0x1c4>
    bc2c:	03 fd       	sbrc	r16, 3
    bc2e:	02 c0       	rjmp	.+4      	; 0xbc34 <vfprintf+0x1c4>
    bc30:	1d e2       	ldi	r17, 0x2D	; 45
    bc32:	09 c0       	rjmp	.+18     	; 0xbc46 <vfprintf+0x1d6>
    bc34:	f1 fe       	sbrs	r15, 1
    bc36:	02 c0       	rjmp	.+4      	; 0xbc3c <vfprintf+0x1cc>
    bc38:	1b e2       	ldi	r17, 0x2B	; 43
    bc3a:	05 c0       	rjmp	.+10     	; 0xbc46 <vfprintf+0x1d6>
    bc3c:	f2 fc       	sbrc	r15, 2
    bc3e:	02 c0       	rjmp	.+4      	; 0xbc44 <vfprintf+0x1d4>
    bc40:	10 e0       	ldi	r17, 0x00	; 0
    bc42:	01 c0       	rjmp	.+2      	; 0xbc46 <vfprintf+0x1d6>
    bc44:	10 e2       	ldi	r17, 0x20	; 32
    bc46:	c1 01       	movw	r24, r2
    bc48:	8c 70       	andi	r24, 0x0C	; 12
    bc4a:	90 70       	andi	r25, 0x00	; 0
    bc4c:	89 2b       	or	r24, r25
    bc4e:	b9 f1       	breq	.+110    	; 0xbcbe <vfprintf+0x24e>
    bc50:	11 23       	and	r17, r17
    bc52:	11 f4       	brne	.+4      	; 0xbc58 <vfprintf+0x1e8>
    bc54:	83 e0       	ldi	r24, 0x03	; 3
    bc56:	01 c0       	rjmp	.+2      	; 0xbc5a <vfprintf+0x1ea>
    bc58:	84 e0       	ldi	r24, 0x04	; 4
    bc5a:	88 15       	cp	r24, r8
    bc5c:	10 f0       	brcs	.+4      	; 0xbc62 <vfprintf+0x1f2>
    bc5e:	88 24       	eor	r8, r8
    bc60:	0a c0       	rjmp	.+20     	; 0xbc76 <vfprintf+0x206>
    bc62:	88 1a       	sub	r8, r24
    bc64:	f3 fc       	sbrc	r15, 3
    bc66:	07 c0       	rjmp	.+14     	; 0xbc76 <vfprintf+0x206>
    bc68:	80 e2       	ldi	r24, 0x20	; 32
    bc6a:	90 e0       	ldi	r25, 0x00	; 0
    bc6c:	b3 01       	movw	r22, r6
    bc6e:	0e 94 65 62 	call	0xc4ca	; 0xc4ca <fputc>
    bc72:	8a 94       	dec	r8
    bc74:	c9 f7       	brne	.-14     	; 0xbc68 <vfprintf+0x1f8>
    bc76:	11 23       	and	r17, r17
    bc78:	29 f0       	breq	.+10     	; 0xbc84 <vfprintf+0x214>
    bc7a:	81 2f       	mov	r24, r17
    bc7c:	90 e0       	ldi	r25, 0x00	; 0
    bc7e:	b3 01       	movw	r22, r6
    bc80:	0e 94 65 62 	call	0xc4ca	; 0xc4ca <fputc>
    bc84:	23 fe       	sbrs	r2, 3
    bc86:	03 c0       	rjmp	.+6      	; 0xbc8e <vfprintf+0x21e>
    bc88:	09 e9       	ldi	r16, 0x99	; 153
    bc8a:	18 e4       	ldi	r17, 0x48	; 72
    bc8c:	0e c0       	rjmp	.+28     	; 0xbcaa <vfprintf+0x23a>
    bc8e:	0d e9       	ldi	r16, 0x9D	; 157
    bc90:	18 e4       	ldi	r17, 0x48	; 72
    bc92:	0b c0       	rjmp	.+22     	; 0xbcaa <vfprintf+0x23a>
    bc94:	e1 14       	cp	r14, r1
    bc96:	f1 04       	cpc	r15, r1
    bc98:	09 f0       	breq	.+2      	; 0xbc9c <vfprintf+0x22c>
    bc9a:	80 52       	subi	r24, 0x20	; 32
    bc9c:	90 e0       	ldi	r25, 0x00	; 0
    bc9e:	b3 01       	movw	r22, r6
    bca0:	0e 94 65 62 	call	0xc4ca	; 0xc4ca <fputc>
    bca4:	0f 5f       	subi	r16, 0xFF	; 255
    bca6:	1f 4f       	sbci	r17, 0xFF	; 255
    bca8:	05 c0       	rjmp	.+10     	; 0xbcb4 <vfprintf+0x244>
    bcaa:	ef 2c       	mov	r14, r15
    bcac:	ff 24       	eor	r15, r15
    bcae:	f0 e1       	ldi	r31, 0x10	; 16
    bcb0:	ef 22       	and	r14, r31
    bcb2:	ff 24       	eor	r15, r15
    bcb4:	f8 01       	movw	r30, r16
    bcb6:	84 91       	lpm	r24, Z+
    bcb8:	88 23       	and	r24, r24
    bcba:	61 f7       	brne	.-40     	; 0xbc94 <vfprintf+0x224>
    bcbc:	14 c1       	rjmp	.+552    	; 0xbee6 <vfprintf+0x476>
    bcbe:	f7 fe       	sbrs	r15, 7
    bcc0:	12 c0       	rjmp	.+36     	; 0xbce6 <vfprintf+0x276>
    bcc2:	bc 0c       	add	r11, r12
    bcc4:	24 fe       	sbrs	r2, 4
    bcc6:	04 c0       	rjmp	.+8      	; 0xbcd0 <vfprintf+0x260>
    bcc8:	8a 81       	ldd	r24, Y+2	; 0x02
    bcca:	81 33       	cpi	r24, 0x31	; 49
    bccc:	09 f4       	brne	.+2      	; 0xbcd0 <vfprintf+0x260>
    bcce:	ba 94       	dec	r11
    bcd0:	1b 14       	cp	r1, r11
    bcd2:	1c f0       	brlt	.+6      	; 0xbcda <vfprintf+0x26a>
    bcd4:	bb 24       	eor	r11, r11
    bcd6:	b3 94       	inc	r11
    bcd8:	2d c0       	rjmp	.+90     	; 0xbd34 <vfprintf+0x2c4>
    bcda:	f8 e0       	ldi	r31, 0x08	; 8
    bcdc:	fb 15       	cp	r31, r11
    bcde:	50 f5       	brcc	.+84     	; 0xbd34 <vfprintf+0x2c4>
    bce0:	38 e0       	ldi	r19, 0x08	; 8
    bce2:	b3 2e       	mov	r11, r19
    bce4:	27 c0       	rjmp	.+78     	; 0xbd34 <vfprintf+0x2c4>
    bce6:	f6 fc       	sbrc	r15, 6
    bce8:	25 c0       	rjmp	.+74     	; 0xbd34 <vfprintf+0x2c4>
    bcea:	89 2d       	mov	r24, r9
    bcec:	90 e0       	ldi	r25, 0x00	; 0
    bcee:	8c 15       	cp	r24, r12
    bcf0:	9d 05       	cpc	r25, r13
    bcf2:	4c f0       	brlt	.+18     	; 0xbd06 <vfprintf+0x296>
    bcf4:	2c ef       	ldi	r18, 0xFC	; 252
    bcf6:	c2 16       	cp	r12, r18
    bcf8:	2f ef       	ldi	r18, 0xFF	; 255
    bcfa:	d2 06       	cpc	r13, r18
    bcfc:	24 f0       	brlt	.+8      	; 0xbd06 <vfprintf+0x296>
    bcfe:	30 e8       	ldi	r19, 0x80	; 128
    bd00:	f3 2a       	or	r15, r19
    bd02:	01 c0       	rjmp	.+2      	; 0xbd06 <vfprintf+0x296>
    bd04:	9a 94       	dec	r9
    bd06:	99 20       	and	r9, r9
    bd08:	49 f0       	breq	.+18     	; 0xbd1c <vfprintf+0x2ac>
    bd0a:	e2 e0       	ldi	r30, 0x02	; 2
    bd0c:	f0 e0       	ldi	r31, 0x00	; 0
    bd0e:	ec 0f       	add	r30, r28
    bd10:	fd 1f       	adc	r31, r29
    bd12:	e9 0d       	add	r30, r9
    bd14:	f1 1d       	adc	r31, r1
    bd16:	80 81       	ld	r24, Z
    bd18:	80 33       	cpi	r24, 0x30	; 48
    bd1a:	a1 f3       	breq	.-24     	; 0xbd04 <vfprintf+0x294>
    bd1c:	f7 fe       	sbrs	r15, 7
    bd1e:	0a c0       	rjmp	.+20     	; 0xbd34 <vfprintf+0x2c4>
    bd20:	b9 2c       	mov	r11, r9
    bd22:	b3 94       	inc	r11
    bd24:	89 2d       	mov	r24, r9
    bd26:	90 e0       	ldi	r25, 0x00	; 0
    bd28:	c8 16       	cp	r12, r24
    bd2a:	d9 06       	cpc	r13, r25
    bd2c:	14 f0       	brlt	.+4      	; 0xbd32 <vfprintf+0x2c2>
    bd2e:	99 24       	eor	r9, r9
    bd30:	01 c0       	rjmp	.+2      	; 0xbd34 <vfprintf+0x2c4>
    bd32:	9c 18       	sub	r9, r12
    bd34:	f7 fc       	sbrc	r15, 7
    bd36:	03 c0       	rjmp	.+6      	; 0xbd3e <vfprintf+0x2ce>
    bd38:	25 e0       	ldi	r18, 0x05	; 5
    bd3a:	30 e0       	ldi	r19, 0x00	; 0
    bd3c:	09 c0       	rjmp	.+18     	; 0xbd50 <vfprintf+0x2e0>
    bd3e:	1c 14       	cp	r1, r12
    bd40:	1d 04       	cpc	r1, r13
    bd42:	1c f0       	brlt	.+6      	; 0xbd4a <vfprintf+0x2da>
    bd44:	21 e0       	ldi	r18, 0x01	; 1
    bd46:	30 e0       	ldi	r19, 0x00	; 0
    bd48:	03 c0       	rjmp	.+6      	; 0xbd50 <vfprintf+0x2e0>
    bd4a:	96 01       	movw	r18, r12
    bd4c:	2f 5f       	subi	r18, 0xFF	; 255
    bd4e:	3f 4f       	sbci	r19, 0xFF	; 255
    bd50:	11 23       	and	r17, r17
    bd52:	11 f0       	breq	.+4      	; 0xbd58 <vfprintf+0x2e8>
    bd54:	2f 5f       	subi	r18, 0xFF	; 255
    bd56:	3f 4f       	sbci	r19, 0xFF	; 255
    bd58:	99 20       	and	r9, r9
    bd5a:	29 f0       	breq	.+10     	; 0xbd66 <vfprintf+0x2f6>
    bd5c:	89 2d       	mov	r24, r9
    bd5e:	90 e0       	ldi	r25, 0x00	; 0
    bd60:	01 96       	adiw	r24, 0x01	; 1
    bd62:	28 0f       	add	r18, r24
    bd64:	39 1f       	adc	r19, r25
    bd66:	88 2d       	mov	r24, r8
    bd68:	90 e0       	ldi	r25, 0x00	; 0
    bd6a:	28 17       	cp	r18, r24
    bd6c:	39 07       	cpc	r19, r25
    bd6e:	14 f0       	brlt	.+4      	; 0xbd74 <vfprintf+0x304>
    bd70:	88 24       	eor	r8, r8
    bd72:	01 c0       	rjmp	.+2      	; 0xbd76 <vfprintf+0x306>
    bd74:	82 1a       	sub	r8, r18
    bd76:	4f 2c       	mov	r4, r15
    bd78:	55 24       	eor	r5, r5
    bd7a:	c2 01       	movw	r24, r4
    bd7c:	89 70       	andi	r24, 0x09	; 9
    bd7e:	90 70       	andi	r25, 0x00	; 0
    bd80:	89 2b       	or	r24, r25
    bd82:	39 f0       	breq	.+14     	; 0xbd92 <vfprintf+0x322>
    bd84:	08 c0       	rjmp	.+16     	; 0xbd96 <vfprintf+0x326>
    bd86:	80 e2       	ldi	r24, 0x20	; 32
    bd88:	90 e0       	ldi	r25, 0x00	; 0
    bd8a:	b3 01       	movw	r22, r6
    bd8c:	0e 94 65 62 	call	0xc4ca	; 0xc4ca <fputc>
    bd90:	8a 94       	dec	r8
    bd92:	88 20       	and	r8, r8
    bd94:	c1 f7       	brne	.-16     	; 0xbd86 <vfprintf+0x316>
    bd96:	11 23       	and	r17, r17
    bd98:	29 f0       	breq	.+10     	; 0xbda4 <vfprintf+0x334>
    bd9a:	81 2f       	mov	r24, r17
    bd9c:	90 e0       	ldi	r25, 0x00	; 0
    bd9e:	b3 01       	movw	r22, r6
    bda0:	0e 94 65 62 	call	0xc4ca	; 0xc4ca <fputc>
    bda4:	43 fe       	sbrs	r4, 3
    bda6:	07 c0       	rjmp	.+14     	; 0xbdb6 <vfprintf+0x346>
    bda8:	08 c0       	rjmp	.+16     	; 0xbdba <vfprintf+0x34a>
    bdaa:	80 e3       	ldi	r24, 0x30	; 48
    bdac:	90 e0       	ldi	r25, 0x00	; 0
    bdae:	b3 01       	movw	r22, r6
    bdb0:	0e 94 65 62 	call	0xc4ca	; 0xc4ca <fputc>
    bdb4:	8a 94       	dec	r8
    bdb6:	88 20       	and	r8, r8
    bdb8:	c1 f7       	brne	.-16     	; 0xbdaa <vfprintf+0x33a>
    bdba:	f7 fe       	sbrs	r15, 7
    bdbc:	46 c0       	rjmp	.+140    	; 0xbe4a <vfprintf+0x3da>
    bdbe:	86 01       	movw	r16, r12
    bdc0:	d7 fe       	sbrs	r13, 7
    bdc2:	02 c0       	rjmp	.+4      	; 0xbdc8 <vfprintf+0x358>
    bdc4:	00 e0       	ldi	r16, 0x00	; 0
    bdc6:	10 e0       	ldi	r17, 0x00	; 0
    bdc8:	76 01       	movw	r14, r12
    bdca:	08 94       	sec
    bdcc:	e1 1c       	adc	r14, r1
    bdce:	f1 1c       	adc	r15, r1
    bdd0:	e0 1a       	sub	r14, r16
    bdd2:	f1 0a       	sbc	r15, r17
    bdd4:	41 e0       	ldi	r20, 0x01	; 1
    bdd6:	50 e0       	ldi	r21, 0x00	; 0
    bdd8:	4c 0f       	add	r20, r28
    bdda:	5d 1f       	adc	r21, r29
    bddc:	e4 0e       	add	r14, r20
    bdde:	f5 1e       	adc	r15, r21
    bde0:	26 01       	movw	r4, r12
    bde2:	4b 18       	sub	r4, r11
    bde4:	51 08       	sbc	r5, r1
    bde6:	89 2d       	mov	r24, r9
    bde8:	90 e0       	ldi	r25, 0x00	; 0
    bdea:	aa 24       	eor	r10, r10
    bdec:	bb 24       	eor	r11, r11
    bdee:	a8 1a       	sub	r10, r24
    bdf0:	b9 0a       	sbc	r11, r25
    bdf2:	5f ef       	ldi	r21, 0xFF	; 255
    bdf4:	0f 3f       	cpi	r16, 0xFF	; 255
    bdf6:	15 07       	cpc	r17, r21
    bdf8:	29 f4       	brne	.+10     	; 0xbe04 <vfprintf+0x394>
    bdfa:	8e e2       	ldi	r24, 0x2E	; 46
    bdfc:	90 e0       	ldi	r25, 0x00	; 0
    bdfe:	b3 01       	movw	r22, r6
    be00:	0e 94 65 62 	call	0xc4ca	; 0xc4ca <fputc>
    be04:	c0 16       	cp	r12, r16
    be06:	d1 06       	cpc	r13, r17
    be08:	34 f0       	brlt	.+12     	; 0xbe16 <vfprintf+0x3a6>
    be0a:	40 16       	cp	r4, r16
    be0c:	51 06       	cpc	r5, r17
    be0e:	1c f4       	brge	.+6      	; 0xbe16 <vfprintf+0x3a6>
    be10:	f7 01       	movw	r30, r14
    be12:	80 81       	ld	r24, Z
    be14:	01 c0       	rjmp	.+2      	; 0xbe18 <vfprintf+0x3a8>
    be16:	80 e3       	ldi	r24, 0x30	; 48
    be18:	01 50       	subi	r16, 0x01	; 1
    be1a:	10 40       	sbci	r17, 0x00	; 0
    be1c:	08 94       	sec
    be1e:	e1 1c       	adc	r14, r1
    be20:	f1 1c       	adc	r15, r1
    be22:	0a 15       	cp	r16, r10
    be24:	1b 05       	cpc	r17, r11
    be26:	2c f0       	brlt	.+10     	; 0xbe32 <vfprintf+0x3c2>
    be28:	90 e0       	ldi	r25, 0x00	; 0
    be2a:	b3 01       	movw	r22, r6
    be2c:	0e 94 65 62 	call	0xc4ca	; 0xc4ca <fputc>
    be30:	e0 cf       	rjmp	.-64     	; 0xbdf2 <vfprintf+0x382>
    be32:	0c 15       	cp	r16, r12
    be34:	1d 05       	cpc	r17, r13
    be36:	39 f4       	brne	.+14     	; 0xbe46 <vfprintf+0x3d6>
    be38:	9a 81       	ldd	r25, Y+2	; 0x02
    be3a:	96 33       	cpi	r25, 0x36	; 54
    be3c:	18 f4       	brcc	.+6      	; 0xbe44 <vfprintf+0x3d4>
    be3e:	95 33       	cpi	r25, 0x35	; 53
    be40:	11 f4       	brne	.+4      	; 0xbe46 <vfprintf+0x3d6>
    be42:	24 fe       	sbrs	r2, 4
    be44:	81 e3       	ldi	r24, 0x31	; 49
    be46:	90 e0       	ldi	r25, 0x00	; 0
    be48:	4b c0       	rjmp	.+150    	; 0xbee0 <vfprintf+0x470>
    be4a:	8a 81       	ldd	r24, Y+2	; 0x02
    be4c:	81 33       	cpi	r24, 0x31	; 49
    be4e:	09 f0       	breq	.+2      	; 0xbe52 <vfprintf+0x3e2>
    be50:	0f 7e       	andi	r16, 0xEF	; 239
    be52:	90 e0       	ldi	r25, 0x00	; 0
    be54:	b3 01       	movw	r22, r6
    be56:	0e 94 65 62 	call	0xc4ca	; 0xc4ca <fputc>
    be5a:	99 20       	and	r9, r9
    be5c:	a1 f0       	breq	.+40     	; 0xbe86 <vfprintf+0x416>
    be5e:	8e e2       	ldi	r24, 0x2E	; 46
    be60:	90 e0       	ldi	r25, 0x00	; 0
    be62:	b3 01       	movw	r22, r6
    be64:	0e 94 65 62 	call	0xc4ca	; 0xc4ca <fputc>
    be68:	12 e0       	ldi	r17, 0x02	; 2
    be6a:	e1 e0       	ldi	r30, 0x01	; 1
    be6c:	f0 e0       	ldi	r31, 0x00	; 0
    be6e:	ec 0f       	add	r30, r28
    be70:	fd 1f       	adc	r31, r29
    be72:	e1 0f       	add	r30, r17
    be74:	f1 1d       	adc	r31, r1
    be76:	1f 5f       	subi	r17, 0xFF	; 255
    be78:	80 81       	ld	r24, Z
    be7a:	90 e0       	ldi	r25, 0x00	; 0
    be7c:	b3 01       	movw	r22, r6
    be7e:	0e 94 65 62 	call	0xc4ca	; 0xc4ca <fputc>
    be82:	9a 94       	dec	r9
    be84:	91 f7       	brne	.-28     	; 0xbe6a <vfprintf+0x3fa>
    be86:	44 fc       	sbrc	r4, 4
    be88:	03 c0       	rjmp	.+6      	; 0xbe90 <vfprintf+0x420>
    be8a:	85 e6       	ldi	r24, 0x65	; 101
    be8c:	90 e0       	ldi	r25, 0x00	; 0
    be8e:	02 c0       	rjmp	.+4      	; 0xbe94 <vfprintf+0x424>
    be90:	85 e4       	ldi	r24, 0x45	; 69
    be92:	90 e0       	ldi	r25, 0x00	; 0
    be94:	b3 01       	movw	r22, r6
    be96:	0e 94 65 62 	call	0xc4ca	; 0xc4ca <fputc>
    be9a:	d7 fc       	sbrc	r13, 7
    be9c:	05 c0       	rjmp	.+10     	; 0xbea8 <vfprintf+0x438>
    be9e:	c1 14       	cp	r12, r1
    bea0:	d1 04       	cpc	r13, r1
    bea2:	41 f4       	brne	.+16     	; 0xbeb4 <vfprintf+0x444>
    bea4:	04 ff       	sbrs	r16, 4
    bea6:	06 c0       	rjmp	.+12     	; 0xbeb4 <vfprintf+0x444>
    bea8:	d0 94       	com	r13
    beaa:	c1 94       	neg	r12
    beac:	d1 08       	sbc	r13, r1
    beae:	d3 94       	inc	r13
    beb0:	8d e2       	ldi	r24, 0x2D	; 45
    beb2:	01 c0       	rjmp	.+2      	; 0xbeb6 <vfprintf+0x446>
    beb4:	8b e2       	ldi	r24, 0x2B	; 43
    beb6:	90 e0       	ldi	r25, 0x00	; 0
    beb8:	b3 01       	movw	r22, r6
    beba:	0e 94 65 62 	call	0xc4ca	; 0xc4ca <fputc>
    bebe:	80 e3       	ldi	r24, 0x30	; 48
    bec0:	05 c0       	rjmp	.+10     	; 0xbecc <vfprintf+0x45c>
    bec2:	8f 5f       	subi	r24, 0xFF	; 255
    bec4:	26 ef       	ldi	r18, 0xF6	; 246
    bec6:	3f ef       	ldi	r19, 0xFF	; 255
    bec8:	c2 0e       	add	r12, r18
    beca:	d3 1e       	adc	r13, r19
    becc:	3a e0       	ldi	r19, 0x0A	; 10
    bece:	c3 16       	cp	r12, r19
    bed0:	d1 04       	cpc	r13, r1
    bed2:	bc f7       	brge	.-18     	; 0xbec2 <vfprintf+0x452>
    bed4:	90 e0       	ldi	r25, 0x00	; 0
    bed6:	b3 01       	movw	r22, r6
    bed8:	0e 94 65 62 	call	0xc4ca	; 0xc4ca <fputc>
    bedc:	c6 01       	movw	r24, r12
    bede:	c0 96       	adiw	r24, 0x30	; 48
    bee0:	b3 01       	movw	r22, r6
    bee2:	0e 94 65 62 	call	0xc4ca	; 0xc4ca <fputc>
    bee6:	cc 84       	ldd	r12, Y+12	; 0x0c
    bee8:	dd 84       	ldd	r13, Y+13	; 0x0d
    beea:	52 c1       	rjmp	.+676    	; 0xc190 <vfprintf+0x720>
    beec:	93 36       	cpi	r25, 0x63	; 99
    beee:	31 f0       	breq	.+12     	; 0xbefc <vfprintf+0x48c>
    bef0:	93 37       	cpi	r25, 0x73	; 115
    bef2:	99 f0       	breq	.+38     	; 0xbf1a <vfprintf+0x4aa>
    bef4:	93 35       	cpi	r25, 0x53	; 83
    bef6:	09 f0       	breq	.+2      	; 0xbefa <vfprintf+0x48a>
    bef8:	59 c0       	rjmp	.+178    	; 0xbfac <vfprintf+0x53c>
    befa:	23 c0       	rjmp	.+70     	; 0xbf42 <vfprintf+0x4d2>
    befc:	f6 01       	movw	r30, r12
    befe:	80 81       	ld	r24, Z
    bf00:	89 83       	std	Y+1, r24	; 0x01
    bf02:	5e 01       	movw	r10, r28
    bf04:	08 94       	sec
    bf06:	a1 1c       	adc	r10, r1
    bf08:	b1 1c       	adc	r11, r1
    bf0a:	22 e0       	ldi	r18, 0x02	; 2
    bf0c:	30 e0       	ldi	r19, 0x00	; 0
    bf0e:	c2 0e       	add	r12, r18
    bf10:	d3 1e       	adc	r13, r19
    bf12:	21 e0       	ldi	r18, 0x01	; 1
    bf14:	e2 2e       	mov	r14, r18
    bf16:	f1 2c       	mov	r15, r1
    bf18:	12 c0       	rjmp	.+36     	; 0xbf3e <vfprintf+0x4ce>
    bf1a:	f6 01       	movw	r30, r12
    bf1c:	a0 80       	ld	r10, Z
    bf1e:	b1 80       	ldd	r11, Z+1	; 0x01
    bf20:	16 fd       	sbrc	r17, 6
    bf22:	03 c0       	rjmp	.+6      	; 0xbf2a <vfprintf+0x4ba>
    bf24:	6f ef       	ldi	r22, 0xFF	; 255
    bf26:	7f ef       	ldi	r23, 0xFF	; 255
    bf28:	02 c0       	rjmp	.+4      	; 0xbf2e <vfprintf+0x4be>
    bf2a:	69 2d       	mov	r22, r9
    bf2c:	70 e0       	ldi	r23, 0x00	; 0
    bf2e:	22 e0       	ldi	r18, 0x02	; 2
    bf30:	30 e0       	ldi	r19, 0x00	; 0
    bf32:	c2 0e       	add	r12, r18
    bf34:	d3 1e       	adc	r13, r19
    bf36:	c5 01       	movw	r24, r10
    bf38:	0e 94 5a 62 	call	0xc4b4	; 0xc4b4 <strnlen>
    bf3c:	7c 01       	movw	r14, r24
    bf3e:	1f 77       	andi	r17, 0x7F	; 127
    bf40:	13 c0       	rjmp	.+38     	; 0xbf68 <vfprintf+0x4f8>
    bf42:	f6 01       	movw	r30, r12
    bf44:	a0 80       	ld	r10, Z
    bf46:	b1 80       	ldd	r11, Z+1	; 0x01
    bf48:	16 fd       	sbrc	r17, 6
    bf4a:	03 c0       	rjmp	.+6      	; 0xbf52 <vfprintf+0x4e2>
    bf4c:	6f ef       	ldi	r22, 0xFF	; 255
    bf4e:	7f ef       	ldi	r23, 0xFF	; 255
    bf50:	02 c0       	rjmp	.+4      	; 0xbf56 <vfprintf+0x4e6>
    bf52:	69 2d       	mov	r22, r9
    bf54:	70 e0       	ldi	r23, 0x00	; 0
    bf56:	22 e0       	ldi	r18, 0x02	; 2
    bf58:	30 e0       	ldi	r19, 0x00	; 0
    bf5a:	c2 0e       	add	r12, r18
    bf5c:	d3 1e       	adc	r13, r19
    bf5e:	c5 01       	movw	r24, r10
    bf60:	0e 94 4f 62 	call	0xc49e	; 0xc49e <strnlen_P>
    bf64:	7c 01       	movw	r14, r24
    bf66:	10 68       	ori	r17, 0x80	; 128
    bf68:	13 ff       	sbrs	r17, 3
    bf6a:	07 c0       	rjmp	.+14     	; 0xbf7a <vfprintf+0x50a>
    bf6c:	1b c0       	rjmp	.+54     	; 0xbfa4 <vfprintf+0x534>
    bf6e:	80 e2       	ldi	r24, 0x20	; 32
    bf70:	90 e0       	ldi	r25, 0x00	; 0
    bf72:	b3 01       	movw	r22, r6
    bf74:	0e 94 65 62 	call	0xc4ca	; 0xc4ca <fputc>
    bf78:	8a 94       	dec	r8
    bf7a:	88 2d       	mov	r24, r8
    bf7c:	90 e0       	ldi	r25, 0x00	; 0
    bf7e:	e8 16       	cp	r14, r24
    bf80:	f9 06       	cpc	r15, r25
    bf82:	a8 f3       	brcs	.-22     	; 0xbf6e <vfprintf+0x4fe>
    bf84:	0f c0       	rjmp	.+30     	; 0xbfa4 <vfprintf+0x534>
    bf86:	f5 01       	movw	r30, r10
    bf88:	17 fd       	sbrc	r17, 7
    bf8a:	85 91       	lpm	r24, Z+
    bf8c:	17 ff       	sbrs	r17, 7
    bf8e:	81 91       	ld	r24, Z+
    bf90:	5f 01       	movw	r10, r30
    bf92:	90 e0       	ldi	r25, 0x00	; 0
    bf94:	b3 01       	movw	r22, r6
    bf96:	0e 94 65 62 	call	0xc4ca	; 0xc4ca <fputc>
    bf9a:	81 10       	cpse	r8, r1
    bf9c:	8a 94       	dec	r8
    bf9e:	08 94       	sec
    bfa0:	e1 08       	sbc	r14, r1
    bfa2:	f1 08       	sbc	r15, r1
    bfa4:	e1 14       	cp	r14, r1
    bfa6:	f1 04       	cpc	r15, r1
    bfa8:	71 f7       	brne	.-36     	; 0xbf86 <vfprintf+0x516>
    bfaa:	f2 c0       	rjmp	.+484    	; 0xc190 <vfprintf+0x720>
    bfac:	94 36       	cpi	r25, 0x64	; 100
    bfae:	11 f0       	breq	.+4      	; 0xbfb4 <vfprintf+0x544>
    bfb0:	99 36       	cpi	r25, 0x69	; 105
    bfb2:	89 f5       	brne	.+98     	; 0xc016 <vfprintf+0x5a6>
    bfb4:	17 ff       	sbrs	r17, 7
    bfb6:	08 c0       	rjmp	.+16     	; 0xbfc8 <vfprintf+0x558>
    bfb8:	f6 01       	movw	r30, r12
    bfba:	20 81       	ld	r18, Z
    bfbc:	31 81       	ldd	r19, Z+1	; 0x01
    bfbe:	42 81       	ldd	r20, Z+2	; 0x02
    bfc0:	53 81       	ldd	r21, Z+3	; 0x03
    bfc2:	84 e0       	ldi	r24, 0x04	; 4
    bfc4:	90 e0       	ldi	r25, 0x00	; 0
    bfc6:	0a c0       	rjmp	.+20     	; 0xbfdc <vfprintf+0x56c>
    bfc8:	f6 01       	movw	r30, r12
    bfca:	80 81       	ld	r24, Z
    bfcc:	91 81       	ldd	r25, Z+1	; 0x01
    bfce:	9c 01       	movw	r18, r24
    bfd0:	44 27       	eor	r20, r20
    bfd2:	37 fd       	sbrc	r19, 7
    bfd4:	40 95       	com	r20
    bfd6:	54 2f       	mov	r21, r20
    bfd8:	82 e0       	ldi	r24, 0x02	; 2
    bfda:	90 e0       	ldi	r25, 0x00	; 0
    bfdc:	c8 0e       	add	r12, r24
    bfde:	d9 1e       	adc	r13, r25
    bfe0:	9f e6       	ldi	r25, 0x6F	; 111
    bfe2:	f9 2e       	mov	r15, r25
    bfe4:	f1 22       	and	r15, r17
    bfe6:	57 ff       	sbrs	r21, 7
    bfe8:	09 c0       	rjmp	.+18     	; 0xbffc <vfprintf+0x58c>
    bfea:	50 95       	com	r21
    bfec:	40 95       	com	r20
    bfee:	30 95       	com	r19
    bff0:	21 95       	neg	r18
    bff2:	3f 4f       	sbci	r19, 0xFF	; 255
    bff4:	4f 4f       	sbci	r20, 0xFF	; 255
    bff6:	5f 4f       	sbci	r21, 0xFF	; 255
    bff8:	90 e8       	ldi	r25, 0x80	; 128
    bffa:	f9 2a       	or	r15, r25
    bffc:	ca 01       	movw	r24, r20
    bffe:	b9 01       	movw	r22, r18
    c000:	ae 01       	movw	r20, r28
    c002:	4f 5f       	subi	r20, 0xFF	; 255
    c004:	5f 4f       	sbci	r21, 0xFF	; 255
    c006:	2a e0       	ldi	r18, 0x0A	; 10
    c008:	30 e0       	ldi	r19, 0x00	; 0
    c00a:	0e 94 91 62 	call	0xc522	; 0xc522 <__ultoa_invert>
    c00e:	e8 2e       	mov	r14, r24
    c010:	e8 89       	ldd	r30, Y+16	; 0x10
    c012:	ee 1a       	sub	r14, r30
    c014:	41 c0       	rjmp	.+130    	; 0xc098 <vfprintf+0x628>
    c016:	95 37       	cpi	r25, 0x75	; 117
    c018:	21 f4       	brne	.+8      	; 0xc022 <vfprintf+0x5b2>
    c01a:	1f 7e       	andi	r17, 0xEF	; 239
    c01c:	2a e0       	ldi	r18, 0x0A	; 10
    c01e:	30 e0       	ldi	r19, 0x00	; 0
    c020:	1c c0       	rjmp	.+56     	; 0xc05a <vfprintf+0x5ea>
    c022:	19 7f       	andi	r17, 0xF9	; 249
    c024:	9f 36       	cpi	r25, 0x6F	; 111
    c026:	61 f0       	breq	.+24     	; 0xc040 <vfprintf+0x5d0>
    c028:	90 37       	cpi	r25, 0x70	; 112
    c02a:	20 f4       	brcc	.+8      	; 0xc034 <vfprintf+0x5c4>
    c02c:	98 35       	cpi	r25, 0x58	; 88
    c02e:	09 f0       	breq	.+2      	; 0xc032 <vfprintf+0x5c2>
    c030:	b2 c0       	rjmp	.+356    	; 0xc196 <vfprintf+0x726>
    c032:	0f c0       	rjmp	.+30     	; 0xc052 <vfprintf+0x5e2>
    c034:	90 37       	cpi	r25, 0x70	; 112
    c036:	39 f0       	breq	.+14     	; 0xc046 <vfprintf+0x5d6>
    c038:	98 37       	cpi	r25, 0x78	; 120
    c03a:	09 f0       	breq	.+2      	; 0xc03e <vfprintf+0x5ce>
    c03c:	ac c0       	rjmp	.+344    	; 0xc196 <vfprintf+0x726>
    c03e:	04 c0       	rjmp	.+8      	; 0xc048 <vfprintf+0x5d8>
    c040:	28 e0       	ldi	r18, 0x08	; 8
    c042:	30 e0       	ldi	r19, 0x00	; 0
    c044:	0a c0       	rjmp	.+20     	; 0xc05a <vfprintf+0x5ea>
    c046:	10 61       	ori	r17, 0x10	; 16
    c048:	14 fd       	sbrc	r17, 4
    c04a:	14 60       	ori	r17, 0x04	; 4
    c04c:	20 e1       	ldi	r18, 0x10	; 16
    c04e:	30 e0       	ldi	r19, 0x00	; 0
    c050:	04 c0       	rjmp	.+8      	; 0xc05a <vfprintf+0x5ea>
    c052:	14 fd       	sbrc	r17, 4
    c054:	16 60       	ori	r17, 0x06	; 6
    c056:	20 e1       	ldi	r18, 0x10	; 16
    c058:	32 e0       	ldi	r19, 0x02	; 2
    c05a:	17 ff       	sbrs	r17, 7
    c05c:	08 c0       	rjmp	.+16     	; 0xc06e <vfprintf+0x5fe>
    c05e:	f6 01       	movw	r30, r12
    c060:	60 81       	ld	r22, Z
    c062:	71 81       	ldd	r23, Z+1	; 0x01
    c064:	82 81       	ldd	r24, Z+2	; 0x02
    c066:	93 81       	ldd	r25, Z+3	; 0x03
    c068:	44 e0       	ldi	r20, 0x04	; 4
    c06a:	50 e0       	ldi	r21, 0x00	; 0
    c06c:	08 c0       	rjmp	.+16     	; 0xc07e <vfprintf+0x60e>
    c06e:	f6 01       	movw	r30, r12
    c070:	80 81       	ld	r24, Z
    c072:	91 81       	ldd	r25, Z+1	; 0x01
    c074:	bc 01       	movw	r22, r24
    c076:	80 e0       	ldi	r24, 0x00	; 0
    c078:	90 e0       	ldi	r25, 0x00	; 0
    c07a:	42 e0       	ldi	r20, 0x02	; 2
    c07c:	50 e0       	ldi	r21, 0x00	; 0
    c07e:	c4 0e       	add	r12, r20
    c080:	d5 1e       	adc	r13, r21
    c082:	ae 01       	movw	r20, r28
    c084:	4f 5f       	subi	r20, 0xFF	; 255
    c086:	5f 4f       	sbci	r21, 0xFF	; 255
    c088:	0e 94 91 62 	call	0xc522	; 0xc522 <__ultoa_invert>
    c08c:	e8 2e       	mov	r14, r24
    c08e:	58 89       	ldd	r21, Y+16	; 0x10
    c090:	e5 1a       	sub	r14, r21
    c092:	8f e7       	ldi	r24, 0x7F	; 127
    c094:	f8 2e       	mov	r15, r24
    c096:	f1 22       	and	r15, r17
    c098:	f6 fe       	sbrs	r15, 6
    c09a:	0b c0       	rjmp	.+22     	; 0xc0b2 <vfprintf+0x642>
    c09c:	8e ef       	ldi	r24, 0xFE	; 254
    c09e:	f8 22       	and	r15, r24
    c0a0:	e9 14       	cp	r14, r9
    c0a2:	38 f4       	brcc	.+14     	; 0xc0b2 <vfprintf+0x642>
    c0a4:	f4 fe       	sbrs	r15, 4
    c0a6:	07 c0       	rjmp	.+14     	; 0xc0b6 <vfprintf+0x646>
    c0a8:	f2 fc       	sbrc	r15, 2
    c0aa:	05 c0       	rjmp	.+10     	; 0xc0b6 <vfprintf+0x646>
    c0ac:	9f ee       	ldi	r25, 0xEF	; 239
    c0ae:	f9 22       	and	r15, r25
    c0b0:	02 c0       	rjmp	.+4      	; 0xc0b6 <vfprintf+0x646>
    c0b2:	1e 2d       	mov	r17, r14
    c0b4:	01 c0       	rjmp	.+2      	; 0xc0b8 <vfprintf+0x648>
    c0b6:	19 2d       	mov	r17, r9
    c0b8:	f4 fe       	sbrs	r15, 4
    c0ba:	0d c0       	rjmp	.+26     	; 0xc0d6 <vfprintf+0x666>
    c0bc:	fe 01       	movw	r30, r28
    c0be:	ee 0d       	add	r30, r14
    c0c0:	f1 1d       	adc	r31, r1
    c0c2:	80 81       	ld	r24, Z
    c0c4:	80 33       	cpi	r24, 0x30	; 48
    c0c6:	19 f4       	brne	.+6      	; 0xc0ce <vfprintf+0x65e>
    c0c8:	e9 ee       	ldi	r30, 0xE9	; 233
    c0ca:	fe 22       	and	r15, r30
    c0cc:	08 c0       	rjmp	.+16     	; 0xc0de <vfprintf+0x66e>
    c0ce:	1f 5f       	subi	r17, 0xFF	; 255
    c0d0:	f2 fe       	sbrs	r15, 2
    c0d2:	05 c0       	rjmp	.+10     	; 0xc0de <vfprintf+0x66e>
    c0d4:	03 c0       	rjmp	.+6      	; 0xc0dc <vfprintf+0x66c>
    c0d6:	8f 2d       	mov	r24, r15
    c0d8:	86 78       	andi	r24, 0x86	; 134
    c0da:	09 f0       	breq	.+2      	; 0xc0de <vfprintf+0x66e>
    c0dc:	1f 5f       	subi	r17, 0xFF	; 255
    c0de:	0f 2d       	mov	r16, r15
    c0e0:	f3 fc       	sbrc	r15, 3
    c0e2:	14 c0       	rjmp	.+40     	; 0xc10c <vfprintf+0x69c>
    c0e4:	f0 fe       	sbrs	r15, 0
    c0e6:	0f c0       	rjmp	.+30     	; 0xc106 <vfprintf+0x696>
    c0e8:	18 15       	cp	r17, r8
    c0ea:	10 f0       	brcs	.+4      	; 0xc0f0 <vfprintf+0x680>
    c0ec:	9e 2c       	mov	r9, r14
    c0ee:	0b c0       	rjmp	.+22     	; 0xc106 <vfprintf+0x696>
    c0f0:	9e 2c       	mov	r9, r14
    c0f2:	98 0c       	add	r9, r8
    c0f4:	91 1a       	sub	r9, r17
    c0f6:	18 2d       	mov	r17, r8
    c0f8:	06 c0       	rjmp	.+12     	; 0xc106 <vfprintf+0x696>
    c0fa:	80 e2       	ldi	r24, 0x20	; 32
    c0fc:	90 e0       	ldi	r25, 0x00	; 0
    c0fe:	b3 01       	movw	r22, r6
    c100:	0e 94 65 62 	call	0xc4ca	; 0xc4ca <fputc>
    c104:	1f 5f       	subi	r17, 0xFF	; 255
    c106:	18 15       	cp	r17, r8
    c108:	c0 f3       	brcs	.-16     	; 0xc0fa <vfprintf+0x68a>
    c10a:	04 c0       	rjmp	.+8      	; 0xc114 <vfprintf+0x6a4>
    c10c:	18 15       	cp	r17, r8
    c10e:	10 f4       	brcc	.+4      	; 0xc114 <vfprintf+0x6a4>
    c110:	81 1a       	sub	r8, r17
    c112:	01 c0       	rjmp	.+2      	; 0xc116 <vfprintf+0x6a6>
    c114:	88 24       	eor	r8, r8
    c116:	04 ff       	sbrs	r16, 4
    c118:	0f c0       	rjmp	.+30     	; 0xc138 <vfprintf+0x6c8>
    c11a:	80 e3       	ldi	r24, 0x30	; 48
    c11c:	90 e0       	ldi	r25, 0x00	; 0
    c11e:	b3 01       	movw	r22, r6
    c120:	0e 94 65 62 	call	0xc4ca	; 0xc4ca <fputc>
    c124:	02 ff       	sbrs	r16, 2
    c126:	1d c0       	rjmp	.+58     	; 0xc162 <vfprintf+0x6f2>
    c128:	01 fd       	sbrc	r16, 1
    c12a:	03 c0       	rjmp	.+6      	; 0xc132 <vfprintf+0x6c2>
    c12c:	88 e7       	ldi	r24, 0x78	; 120
    c12e:	90 e0       	ldi	r25, 0x00	; 0
    c130:	0e c0       	rjmp	.+28     	; 0xc14e <vfprintf+0x6de>
    c132:	88 e5       	ldi	r24, 0x58	; 88
    c134:	90 e0       	ldi	r25, 0x00	; 0
    c136:	0b c0       	rjmp	.+22     	; 0xc14e <vfprintf+0x6de>
    c138:	80 2f       	mov	r24, r16
    c13a:	86 78       	andi	r24, 0x86	; 134
    c13c:	91 f0       	breq	.+36     	; 0xc162 <vfprintf+0x6f2>
    c13e:	01 ff       	sbrs	r16, 1
    c140:	02 c0       	rjmp	.+4      	; 0xc146 <vfprintf+0x6d6>
    c142:	8b e2       	ldi	r24, 0x2B	; 43
    c144:	01 c0       	rjmp	.+2      	; 0xc148 <vfprintf+0x6d8>
    c146:	80 e2       	ldi	r24, 0x20	; 32
    c148:	f7 fc       	sbrc	r15, 7
    c14a:	8d e2       	ldi	r24, 0x2D	; 45
    c14c:	90 e0       	ldi	r25, 0x00	; 0
    c14e:	b3 01       	movw	r22, r6
    c150:	0e 94 65 62 	call	0xc4ca	; 0xc4ca <fputc>
    c154:	06 c0       	rjmp	.+12     	; 0xc162 <vfprintf+0x6f2>
    c156:	80 e3       	ldi	r24, 0x30	; 48
    c158:	90 e0       	ldi	r25, 0x00	; 0
    c15a:	b3 01       	movw	r22, r6
    c15c:	0e 94 65 62 	call	0xc4ca	; 0xc4ca <fputc>
    c160:	9a 94       	dec	r9
    c162:	e9 14       	cp	r14, r9
    c164:	c0 f3       	brcs	.-16     	; 0xc156 <vfprintf+0x6e6>
    c166:	ea 94       	dec	r14
    c168:	e1 e0       	ldi	r30, 0x01	; 1
    c16a:	f0 e0       	ldi	r31, 0x00	; 0
    c16c:	ec 0f       	add	r30, r28
    c16e:	fd 1f       	adc	r31, r29
    c170:	ee 0d       	add	r30, r14
    c172:	f1 1d       	adc	r31, r1
    c174:	80 81       	ld	r24, Z
    c176:	90 e0       	ldi	r25, 0x00	; 0
    c178:	b3 01       	movw	r22, r6
    c17a:	0e 94 65 62 	call	0xc4ca	; 0xc4ca <fputc>
    c17e:	ee 20       	and	r14, r14
    c180:	91 f7       	brne	.-28     	; 0xc166 <vfprintf+0x6f6>
    c182:	06 c0       	rjmp	.+12     	; 0xc190 <vfprintf+0x720>
    c184:	80 e2       	ldi	r24, 0x20	; 32
    c186:	90 e0       	ldi	r25, 0x00	; 0
    c188:	b3 01       	movw	r22, r6
    c18a:	0e 94 65 62 	call	0xc4ca	; 0xc4ca <fputc>
    c18e:	8a 94       	dec	r8
    c190:	88 20       	and	r8, r8
    c192:	c1 f7       	brne	.-16     	; 0xc184 <vfprintf+0x714>
    c194:	99 cc       	rjmp	.-1742   	; 0xbac8 <vfprintf+0x58>
    c196:	f3 01       	movw	r30, r6
    c198:	66 81       	ldd	r22, Z+6	; 0x06
    c19a:	77 81       	ldd	r23, Z+7	; 0x07
    c19c:	cb 01       	movw	r24, r22
    c19e:	61 96       	adiw	r28, 0x11	; 17
    c1a0:	0f b6       	in	r0, 0x3f	; 63
    c1a2:	f8 94       	cli
    c1a4:	de bf       	out	0x3e, r29	; 62
    c1a6:	0f be       	out	0x3f, r0	; 63
    c1a8:	cd bf       	out	0x3d, r28	; 61
    c1aa:	cf 91       	pop	r28
    c1ac:	df 91       	pop	r29
    c1ae:	1f 91       	pop	r17
    c1b0:	0f 91       	pop	r16
    c1b2:	ff 90       	pop	r15
    c1b4:	ef 90       	pop	r14
    c1b6:	df 90       	pop	r13
    c1b8:	cf 90       	pop	r12
    c1ba:	bf 90       	pop	r11
    c1bc:	af 90       	pop	r10
    c1be:	9f 90       	pop	r9
    c1c0:	8f 90       	pop	r8
    c1c2:	7f 90       	pop	r7
    c1c4:	6f 90       	pop	r6
    c1c6:	5f 90       	pop	r5
    c1c8:	4f 90       	pop	r4
    c1ca:	3f 90       	pop	r3
    c1cc:	2f 90       	pop	r2
    c1ce:	08 95       	ret

0000c1d0 <__mulsi3>:
    c1d0:	62 9f       	mul	r22, r18
    c1d2:	d0 01       	movw	r26, r0
    c1d4:	73 9f       	mul	r23, r19
    c1d6:	f0 01       	movw	r30, r0
    c1d8:	82 9f       	mul	r24, r18
    c1da:	e0 0d       	add	r30, r0
    c1dc:	f1 1d       	adc	r31, r1
    c1de:	64 9f       	mul	r22, r20
    c1e0:	e0 0d       	add	r30, r0
    c1e2:	f1 1d       	adc	r31, r1
    c1e4:	92 9f       	mul	r25, r18
    c1e6:	f0 0d       	add	r31, r0
    c1e8:	83 9f       	mul	r24, r19
    c1ea:	f0 0d       	add	r31, r0
    c1ec:	74 9f       	mul	r23, r20
    c1ee:	f0 0d       	add	r31, r0
    c1f0:	65 9f       	mul	r22, r21
    c1f2:	f0 0d       	add	r31, r0
    c1f4:	99 27       	eor	r25, r25
    c1f6:	72 9f       	mul	r23, r18
    c1f8:	b0 0d       	add	r27, r0
    c1fa:	e1 1d       	adc	r30, r1
    c1fc:	f9 1f       	adc	r31, r25
    c1fe:	63 9f       	mul	r22, r19
    c200:	b0 0d       	add	r27, r0
    c202:	e1 1d       	adc	r30, r1
    c204:	f9 1f       	adc	r31, r25
    c206:	bd 01       	movw	r22, r26
    c208:	cf 01       	movw	r24, r30
    c20a:	11 24       	eor	r1, r1
    c20c:	08 95       	ret

0000c20e <__udivmodqi4>:
    c20e:	99 1b       	sub	r25, r25
    c210:	79 e0       	ldi	r23, 0x09	; 9
    c212:	04 c0       	rjmp	.+8      	; 0xc21c <__udivmodqi4_ep>

0000c214 <__udivmodqi4_loop>:
    c214:	99 1f       	adc	r25, r25
    c216:	96 17       	cp	r25, r22
    c218:	08 f0       	brcs	.+2      	; 0xc21c <__udivmodqi4_ep>
    c21a:	96 1b       	sub	r25, r22

0000c21c <__udivmodqi4_ep>:
    c21c:	88 1f       	adc	r24, r24
    c21e:	7a 95       	dec	r23
    c220:	c9 f7       	brne	.-14     	; 0xc214 <__udivmodqi4_loop>
    c222:	80 95       	com	r24
    c224:	08 95       	ret

0000c226 <__udivmodhi4>:
    c226:	aa 1b       	sub	r26, r26
    c228:	bb 1b       	sub	r27, r27
    c22a:	51 e1       	ldi	r21, 0x11	; 17
    c22c:	07 c0       	rjmp	.+14     	; 0xc23c <__udivmodhi4_ep>

0000c22e <__udivmodhi4_loop>:
    c22e:	aa 1f       	adc	r26, r26
    c230:	bb 1f       	adc	r27, r27
    c232:	a6 17       	cp	r26, r22
    c234:	b7 07       	cpc	r27, r23
    c236:	10 f0       	brcs	.+4      	; 0xc23c <__udivmodhi4_ep>
    c238:	a6 1b       	sub	r26, r22
    c23a:	b7 0b       	sbc	r27, r23

0000c23c <__udivmodhi4_ep>:
    c23c:	88 1f       	adc	r24, r24
    c23e:	99 1f       	adc	r25, r25
    c240:	5a 95       	dec	r21
    c242:	a9 f7       	brne	.-22     	; 0xc22e <__udivmodhi4_loop>
    c244:	80 95       	com	r24
    c246:	90 95       	com	r25
    c248:	bc 01       	movw	r22, r24
    c24a:	cd 01       	movw	r24, r26
    c24c:	08 95       	ret

0000c24e <__divmodhi4>:
    c24e:	97 fb       	bst	r25, 7
    c250:	09 2e       	mov	r0, r25
    c252:	07 26       	eor	r0, r23
    c254:	0a d0       	rcall	.+20     	; 0xc26a <__divmodhi4_neg1>
    c256:	77 fd       	sbrc	r23, 7
    c258:	04 d0       	rcall	.+8      	; 0xc262 <__divmodhi4_neg2>
    c25a:	e5 df       	rcall	.-54     	; 0xc226 <__udivmodhi4>
    c25c:	06 d0       	rcall	.+12     	; 0xc26a <__divmodhi4_neg1>
    c25e:	00 20       	and	r0, r0
    c260:	1a f4       	brpl	.+6      	; 0xc268 <__divmodhi4_exit>

0000c262 <__divmodhi4_neg2>:
    c262:	70 95       	com	r23
    c264:	61 95       	neg	r22
    c266:	7f 4f       	sbci	r23, 0xFF	; 255

0000c268 <__divmodhi4_exit>:
    c268:	08 95       	ret

0000c26a <__divmodhi4_neg1>:
    c26a:	f6 f7       	brtc	.-4      	; 0xc268 <__divmodhi4_exit>
    c26c:	90 95       	com	r25
    c26e:	81 95       	neg	r24
    c270:	9f 4f       	sbci	r25, 0xFF	; 255
    c272:	08 95       	ret

0000c274 <__udivmodsi4>:
    c274:	a1 e2       	ldi	r26, 0x21	; 33
    c276:	1a 2e       	mov	r1, r26
    c278:	aa 1b       	sub	r26, r26
    c27a:	bb 1b       	sub	r27, r27
    c27c:	fd 01       	movw	r30, r26
    c27e:	0d c0       	rjmp	.+26     	; 0xc29a <__udivmodsi4_ep>

0000c280 <__udivmodsi4_loop>:
    c280:	aa 1f       	adc	r26, r26
    c282:	bb 1f       	adc	r27, r27
    c284:	ee 1f       	adc	r30, r30
    c286:	ff 1f       	adc	r31, r31
    c288:	a2 17       	cp	r26, r18
    c28a:	b3 07       	cpc	r27, r19
    c28c:	e4 07       	cpc	r30, r20
    c28e:	f5 07       	cpc	r31, r21
    c290:	20 f0       	brcs	.+8      	; 0xc29a <__udivmodsi4_ep>
    c292:	a2 1b       	sub	r26, r18
    c294:	b3 0b       	sbc	r27, r19
    c296:	e4 0b       	sbc	r30, r20
    c298:	f5 0b       	sbc	r31, r21

0000c29a <__udivmodsi4_ep>:
    c29a:	66 1f       	adc	r22, r22
    c29c:	77 1f       	adc	r23, r23
    c29e:	88 1f       	adc	r24, r24
    c2a0:	99 1f       	adc	r25, r25
    c2a2:	1a 94       	dec	r1
    c2a4:	69 f7       	brne	.-38     	; 0xc280 <__udivmodsi4_loop>
    c2a6:	60 95       	com	r22
    c2a8:	70 95       	com	r23
    c2aa:	80 95       	com	r24
    c2ac:	90 95       	com	r25
    c2ae:	9b 01       	movw	r18, r22
    c2b0:	ac 01       	movw	r20, r24
    c2b2:	bd 01       	movw	r22, r26
    c2b4:	cf 01       	movw	r24, r30
    c2b6:	08 95       	ret

0000c2b8 <__divmodsi4>:
    c2b8:	97 fb       	bst	r25, 7
    c2ba:	09 2e       	mov	r0, r25
    c2bc:	05 26       	eor	r0, r21
    c2be:	0e d0       	rcall	.+28     	; 0xc2dc <__divmodsi4_neg1>
    c2c0:	57 fd       	sbrc	r21, 7
    c2c2:	04 d0       	rcall	.+8      	; 0xc2cc <__divmodsi4_neg2>
    c2c4:	d7 df       	rcall	.-82     	; 0xc274 <__udivmodsi4>
    c2c6:	0a d0       	rcall	.+20     	; 0xc2dc <__divmodsi4_neg1>
    c2c8:	00 1c       	adc	r0, r0
    c2ca:	38 f4       	brcc	.+14     	; 0xc2da <__divmodsi4_exit>

0000c2cc <__divmodsi4_neg2>:
    c2cc:	50 95       	com	r21
    c2ce:	40 95       	com	r20
    c2d0:	30 95       	com	r19
    c2d2:	21 95       	neg	r18
    c2d4:	3f 4f       	sbci	r19, 0xFF	; 255
    c2d6:	4f 4f       	sbci	r20, 0xFF	; 255
    c2d8:	5f 4f       	sbci	r21, 0xFF	; 255

0000c2da <__divmodsi4_exit>:
    c2da:	08 95       	ret

0000c2dc <__divmodsi4_neg1>:
    c2dc:	f6 f7       	brtc	.-4      	; 0xc2da <__divmodsi4_exit>
    c2de:	90 95       	com	r25
    c2e0:	80 95       	com	r24
    c2e2:	70 95       	com	r23
    c2e4:	61 95       	neg	r22
    c2e6:	7f 4f       	sbci	r23, 0xFF	; 255
    c2e8:	8f 4f       	sbci	r24, 0xFF	; 255
    c2ea:	9f 4f       	sbci	r25, 0xFF	; 255
    c2ec:	08 95       	ret

0000c2ee <__ftoa_engine>:
    c2ee:	28 30       	cpi	r18, 0x08	; 8
    c2f0:	08 f0       	brcs	.+2      	; 0xc2f4 <__ftoa_engine+0x6>
    c2f2:	27 e0       	ldi	r18, 0x07	; 7
    c2f4:	33 27       	eor	r19, r19
    c2f6:	da 01       	movw	r26, r20
    c2f8:	99 0f       	add	r25, r25
    c2fa:	31 1d       	adc	r19, r1
    c2fc:	87 fd       	sbrc	r24, 7
    c2fe:	91 60       	ori	r25, 0x01	; 1
    c300:	00 96       	adiw	r24, 0x00	; 0
    c302:	61 05       	cpc	r22, r1
    c304:	71 05       	cpc	r23, r1
    c306:	39 f4       	brne	.+14     	; 0xc316 <__ftoa_engine+0x28>
    c308:	32 60       	ori	r19, 0x02	; 2
    c30a:	2e 5f       	subi	r18, 0xFE	; 254
    c30c:	3d 93       	st	X+, r19
    c30e:	30 e3       	ldi	r19, 0x30	; 48
    c310:	2a 95       	dec	r18
    c312:	e1 f7       	brne	.-8      	; 0xc30c <__ftoa_engine+0x1e>
    c314:	08 95       	ret
    c316:	9f 3f       	cpi	r25, 0xFF	; 255
    c318:	30 f0       	brcs	.+12     	; 0xc326 <__ftoa_engine+0x38>
    c31a:	80 38       	cpi	r24, 0x80	; 128
    c31c:	71 05       	cpc	r23, r1
    c31e:	61 05       	cpc	r22, r1
    c320:	09 f0       	breq	.+2      	; 0xc324 <__ftoa_engine+0x36>
    c322:	3c 5f       	subi	r19, 0xFC	; 252
    c324:	3c 5f       	subi	r19, 0xFC	; 252
    c326:	3d 93       	st	X+, r19
    c328:	91 30       	cpi	r25, 0x01	; 1
    c32a:	08 f0       	brcs	.+2      	; 0xc32e <__ftoa_engine+0x40>
    c32c:	80 68       	ori	r24, 0x80	; 128
    c32e:	91 1d       	adc	r25, r1
    c330:	df 93       	push	r29
    c332:	cf 93       	push	r28
    c334:	1f 93       	push	r17
    c336:	0f 93       	push	r16
    c338:	ff 92       	push	r15
    c33a:	ef 92       	push	r14
    c33c:	19 2f       	mov	r17, r25
    c33e:	98 7f       	andi	r25, 0xF8	; 248
    c340:	96 95       	lsr	r25
    c342:	e9 2f       	mov	r30, r25
    c344:	96 95       	lsr	r25
    c346:	96 95       	lsr	r25
    c348:	e9 0f       	add	r30, r25
    c34a:	ff 27       	eor	r31, r31
    c34c:	e5 50       	subi	r30, 0x05	; 5
    c34e:	f7 4b       	sbci	r31, 0xB7	; 183
    c350:	99 27       	eor	r25, r25
    c352:	33 27       	eor	r19, r19
    c354:	ee 24       	eor	r14, r14
    c356:	ff 24       	eor	r15, r15
    c358:	a7 01       	movw	r20, r14
    c35a:	e7 01       	movw	r28, r14
    c35c:	05 90       	lpm	r0, Z+
    c35e:	08 94       	sec
    c360:	07 94       	ror	r0
    c362:	28 f4       	brcc	.+10     	; 0xc36e <__ftoa_engine+0x80>
    c364:	36 0f       	add	r19, r22
    c366:	e7 1e       	adc	r14, r23
    c368:	f8 1e       	adc	r15, r24
    c36a:	49 1f       	adc	r20, r25
    c36c:	51 1d       	adc	r21, r1
    c36e:	66 0f       	add	r22, r22
    c370:	77 1f       	adc	r23, r23
    c372:	88 1f       	adc	r24, r24
    c374:	99 1f       	adc	r25, r25
    c376:	06 94       	lsr	r0
    c378:	a1 f7       	brne	.-24     	; 0xc362 <__ftoa_engine+0x74>
    c37a:	05 90       	lpm	r0, Z+
    c37c:	07 94       	ror	r0
    c37e:	28 f4       	brcc	.+10     	; 0xc38a <__ftoa_engine+0x9c>
    c380:	e7 0e       	add	r14, r23
    c382:	f8 1e       	adc	r15, r24
    c384:	49 1f       	adc	r20, r25
    c386:	56 1f       	adc	r21, r22
    c388:	c1 1d       	adc	r28, r1
    c38a:	77 0f       	add	r23, r23
    c38c:	88 1f       	adc	r24, r24
    c38e:	99 1f       	adc	r25, r25
    c390:	66 1f       	adc	r22, r22
    c392:	06 94       	lsr	r0
    c394:	a1 f7       	brne	.-24     	; 0xc37e <__ftoa_engine+0x90>
    c396:	05 90       	lpm	r0, Z+
    c398:	07 94       	ror	r0
    c39a:	28 f4       	brcc	.+10     	; 0xc3a6 <__ftoa_engine+0xb8>
    c39c:	f8 0e       	add	r15, r24
    c39e:	49 1f       	adc	r20, r25
    c3a0:	56 1f       	adc	r21, r22
    c3a2:	c7 1f       	adc	r28, r23
    c3a4:	d1 1d       	adc	r29, r1
    c3a6:	88 0f       	add	r24, r24
    c3a8:	99 1f       	adc	r25, r25
    c3aa:	66 1f       	adc	r22, r22
    c3ac:	77 1f       	adc	r23, r23
    c3ae:	06 94       	lsr	r0
    c3b0:	a1 f7       	brne	.-24     	; 0xc39a <__ftoa_engine+0xac>
    c3b2:	05 90       	lpm	r0, Z+
    c3b4:	07 94       	ror	r0
    c3b6:	20 f4       	brcc	.+8      	; 0xc3c0 <__ftoa_engine+0xd2>
    c3b8:	49 0f       	add	r20, r25
    c3ba:	56 1f       	adc	r21, r22
    c3bc:	c7 1f       	adc	r28, r23
    c3be:	d8 1f       	adc	r29, r24
    c3c0:	99 0f       	add	r25, r25
    c3c2:	66 1f       	adc	r22, r22
    c3c4:	77 1f       	adc	r23, r23
    c3c6:	88 1f       	adc	r24, r24
    c3c8:	06 94       	lsr	r0
    c3ca:	a9 f7       	brne	.-22     	; 0xc3b6 <__ftoa_engine+0xc8>
    c3cc:	84 91       	lpm	r24, Z+
    c3ce:	10 95       	com	r17
    c3d0:	17 70       	andi	r17, 0x07	; 7
    c3d2:	41 f0       	breq	.+16     	; 0xc3e4 <__ftoa_engine+0xf6>
    c3d4:	d6 95       	lsr	r29
    c3d6:	c7 95       	ror	r28
    c3d8:	57 95       	ror	r21
    c3da:	47 95       	ror	r20
    c3dc:	f7 94       	ror	r15
    c3de:	e7 94       	ror	r14
    c3e0:	1a 95       	dec	r17
    c3e2:	c1 f7       	brne	.-16     	; 0xc3d4 <__ftoa_engine+0xe6>
    c3e4:	e1 ea       	ldi	r30, 0xA1	; 161
    c3e6:	f8 e4       	ldi	r31, 0x48	; 72
    c3e8:	68 94       	set
    c3ea:	15 90       	lpm	r1, Z+
    c3ec:	15 91       	lpm	r17, Z+
    c3ee:	35 91       	lpm	r19, Z+
    c3f0:	65 91       	lpm	r22, Z+
    c3f2:	95 91       	lpm	r25, Z+
    c3f4:	05 90       	lpm	r0, Z+
    c3f6:	7f e2       	ldi	r23, 0x2F	; 47
    c3f8:	73 95       	inc	r23
    c3fa:	e1 18       	sub	r14, r1
    c3fc:	f1 0a       	sbc	r15, r17
    c3fe:	43 0b       	sbc	r20, r19
    c400:	56 0b       	sbc	r21, r22
    c402:	c9 0b       	sbc	r28, r25
    c404:	d0 09       	sbc	r29, r0
    c406:	c0 f7       	brcc	.-16     	; 0xc3f8 <__ftoa_engine+0x10a>
    c408:	e1 0c       	add	r14, r1
    c40a:	f1 1e       	adc	r15, r17
    c40c:	43 1f       	adc	r20, r19
    c40e:	56 1f       	adc	r21, r22
    c410:	c9 1f       	adc	r28, r25
    c412:	d0 1d       	adc	r29, r0
    c414:	7e f4       	brtc	.+30     	; 0xc434 <__ftoa_engine+0x146>
    c416:	70 33       	cpi	r23, 0x30	; 48
    c418:	11 f4       	brne	.+4      	; 0xc41e <__ftoa_engine+0x130>
    c41a:	8a 95       	dec	r24
    c41c:	e6 cf       	rjmp	.-52     	; 0xc3ea <__ftoa_engine+0xfc>
    c41e:	e8 94       	clt
    c420:	01 50       	subi	r16, 0x01	; 1
    c422:	30 f0       	brcs	.+12     	; 0xc430 <__ftoa_engine+0x142>
    c424:	08 0f       	add	r16, r24
    c426:	0a f4       	brpl	.+2      	; 0xc42a <__ftoa_engine+0x13c>
    c428:	00 27       	eor	r16, r16
    c42a:	02 17       	cp	r16, r18
    c42c:	08 f4       	brcc	.+2      	; 0xc430 <__ftoa_engine+0x142>
    c42e:	20 2f       	mov	r18, r16
    c430:	23 95       	inc	r18
    c432:	02 2f       	mov	r16, r18
    c434:	7a 33       	cpi	r23, 0x3A	; 58
    c436:	28 f0       	brcs	.+10     	; 0xc442 <__ftoa_engine+0x154>
    c438:	79 e3       	ldi	r23, 0x39	; 57
    c43a:	7d 93       	st	X+, r23
    c43c:	2a 95       	dec	r18
    c43e:	e9 f7       	brne	.-6      	; 0xc43a <__ftoa_engine+0x14c>
    c440:	10 c0       	rjmp	.+32     	; 0xc462 <__ftoa_engine+0x174>
    c442:	7d 93       	st	X+, r23
    c444:	2a 95       	dec	r18
    c446:	89 f6       	brne	.-94     	; 0xc3ea <__ftoa_engine+0xfc>
    c448:	06 94       	lsr	r0
    c44a:	97 95       	ror	r25
    c44c:	67 95       	ror	r22
    c44e:	37 95       	ror	r19
    c450:	17 95       	ror	r17
    c452:	17 94       	ror	r1
    c454:	e1 18       	sub	r14, r1
    c456:	f1 0a       	sbc	r15, r17
    c458:	43 0b       	sbc	r20, r19
    c45a:	56 0b       	sbc	r21, r22
    c45c:	c9 0b       	sbc	r28, r25
    c45e:	d0 09       	sbc	r29, r0
    c460:	98 f0       	brcs	.+38     	; 0xc488 <__ftoa_engine+0x19a>
    c462:	23 95       	inc	r18
    c464:	7e 91       	ld	r23, -X
    c466:	73 95       	inc	r23
    c468:	7a 33       	cpi	r23, 0x3A	; 58
    c46a:	08 f0       	brcs	.+2      	; 0xc46e <__ftoa_engine+0x180>
    c46c:	70 e3       	ldi	r23, 0x30	; 48
    c46e:	7c 93       	st	X, r23
    c470:	20 13       	cpse	r18, r16
    c472:	b8 f7       	brcc	.-18     	; 0xc462 <__ftoa_engine+0x174>
    c474:	7e 91       	ld	r23, -X
    c476:	70 61       	ori	r23, 0x10	; 16
    c478:	7d 93       	st	X+, r23
    c47a:	30 f0       	brcs	.+12     	; 0xc488 <__ftoa_engine+0x19a>
    c47c:	83 95       	inc	r24
    c47e:	71 e3       	ldi	r23, 0x31	; 49
    c480:	7d 93       	st	X+, r23
    c482:	70 e3       	ldi	r23, 0x30	; 48
    c484:	2a 95       	dec	r18
    c486:	e1 f7       	brne	.-8      	; 0xc480 <__ftoa_engine+0x192>
    c488:	11 24       	eor	r1, r1
    c48a:	ef 90       	pop	r14
    c48c:	ff 90       	pop	r15
    c48e:	0f 91       	pop	r16
    c490:	1f 91       	pop	r17
    c492:	cf 91       	pop	r28
    c494:	df 91       	pop	r29
    c496:	99 27       	eor	r25, r25
    c498:	87 fd       	sbrc	r24, 7
    c49a:	90 95       	com	r25
    c49c:	08 95       	ret

0000c49e <strnlen_P>:
    c49e:	fc 01       	movw	r30, r24
    c4a0:	05 90       	lpm	r0, Z+
    c4a2:	61 50       	subi	r22, 0x01	; 1
    c4a4:	70 40       	sbci	r23, 0x00	; 0
    c4a6:	01 10       	cpse	r0, r1
    c4a8:	d8 f7       	brcc	.-10     	; 0xc4a0 <strnlen_P+0x2>
    c4aa:	80 95       	com	r24
    c4ac:	90 95       	com	r25
    c4ae:	8e 0f       	add	r24, r30
    c4b0:	9f 1f       	adc	r25, r31
    c4b2:	08 95       	ret

0000c4b4 <strnlen>:
    c4b4:	fc 01       	movw	r30, r24
    c4b6:	61 50       	subi	r22, 0x01	; 1
    c4b8:	70 40       	sbci	r23, 0x00	; 0
    c4ba:	01 90       	ld	r0, Z+
    c4bc:	01 10       	cpse	r0, r1
    c4be:	d8 f7       	brcc	.-10     	; 0xc4b6 <strnlen+0x2>
    c4c0:	80 95       	com	r24
    c4c2:	90 95       	com	r25
    c4c4:	8e 0f       	add	r24, r30
    c4c6:	9f 1f       	adc	r25, r31
    c4c8:	08 95       	ret

0000c4ca <fputc>:
    c4ca:	0f 93       	push	r16
    c4cc:	1f 93       	push	r17
    c4ce:	cf 93       	push	r28
    c4d0:	df 93       	push	r29
    c4d2:	8c 01       	movw	r16, r24
    c4d4:	eb 01       	movw	r28, r22
    c4d6:	8b 81       	ldd	r24, Y+3	; 0x03
    c4d8:	81 ff       	sbrs	r24, 1
    c4da:	1b c0       	rjmp	.+54     	; 0xc512 <fputc+0x48>
    c4dc:	82 ff       	sbrs	r24, 2
    c4de:	0d c0       	rjmp	.+26     	; 0xc4fa <fputc+0x30>
    c4e0:	2e 81       	ldd	r18, Y+6	; 0x06
    c4e2:	3f 81       	ldd	r19, Y+7	; 0x07
    c4e4:	8c 81       	ldd	r24, Y+4	; 0x04
    c4e6:	9d 81       	ldd	r25, Y+5	; 0x05
    c4e8:	28 17       	cp	r18, r24
    c4ea:	39 07       	cpc	r19, r25
    c4ec:	64 f4       	brge	.+24     	; 0xc506 <fputc+0x3c>
    c4ee:	e8 81       	ld	r30, Y
    c4f0:	f9 81       	ldd	r31, Y+1	; 0x01
    c4f2:	01 93       	st	Z+, r16
    c4f4:	f9 83       	std	Y+1, r31	; 0x01
    c4f6:	e8 83       	st	Y, r30
    c4f8:	06 c0       	rjmp	.+12     	; 0xc506 <fputc+0x3c>
    c4fa:	e8 85       	ldd	r30, Y+8	; 0x08
    c4fc:	f9 85       	ldd	r31, Y+9	; 0x09
    c4fe:	80 2f       	mov	r24, r16
    c500:	09 95       	icall
    c502:	89 2b       	or	r24, r25
    c504:	31 f4       	brne	.+12     	; 0xc512 <fputc+0x48>
    c506:	8e 81       	ldd	r24, Y+6	; 0x06
    c508:	9f 81       	ldd	r25, Y+7	; 0x07
    c50a:	01 96       	adiw	r24, 0x01	; 1
    c50c:	9f 83       	std	Y+7, r25	; 0x07
    c50e:	8e 83       	std	Y+6, r24	; 0x06
    c510:	02 c0       	rjmp	.+4      	; 0xc516 <fputc+0x4c>
    c512:	0f ef       	ldi	r16, 0xFF	; 255
    c514:	1f ef       	ldi	r17, 0xFF	; 255
    c516:	c8 01       	movw	r24, r16
    c518:	df 91       	pop	r29
    c51a:	cf 91       	pop	r28
    c51c:	1f 91       	pop	r17
    c51e:	0f 91       	pop	r16
    c520:	08 95       	ret

0000c522 <__ultoa_invert>:
    c522:	fa 01       	movw	r30, r20
    c524:	aa 27       	eor	r26, r26
    c526:	28 30       	cpi	r18, 0x08	; 8
    c528:	51 f1       	breq	.+84     	; 0xc57e <__ultoa_invert+0x5c>
    c52a:	20 31       	cpi	r18, 0x10	; 16
    c52c:	81 f1       	breq	.+96     	; 0xc58e <__ultoa_invert+0x6c>
    c52e:	e8 94       	clt
    c530:	6f 93       	push	r22
    c532:	6e 7f       	andi	r22, 0xFE	; 254
    c534:	6e 5f       	subi	r22, 0xFE	; 254
    c536:	7f 4f       	sbci	r23, 0xFF	; 255
    c538:	8f 4f       	sbci	r24, 0xFF	; 255
    c53a:	9f 4f       	sbci	r25, 0xFF	; 255
    c53c:	af 4f       	sbci	r26, 0xFF	; 255
    c53e:	b1 e0       	ldi	r27, 0x01	; 1
    c540:	3e d0       	rcall	.+124    	; 0xc5be <__ultoa_invert+0x9c>
    c542:	b4 e0       	ldi	r27, 0x04	; 4
    c544:	3c d0       	rcall	.+120    	; 0xc5be <__ultoa_invert+0x9c>
    c546:	67 0f       	add	r22, r23
    c548:	78 1f       	adc	r23, r24
    c54a:	89 1f       	adc	r24, r25
    c54c:	9a 1f       	adc	r25, r26
    c54e:	a1 1d       	adc	r26, r1
    c550:	68 0f       	add	r22, r24
    c552:	79 1f       	adc	r23, r25
    c554:	8a 1f       	adc	r24, r26
    c556:	91 1d       	adc	r25, r1
    c558:	a1 1d       	adc	r26, r1
    c55a:	6a 0f       	add	r22, r26
    c55c:	71 1d       	adc	r23, r1
    c55e:	81 1d       	adc	r24, r1
    c560:	91 1d       	adc	r25, r1
    c562:	a1 1d       	adc	r26, r1
    c564:	20 d0       	rcall	.+64     	; 0xc5a6 <__ultoa_invert+0x84>
    c566:	09 f4       	brne	.+2      	; 0xc56a <__ultoa_invert+0x48>
    c568:	68 94       	set
    c56a:	3f 91       	pop	r19
    c56c:	2a e0       	ldi	r18, 0x0A	; 10
    c56e:	26 9f       	mul	r18, r22
    c570:	11 24       	eor	r1, r1
    c572:	30 19       	sub	r19, r0
    c574:	30 5d       	subi	r19, 0xD0	; 208
    c576:	31 93       	st	Z+, r19
    c578:	de f6       	brtc	.-74     	; 0xc530 <__ultoa_invert+0xe>
    c57a:	cf 01       	movw	r24, r30
    c57c:	08 95       	ret
    c57e:	46 2f       	mov	r20, r22
    c580:	47 70       	andi	r20, 0x07	; 7
    c582:	40 5d       	subi	r20, 0xD0	; 208
    c584:	41 93       	st	Z+, r20
    c586:	b3 e0       	ldi	r27, 0x03	; 3
    c588:	0f d0       	rcall	.+30     	; 0xc5a8 <__ultoa_invert+0x86>
    c58a:	c9 f7       	brne	.-14     	; 0xc57e <__ultoa_invert+0x5c>
    c58c:	f6 cf       	rjmp	.-20     	; 0xc57a <__ultoa_invert+0x58>
    c58e:	46 2f       	mov	r20, r22
    c590:	4f 70       	andi	r20, 0x0F	; 15
    c592:	40 5d       	subi	r20, 0xD0	; 208
    c594:	4a 33       	cpi	r20, 0x3A	; 58
    c596:	18 f0       	brcs	.+6      	; 0xc59e <__ultoa_invert+0x7c>
    c598:	49 5d       	subi	r20, 0xD9	; 217
    c59a:	31 fd       	sbrc	r19, 1
    c59c:	40 52       	subi	r20, 0x20	; 32
    c59e:	41 93       	st	Z+, r20
    c5a0:	02 d0       	rcall	.+4      	; 0xc5a6 <__ultoa_invert+0x84>
    c5a2:	a9 f7       	brne	.-22     	; 0xc58e <__ultoa_invert+0x6c>
    c5a4:	ea cf       	rjmp	.-44     	; 0xc57a <__ultoa_invert+0x58>
    c5a6:	b4 e0       	ldi	r27, 0x04	; 4
    c5a8:	a6 95       	lsr	r26
    c5aa:	97 95       	ror	r25
    c5ac:	87 95       	ror	r24
    c5ae:	77 95       	ror	r23
    c5b0:	67 95       	ror	r22
    c5b2:	ba 95       	dec	r27
    c5b4:	c9 f7       	brne	.-14     	; 0xc5a8 <__ultoa_invert+0x86>
    c5b6:	00 97       	sbiw	r24, 0x00	; 0
    c5b8:	61 05       	cpc	r22, r1
    c5ba:	71 05       	cpc	r23, r1
    c5bc:	08 95       	ret
    c5be:	9b 01       	movw	r18, r22
    c5c0:	ac 01       	movw	r20, r24
    c5c2:	0a 2e       	mov	r0, r26
    c5c4:	06 94       	lsr	r0
    c5c6:	57 95       	ror	r21
    c5c8:	47 95       	ror	r20
    c5ca:	37 95       	ror	r19
    c5cc:	27 95       	ror	r18
    c5ce:	ba 95       	dec	r27
    c5d0:	c9 f7       	brne	.-14     	; 0xc5c4 <__ultoa_invert+0xa2>
    c5d2:	62 0f       	add	r22, r18
    c5d4:	73 1f       	adc	r23, r19
    c5d6:	84 1f       	adc	r24, r20
    c5d8:	95 1f       	adc	r25, r21
    c5da:	a0 1d       	adc	r26, r0
    c5dc:	08 95       	ret

0000c5de <_exit>:
    c5de:	f8 94       	cli

0000c5e0 <__stop_program>:
    c5e0:	ff cf       	rjmp	.-2      	; 0xc5e0 <__stop_program>
